(dp1
S'nombre'
p2
(dp3
S'sortable'
p4
I2
sS'type'
p5
S'string'
p6
sS'sql'
p7
S'CHAR(512)'
p8
ssS'telefono'
p9
(dp10
g4
I3
sg5
S'integer'
p11
sg7
S'INTEGER'
p12
ssS'id'
p13
(dp14
g4
I1
sg5
g13
sg7
S'INTEGER PRIMARY KEY AUTOINCREMENT'
p15
ssS'domicilio'
p16
(dp17
g4
I4
sg5
g6
sg7
S'CHAR(512)'
p18
ssS'email'
p19
(dp20
g4
I5
sg5
S'string'
p21
sg7
S'CHAR(512)'
p22
ss.