(dp1
S'origin'
p2
(dp3
S'sortable'
p4
I5
sS'type'
p5
S'string'
p6
sS'sql'
p7
S'CHAR(512)'
p8
ssS'client_ip'
p9
(dp10
g4
I3
sg5
g6
sg7
S'CHAR(512)'
p11
ssS'user_id'
p12
(dp13
g4
I4
sg5
S'reference auth_user'
p14
sg7
S'INTEGER REFERENCES auth_user(id) ON DELETE CASCADE'
p15
ssS'description'
p16
(dp17
g4
I6
sg5
S'text'
p18
sg7
S'TEXT'
p19
ssS'time_stamp'
p20
(dp21
g4
I2
sg5
S'datetime'
p22
sg7
S'TIMESTAMP'
p23
ssS'id'
p24
(dp25
g4
I1
sg5
g24
sg7
S'INTEGER PRIMARY KEY AUTOINCREMENT'
p26
ss.