(dp1
S'total'
p2
(dp3
S'type'
p4
S'double'
p5
sS'sortable'
p6
I4
sS'sql'
p7
S'DOUBLE'
p8
ssS'articulo'
p9
(dp10
g4
S'list:integer'
p11
sg6
I3
sg7
S'TEXT'
p12
ssS'id'
p13
(dp14
g4
S'id'
p15
sg6
I1
sg7
S'INTEGER PRIMARY KEY AUTOINCREMENT'
p16
ssS'fventa'
p17
(dp18
g4
S'datetime'
p19
sg6
I5
sg7
S'TIMESTAMP'
p20
ssS'cliente'
p21
(dp22
g4
S'reference cliente'
p23
sg6
I2
sg7
S'INTEGER REFERENCES cliente(id) ON DELETE CASCADE'
p24
ss.