(dp1
S'record_id'
p2
(dp3
S'sortable'
p4
I5
sS'type'
p5
S'integer'
p6
sS'sql'
p7
S'INTEGER'
p8
ssS'group_id'
p9
(dp10
g4
I2
sg5
S'reference auth_group'
p11
sg7
S'INTEGER REFERENCES auth_group(id) ON DELETE CASCADE'
p12
ssS'table_name'
p13
(dp14
g4
I4
sg5
S'string'
p15
sg7
S'CHAR(512)'
p16
ssS'id'
p17
(dp18
g4
I1
sg5
g17
sg7
S'INTEGER PRIMARY KEY AUTOINCREMENT'
p19
ssS'name'
p20
(dp21
g4
I3
sg5
g15
sg7
S'CHAR(512)'
p22
ss.