(dp1
S'created_on'
p2
(dp3
S'sortable'
p4
I3
sS'type'
p5
S'datetime'
p6
sS'sql'
p7
S'TIMESTAMP'
p8
ssS'user_id'
p9
(dp10
g4
I2
sg5
S'reference auth_user'
p11
sg7
S'INTEGER REFERENCES auth_user(id) ON DELETE CASCADE'
p12
ssS'service'
p13
(dp14
g4
I4
sg5
S'string'
p15
sg7
S'CHAR(512)'
p16
ssS'ticket'
p17
(dp18
g4
I5
sg5
g15
sg7
S'CHAR(512)'
p19
ssS'renew'
p20
(dp21
g4
I6
sg5
S'boolean'
p22
sg7
S'CHAR(1)'
p23
ssS'id'
p24
(dp25
g4
I1
sg5
g24
sg7
S'INTEGER PRIMARY KEY AUTOINCREMENT'
p26
ss.