(dp1
S'role'
p2
(dp3
S'sortable'
p4
I2
sS'type'
p5
S'string'
p6
sS'sql'
p7
S'CHAR(512)'
p8
ssS'id'
p9
(dp10
g4
I1
sg5
g9
sg7
S'INTEGER PRIMARY KEY AUTOINCREMENT'
p11
ssS'description'
p12
(dp13
g4
I3
sg5
S'text'
p14
sg7
S'TEXT'
p15
ss.