(dp1
S'rsocial'
p2
(dp3
S'sortable'
p4
I3
sS'type'
p5
S'string'
p6
sS'sql'
p7
S'CHAR(512)'
p8
ssS'nombre'
p9
(dp10
g4
I2
sg5
g6
sg7
S'CHAR(512)'
p11
ssS'telefono'
p12
(dp13
g4
I5
sg5
g6
sg7
S'CHAR(512)'
p14
ssS'id'
p15
(dp16
g4
I1
sg5
S'id'
p17
sg7
S'INTEGER PRIMARY KEY AUTOINCREMENT'
p18
ssS'domicilio'
p19
(dp20
g4
I4
sg5
g6
sg7
S'CHAR(512)'
p21
ss.