(dp1
S'output'
p2
S"<type 'exceptions.AttributeError'> 'str' object has no attribute 'year'"
p3
sS'layer'
p4
S'/home/marco/projects/milanel/web2py/applications/fragance/views/appadmin.html'
p5
sS'code'
p6
S'response.write(\'<!DOCTYPE html>\\n<!-- paulirish.com/2008/conditional-stylesheets-vs-css-hacks-answer-neither/ -->\\n<!--[if lt IE 7]><html class="ie ie6 ie-lte9 ie-lte8 ie-lte7 no-js" lang="\', escape=False)\nresponse.write(T.accepted_language or \'en\')\nresponse.write(\'"> <![endif]-->\\n<!--[if IE 7]><html class="ie ie7 ie-lte9 ie-lte8 ie-lte7 no-js" lang="\', escape=False)\nresponse.write(T.accepted_language or \'en\')\nresponse.write(\'"> <![endif]-->\\n<!--[if IE 8]><html class="ie ie8 ie-lte9 ie-lte8 no-js" lang="\', escape=False)\nresponse.write(T.accepted_language or \'en\')\nresponse.write(\'"> <![endif]-->\\n<!--[if IE 9]><html class="ie9 ie-lte9 no-js" lang="\', escape=False)\nresponse.write(T.accepted_language or \'en\')\nresponse.write(\'"> <![endif]-->\\n<!--[if (gt IE 9)|!(IE)]><!--> <html class="no-js" lang="\', escape=False)\nresponse.write(T.accepted_language or \'en\')\nresponse.write(\'"> <!--<![endif]-->\\n<head>\\n  <meta charset="utf-8" />\\n  <!-- www.phpied.com/conditional-comments-block-downloads/ -->\\n  <!-- Always force latest IE rendering engine\\n\\t   (even in intranet) & Chrome Frame\\n\\t   Remove this if you use the .htaccess -->\\n  <!--[if IE]>\\n    <meta http-equiv="X-UA-Compatible" content="IE=edge\', escape=False)\nresponse.write(not request.is_local and \',chrome=1\' or \'\')\nresponse.write(\'">\\n  <![endif]-->\\n  \\n  <title>\', escape=False)\nresponse.write(response.title or request.application)\nresponse.write(\'</title>\\n  \\n  <!-- http://dev.w3.org/html5/markup/meta.name.html -->\\n  <meta name="application-name" content="\', escape=False)\nresponse.write(request.application)\nresponse.write(\'" />\\n  \\n  <!-- Speaking of Google, don\\\'t forget to set your site up:\\n\\t   http://google.com/webmasters -->\\n  <meta name="google-site-verification" content="" />\\n\\n  <!--  Mobile Viewport Fix\\n\\t  j.mp/mobileviewport & davidbcalhoun.com/2010/viewport-metatag\\n\\t  device-width: Occupy full width of the screen in its current orientation\\n\\t  initial-scale = 1.0 retains dimensions instead of zooming out if page height > device height\\n\\t  user-scalable = yes allows the user to zoom in -->\\n  <meta name="viewport" content="width=device-width, initial-scale=1.0, user-scalable=yes">\\n  \\n  <!-- Place favicon.ico and apple-touch-icon.png in the root of your domain and delete these references -->\\n  <link rel="shortcut icon" href="\', escape=False)\nresponse.write(URL(\'static\',\'favicon.ico\'))\nresponse.write(\'" type="image/x-icon">\\n  <link rel="apple-touch-icon" href="\', escape=False)\nresponse.write(URL(\'static\',\'favicon.png\'))\nresponse.write(\'">\\n\\n  <!-- All JavaScript at the bottom, except for Modernizr which enables \\n\\t   HTML5 elements & feature detects -->\\n  <script src="\', escape=False)\nresponse.write(URL(\'static\',\'js/modernizr.custom.js\'))\nresponse.write(\'"></script>  \\n\\n  <!-- include stylesheets -->\\n  \', escape=False)\nresponse.files.append(URL(\'static\',\'css/skeleton.css\'))\nresponse.files.append(URL(\'static\',\'css/web2py.css\'))\nif response.menu:\n    response.files.append(URL(\'static\',\'css/superfish.css\'))\n    response.files.append(URL(\'static\',\'js/superfish.js\'))\n    pass\nresponse.write(\'\\n\\n  \', escape=False)\nresponse.write(\'<script type="text/javascript"><!--\\n    // These variables are used by the web2py_ajax_init function in web2py_ajax.js (which is loaded below).\\n    var w2p_ajax_confirm_message = "\', escape=False)\nresponse.write(T(\'Are you sure you want to delete this object?\'))\nresponse.write(\'";\\n    var w2p_ajax_date_format = "\', escape=False)\nresponse.write(T(\'%Y-%m-%d\'))\nresponse.write(\'";\\n    var w2p_ajax_datetime_format = "\', escape=False)\nresponse.write(T(\'%Y-%m-%d %H:%M:%S\'))\nresponse.write(\'";\\n    //--></script>\\n\', escape=False)\nresponse.files.insert(0,URL(\'static\',\'js/jquery.js\'))\nresponse.files.insert(1,URL(\'static\',\'css/calendar.css\'))\nresponse.files.insert(2,URL(\'static\',\'js/calendar.js\'))\nresponse.files.insert(3,URL(\'static\',\'js/web2py.js\'))\nresponse.include_meta()\nresponse.include_files()\nresponse.write(\'\\n\', escape=False)\nresponse.write(\'\\n\\n  \', escape=False)\nif response.menu:\n    response.write(\'\\n  <script type="text/javascript">\\n    jQuery(function(){ jQuery(\\\'ul.sf-menu\\\').supersubs({minWidth:12,maxWidth:30,extraWidth:3}).superfish(); });\\n  </script>\\n  \', escape=False)\n    pass\nresponse.write(\'\\n\\n  \', escape=False)\n# using sidebars need to know what sidebar you want to use\nleft_sidebar_enabled = globals().get(\'left_sidebar_enabled\',False)\nright_sidebar_enabled = globals().get(\'right_sidebar_enabled\',False)\nmiddle_columns = {0:\'sixteen\',1:\'twelve\',2:\'eight\'}[\n(left_sidebar_enabled and 1 or 0)+(right_sidebar_enabled and 1 or 0)]\nresponse.write(\'\\n\\n  <!-- uncomment here to load jquery-ui\\n  <link rel="stylesheet" href="http://ajax.googleapis.com/ajax/libs/jqueryui/1.8.16/themes/base/jquery-ui.css" type="text/css" media="all" />\\n  <script src="http://ajax.googleapis.com/ajax/libs/jqueryui/1.8.16/jquery-ui.min.js" type="text/javascript"></script>\\n  uncomment to load jquery-ui //-->\\n</head>\\n<body>\\n  <div class="wrapper"><!-- for sticky footer -->\\n  \\n    <div class="topbar">\\n      <div class="container">    \\n        <div class="sixteen columns">\\n          <div id="navbar">\', escape=False)\nresponse.write(\'auth\' in globals() and auth.navbar(separators=(\' \',\' | \',\'\')))\nresponse.write(\'</div>\\n          \', escape=False)\nis_mobile=request.user_agent().is_mobile\nresponse.write(\'\\n\\t  \', escape=False)\nif response.menu:\n    response.write(\'\\n          <div id="menu">\\n             \', escape=False)\n    response.write(MENU(response.menu, _class=\'mobile-menu\' if is_mobile else \'sf-menu\',mobile=is_mobile))\n    response.write(\'\\n          </div>\\n          \', escape=False)\n    pass\nresponse.write(\'\\n        </div>\\n      </div>\\n    </div><!-- topbar -->\\n    \\n    <div class="flash">\', escape=False)\nresponse.write(response.flash or \'\')\nresponse.write(\'</div>\\n    \\n    <div class="header">\\n      <div class="container">         \\n        <div class="sixteen columns">\\n          <h1 class="remove-bottom" style="margin-top: .5em;">\\n          \', escape=False)\nresponse.write(response.title or request.application)\nresponse.write(\'\\n          </h1>\\n          <h5>\', escape=False)\nresponse.write(response.subtitle or \'\')\nresponse.write(\'</h5>\\n        </div>\\n        <div class="sixteen columns">\\n          <div class="statusbar clearfix">\\n            \', escape=False)\nresponse.write(\'\\n            <div class="breadcrumbs">\', escape=False)\nresponse.write(request.function.replace(\'_\', \' \').title())\nresponse.write(\'</div>\\n            \', escape=False)\nresponse.write(\'\\n            <!-- AddToAny BEGIN -->\\n            <div style="float:right; padding-top: .25em;" class="a2a_kit a2a_default_style">\\n            <a class="a2a_dd" href="http://www.addtoany.com/share_save">Share</a></div>\\n            <script type="text/javascript" src="http://static.addtoany.com/menu/page.js"></script>\\n            <!-- AddToAny END -->\\n          </div>\\n        </div>\\n      </div>\\n    </div>\\n\\n    <div class="main">\\n      <div class="container">                 \\n        \', escape=False)\nif left_sidebar_enabled:\n    response.write(\'\\n        <div class="four columns left-sidebar">\\n          \', escape=False)\n    response.write(\'\\n          <h3>Left Sidebar</h3>\\n          <p></p>\\n          \', escape=False)\n    response.write(\'\\n        </div>\\n        \', escape=False)\n    pass\nresponse.write(\'\\n        \\n        <div class="\', escape=False)\nresponse.write(middle_columns)\nresponse.write(\' columns center">\\n          \', escape=False)\nresponse.write(\'\\n          \', escape=False)\nresponse.write(\'\\n<script><!--\\n    jQuery(document).ready(function(){\\n    jQuery("table.sortable tbody tr").mouseover( function() {\\n    jQuery(this).addClass("highlight"); }).mouseout( function() { \\n    jQuery(this).removeClass("highlight"); });\\n    jQuery(\\\'table.sortable tbody tr:odd\\\').addClass(\\\'odd\\\');\\n    jQuery(\\\'table.sortable tbody tr:even\\\').addClass(\\\'even\\\');\\n});\\n//--></script>\\n\\n\', escape=False)\nif request.function==\'index\':\n    response.write(\'\\n<h2>\', escape=False)\n    response.write(T("Available databases and tables"))\n    response.write(\'</h2>\\n  \', escape=False)\n    if not databases:\n        response.write(T("No databases in this application"))\n        pass\n    response.write(\'\\n  \', escape=False)\n    for db in sorted(databases):\n        response.write(\'\\n    \', escape=False)\n        for table in databases[db].tables:\n            response.write(\'\\n      \', escape=False)\n            qry=\'%s.%s.id>0\'%(db,table)\n            response.write(\'\\n      \', escape=False)\n            tbl=databases[db][table]\n            response.write(\'\\n      \', escape=False)\n            if hasattr(tbl,\'_primarykey\'):\n                response.write(\'\\n        \', escape=False)\n                if tbl._primarykey:\n                    response.write(\'\\n            \', escape=False)\n                    firstkey=tbl[tbl._primarykey[0]]\n                    response.write(\'\\n            \', escape=False)\n                    if firstkey.type in [\'string\',\'text\']:\n                        response.write(\'\\n              \', escape=False)\n                        qry=\'%s.%s.%s!=""\'%(db,table,firstkey.name)\n                        response.write(\'\\n            \', escape=False)\n                    else:\n                        response.write(\'\\n              \', escape=False)\n                        qry=\'%s.%s.%s>0\'%(db,table,firstkey.name)\n                        response.write(\'\\n            \', escape=False)\n                        pass\n                    response.write(\'\\n        \', escape=False)\n                else:\n                    response.write(\'\\n             \', escape=False)\n                    qry=\'\'\n                    response.write(\'\\n             \', escape=False)\n                    pass\n                response.write(\'\\n      \', escape=False)\n                pass\n            response.write(\'\\n      <h3>\\n\\t\', escape=False)\n            response.write(A("%s.%s" % (db,table),_href=URL(\'select\',args=[db],vars=dict(query=qry))))\n            response.write(\'\\n      </h3>\\n      [ \', escape=False)\n            response.write(A(str(T(\'insert new\'))+\' \'+table,_href=URL(\'insert\',args=[db,table])))\n            response.write(\' ]\\n    <br /><br />\\n    \', escape=False)\n            pass\n        response.write(\'\\n  \', escape=False)\n        pass\n    response.write(\'\\n\\n\', escape=False)\nelif request.function==\'select\':\n    response.write(\'\\n  <h2>\', escape=False)\n    response.write(XML(str(T("database %s select"))%A(request.args[0],_href=URL(\'index\'))))\n    response.write(\'\\n  </h2>\\n   \', escape=False)\n    if table:\n        response.write(\'\\n  [ \', escape=False)\n        response.write(A(str(T(\'insert new %s\'))%table,_href=URL(\'insert\',args=[request.args[0],table])))\n        response.write(\' ]<br/><br/>\\n    <h3>\', escape=False)\n        response.write(T("Rows in table"))\n        response.write(\'</h3><br/>\\n   \', escape=False)\n    else:\n        response.write(\'\\n    <h3>\', escape=False)\n        response.write(T("Rows selected"))\n        response.write(\'</h3><br/>\\n   \', escape=False)\n        pass\n    response.write(\'\\n   \', escape=False)\n    response.write(form)\n    response.write(\'\\n   <p>\', escape=False)\n    response.write(T(\'The "query" is a condition like "db.table1.field1==\\\'value\\\'". Something like "db.table1.field1==db.table2.field2" results in a SQL JOIN.\'))\n    response.write(\'<br/>\\n      \', escape=False)\n    response.write(T(\'Use (...)&(...) for AND, (...)|(...) for OR, and ~(...)  for NOT to build more complex queries.\'))\n    response.write(\'<br/>\\n      \', escape=False)\n    response.write(T(\'"update" is an optional expression like "field1=\\\'newvalue\\\'". You cannot update or delete the results of a JOIN\'))\n    response.write(\'</p>\\n    <br/><br/>\\n    <h4>\', escape=False)\n    response.write(nrows)\n    response.write(\' \', escape=False)\n    response.write(T("selected"))\n    response.write(\'</h4>\\n    \', escape=False)\n    if start>0:\n        response.write(\'[ \', escape=False)\n        response.write(A(T(\'previous 100 rows\'),_href=URL(\'select\',args=request.args[0],vars=dict(start=start-100))))\n        response.write(\' ]\', escape=False)\n        pass\n    response.write(\'\\n    \', escape=False)\n    if stop<nrows:\n        response.write(\'[ \', escape=False)\n        response.write(A(T(\'next 100 rows\'),_href=URL(\'select\',args=request.args[0],vars=dict(start=start+100))))\n        response.write(\' ]\', escape=False)\n        pass\n    response.write(\'    \\n    \', escape=False)\n    if rows:\n        response.write(\'\\n       <div style="overflow: auto;" width="80%">\\n       \', escape=False)\n        linkto=URL(\'update\',args=request.args[0])\n        response.write(\'\\n       \', escape=False)\n        upload=URL(\'download\',args=request.args[0])\n        response.write(\'    \\n       \', escape=False)\n        response.write(SQLTABLE(rows,linkto,upload,orderby=True,_class=\'sortable\'))\n        response.write(\'\\n       </div>\\n    \', escape=False)\n        pass\n    response.write(\'\\n    <br/><br/><h3>\', escape=False)\n    response.write(T("Import/Export"))\n    response.write(\'</h3><br/>\\n    [ <a href="\', escape=False)\n    response.write(URL(\'csv\',args=request.args[0],vars=dict(query=query)))\n    response.write(\'">\', escape=False)\n    response.write(T("export as csv file"))\n    response.write(\'</a> ]\\n  \', escape=False)\n    if table:\n        response.write(\'\\n    \', escape=False)\n        response.write(FORM(str(T(\'or import from csv file\'))+" ",INPUT(_type=\'file\',_name=\'csvfile\'),INPUT(_type=\'hidden\',_value=table,_name=\'table\'),INPUT(_type=\'submit\',_value=\'import\')))\n        response.write(\'\\n  \', escape=False)\n        pass\n    response.write(\'\\n\\n\\n\', escape=False)\nelif request.function==\'insert\':\n    response.write(\'  \\n  <h2>\', escape=False)\n    response.write(T("database"))\n    response.write(\' \', escape=False)\n    response.write(A(request.args[0],_href=URL(\'index\')))\n    response.write(\'\\n    \', escape=False)\n    if hasattr(table,\'_primarykey\'):\n        response.write(\'\\n      \', escape=False)\n        fieldname=table._primarykey[0]\n        response.write(\'\\n      \', escape=False)\n        dbname=request.args[0]\n        response.write(\'\\n      \', escape=False)\n        tablename=request.args[1]\n        response.write(\'\\n      \', escape=False)\n        cond = table[fieldname].type in [\'string\',\'text\'] and \'!=""\' or \'>0\'\n        response.write(\'\\n      \', escape=False)\n        response.write(T("table"))\n        response.write(\' \', escape=False)\n        response.write(A(tablename,_href=URL(\'select\',args=dbname,vars=dict(query=\'%s.%s.%s%s\'%(dbname,tablename,fieldname,cond)))))\n        response.write(\'\\n    \', escape=False)\n    else:\n        response.write(\'  \\n      \', escape=False)\n        response.write(T("table"))\n        response.write(\' \', escape=False)\n        response.write(A(request.args[1],_href=URL(\'select\',args=request.args[0],vars=dict(query=\'%s.%s.id>0\'%tuple(request.args[:2])))))\n        response.write(\'\\n    \', escape=False)\n        pass\n    response.write(\'\\n  </h2>\\n  <h3>\', escape=False)\n    response.write(T("New Record"))\n    response.write(\'</h3><br/>\\n  \', escape=False)\n    response.write(form)\n    response.write(\'\\n\', escape=False)\nelif request.function==\'update\':\n    response.write(\'\\n  <h2>\', escape=False)\n    response.write(T("database"))\n    response.write(\' \', escape=False)\n    response.write(A(request.args[0],_href=URL(\'index\')))\n    response.write(\'\\n    \', escape=False)\n    if hasattr(table,\'_primarykey\'):\n        response.write(\'\\n      \', escape=False)\n        fieldname=request.vars.keys()[0]\n        response.write(\'\\n      \', escape=False)\n        dbname=request.args[0]\n        response.write(\'\\n      \', escape=False)\n        tablename=request.args[1]\n        response.write(\'\\n      \', escape=False)\n        cond = table[fieldname].type in [\'string\',\'text\'] and \'!=""\' or \'>0\'\n        response.write(\'      \\n      \', escape=False)\n        response.write(T("table"))\n        response.write(\' \', escape=False)\n        response.write(A(tablename,_href=URL(\'select\',args=dbname,vars=dict(query=\'%s.%s.%s%s\'%(dbname,tablename,fieldname,cond)))))\n        response.write(\'\\n      \', escape=False)\n        response.write(T("record"))\n        response.write(\' \', escape=False)\n        response.write(A(\'%s=%s\'%request.vars.items()[0],_href=URL(\'update\',args=request.args[:2],vars=request.vars)))\n        response.write(\'\\n    \', escape=False)\n    else:\n        response.write(\'\\n      \', escape=False)\n        response.write(T("table"))\n        response.write(\' \', escape=False)\n        response.write(A(request.args[1],_href=URL(\'select\',args=request.args[0],vars=dict(query=\'%s.%s.id>0\'%tuple(request.args[:2])))))\n        response.write(\'\\n      \', escape=False)\n        response.write(T("record id"))\n        response.write(\' \', escape=False)\n        response.write(A(request.args[2],_href=URL(\'update\',args=request.args[:3])))\n        response.write(\'\\n    \', escape=False)\n        pass\n    response.write(\'\\n  </h2>\\n  <h3>\', escape=False)\n    response.write(T("Edit current record"))\n    response.write(\'</h3><br/><br/>\', escape=False)\n    response.write(form)\n    response.write(\'\\n\\n\', escape=False)\nelif request.function==\'state\':\n    response.write(\'\\n  <h2>\', escape=False)\n    response.write(T("Internal State"))\n    response.write(\'</h2>\\n  <h3>\', escape=False)\n    response.write(T("Current request"))\n    response.write(\'</h3>\\n  \', escape=False)\n    response.write(BEAUTIFY(request))\n    response.write(\'\\n  <br/><h3>\', escape=False)\n    response.write(T("Current response"))\n    response.write(\'</h3>\\n  \', escape=False)\n    response.write(BEAUTIFY(response))\n    response.write(\'\\n  <br/><h3>\', escape=False)\n    response.write(T("Current session"))\n    response.write(\'</h3>\\n  \', escape=False)\n    response.write(BEAUTIFY(session))\n    response.write(\'\\n\\n\\n\', escape=False)\nelif request.function == \'ccache\':\n    response.write(\'\\n<h2>Cache</h2>\\n<div class="list">\\n\\n  <div class="list-header">\\n    <h3>Statistics</h3>\\n  </div>\\n\\n  <div class="content">\\n    <h4>Overview</h4>\\n    <p>Number of entries: <strong>\', escape=False)\n    response.write(total[\'entries\'])\n    response.write(\'</strong>\\n      \', escape=False)\n    if total[\'entries\'] > 0:\n        response.write(\'\\n    </p>\\n    <p>\\n      Hit Ratio: \\n      <strong>\', escape=False)\n        response.write(total[\'ratio\'])\n        response.write(\'%</strong> \\n      (<strong>\', escape=False)\n        response.write(total[\'hits\'])\n        response.write(\'</strong> hits \\n      and <strong>\', escape=False)\n        response.write(total[\'misses\'])\n        response.write(\'</strong> misses)\\n    </p>\\n    <p>\\n      Size of cache: \\n      \', escape=False)\n        if object_stats:\n            response.write(\'\\n      <strong>\', escape=False)\n            response.write(total[\'objects\'])\n            response.write(\'</strong> items, \\n      <strong>\', escape=False)\n            response.write(total[\'bytes\'])\n            response.write(\'</strong> bytes \\n      \', escape=False)\n            if total[\'bytes\'] > 524287:\n                response.write(\'\\n      (<strong>\', escape=False)\n                response.write("%.0d" % (total[\'bytes\'] / 1048576))\n                response.write(\' MB</strong>)\\n      \', escape=False)\n                pass\n            response.write(\'\\n      \', escape=False)\n        else:\n            response.write(\' <strong>not available</strong> (requires the Python <a href="http://pypi.python.org/pypi/guppy/" target="_blank">guppy</a> library)\\n      \', escape=False)\n            pass\n        response.write(\'\\n    </p>\\n    <p>\\n      Cache contains items up to \\n      <strong>\', escape=False)\n        response.write("%02d" % total[\'oldest\'][0])\n        response.write(\'</strong> hours \\n      <strong>\', escape=False)\n        response.write("%02d" % total[\'oldest\'][1])\n        response.write(\'</strong> minutes \\n      <strong>\', escape=False)\n        response.write("%02d" % total[\'oldest\'][2])\n        response.write(\'</strong> seconds old.\\n    </p>\\n    \', escape=False)\n        response.write(BUTTON(T(\'Cache Keys\'), _onclick=\'jQuery("#all_keys").toggle();\'))\n        response.write(\'\\n    <div class="hidden" id="all_keys">\\n      \', escape=False)\n        response.write(total[\'keys\'])\n        response.write(\'\\n    </div>\\n    <br />\\n    \', escape=False)\n        pass\n    response.write(\'\\n        \\n    <h4>RAM</h4>\\n    <p>Number of entries: <strong>\', escape=False)\n    response.write(ram[\'entries\'])\n    response.write(\'</strong>\\n        \', escape=False)\n    if ram[\'entries\'] > 0:\n        response.write(\'</p>\\n    <p>\\n      Hit Ratio: \\n      <strong>\', escape=False)\n        response.write(ram[\'ratio\'])\n        response.write(\'%</strong> \\n      (<strong>\', escape=False)\n        response.write(ram[\'hits\'])\n        response.write(\'</strong> hits \\n      and <strong>\', escape=False)\n        response.write(ram[\'misses\'])\n        response.write(\'</strong> misses)\\n    </p>\\n    <p>\\n      Size of cache: \\n      \', escape=False)\n        if object_stats:\n            response.write(\'\\n      <strong>\', escape=False)\n            response.write(ram[\'objects\'])\n            response.write(\'</strong> items, \\n      <strong>\', escape=False)\n            response.write(ram[\'bytes\'])\n            response.write(\'</strong> bytes \\n      \', escape=False)\n            if ram[\'bytes\'] > 524287:\n                response.write(\'\\n      (<strong>\', escape=False)\n                response.write(ram[\'bytes\'] / 1048576)\n                response.write(\' MB</strong>)\\n      \', escape=False)\n                pass\n            response.write(\'\\n      \', escape=False)\n        else:\n            response.write(\' <strong>not available</strong> (requires the Python <a href="http://pypi.python.org/pypi/guppy/" target="_blank">guppy</a> library)\\n      \', escape=False)\n            pass\n        response.write(\'\\n    </p>\\n    <p>\\n      RAM contains items up to \\n      <strong>\', escape=False)\n        response.write("%02d" % ram[\'oldest\'][0])\n        response.write(\'</strong> hours \\n      <strong>\', escape=False)\n        response.write("%02d" % ram[\'oldest\'][1])\n        response.write(\'</strong> minutes \\n      <strong>\', escape=False)\n        response.write("%02d" % ram[\'oldest\'][2])\n        response.write(\'</strong> seconds old.\\n    </p>\\n    \', escape=False)\n        response.write(BUTTON(T(\'RAM Cache Keys\'), _onclick=\'jQuery("#ram_keys").toggle();\'))\n        response.write(\'\\n    <div class="hidden" id="ram_keys">\\n      \', escape=False)\n        response.write(ram[\'keys\'])\n        response.write(\'\\n    </div>\\n    <br />\\n    \', escape=False)\n        pass\n    response.write(\'\\n    \\n    <h4>DISK</h4>\\n    <p>Number of entries: <strong>\', escape=False)\n    response.write(disk[\'entries\'])\n    response.write(\'</strong>\\n      \', escape=False)\n    if disk[\'entries\'] > 0:\n        response.write(\'\\n    </p>\\n    <p>\\n      Hit Ratio: \\n      <strong>\', escape=False)\n        response.write(disk[\'ratio\'])\n        response.write(\'%</strong> \\n      (<strong>\', escape=False)\n        response.write(disk[\'hits\'])\n        response.write(\'</strong> hits \\n      and <strong>\', escape=False)\n        response.write(disk[\'misses\'])\n        response.write(\'</strong> misses)\\n    </p>\\n    <p>\\n      Size of cache: \\n      \', escape=False)\n        if object_stats:\n            response.write(\'\\n      <strong>\', escape=False)\n            response.write(disk[\'objects\'])\n            response.write(\'</strong> items, \\n      <strong>\', escape=False)\n            response.write(disk[\'bytes\'])\n            response.write(\'</strong> bytes \\n      \', escape=False)\n            if disk[\'bytes\'] > 524287:\n                response.write(\'\\n      (<strong>\', escape=False)\n                response.write(disk[\'bytes\'] / 1048576)\n                response.write(\' MB</strong>)\\n      \', escape=False)\n                pass\n            response.write(\'\\n      \', escape=False)\n        else:\n            response.write(\' <strong>not available</strong> (requires the Python <a href="http://pypi.python.org/pypi/guppy/" target="_blank">guppy</a> library)\\n      \', escape=False)\n            pass\n        response.write(\'\\n    </p>\\n    <p>\\n      DISK contains items up to \\n      <strong>\', escape=False)\n        response.write("%02d" % disk[\'oldest\'][0])\n        response.write(\'</strong> hours \\n      <strong>\', escape=False)\n        response.write("%02d" % disk[\'oldest\'][1])\n        response.write(\'</strong> minutes \\n      <strong>\', escape=False)\n        response.write("%02d" % disk[\'oldest\'][2])\n        response.write(\'</strong> seconds old.\\n    </p>\\n    \', escape=False)\n        response.write(BUTTON(T(\'Disk Cache Keys\'), _onclick=\'jQuery("#disk_keys").toggle();\'))\n        response.write(\'\\n    <div class="hidden" id="disk_keys">\\n      \', escape=False)\n        response.write(disk[\'keys\'])\n        response.write(\'\\n    </div>\\n    <br />\\n    \', escape=False)\n        pass\n    response.write(\'\\n  </div>\\n    \\n  <div class="list-header">\\n    <h3>Manage Cache</h3>\\n  </div>\\n  \\n  <div class="content">\\n    <p>\\n      \', escape=False)\n    response.write(form)\n    response.write(\'\\n    </p>\\n  </div>\\n</div>\\n<div class="clear"></div>\\n\', escape=False)\n    pass\nresponse.write(\'\\n\', escape=False)\nresponse.write(\'\\n          \', escape=False)\nresponse.write(\'\\n        </div>\\n        \\n        \', escape=False)\nif right_sidebar_enabled:\n    response.write(\'\\n        <div class="four columns">\\n          \', escape=False)\n    response.write(\'\\n          <h3>Right Sidebar</h3>\\n          <p></p>\\n          \', escape=False)\n    response.write(\'\\n        </div>    \\n        \', escape=False)\n    pass\nresponse.write(\'\\n        \\n      </div><!-- container -->\\n    </div><!-- main -->\\n    \\n    <div class="push"></div>\\n  </div><!-- wrapper -->\\n\\n  <div class="footer">\\n    <div class="container">    \\n      <div class="sixteen columns">\\n        \', escape=False)\nresponse.write(\' <!-- this is default footer -->\\n        <div class="footer-content clearfix">\\n          <div class="copyright">\', escape=False)\nresponse.write(T(\'Copyright\'))\nresponse.write(\' &#169; 2011</div>\\n          <div style="float: right;">\\n            <a href="http://www.web2py.com/">\\n            <img style="padding-bottom: 0;" src="\', escape=False)\nresponse.write(URL(\'static\',\'images/poweredby.png\'))\nresponse.write(\'"/>\\n            </a>\\n          </div>\\n        </div>\\n        \', escape=False)\nresponse.write(\'\\t\\n      </div>\\n    </div><!-- container -->\\n  </div><!-- footer -->\\n  \\n  <!--[if lt IE 7 ]>\\n\\t<script src="\', escape=False)\nresponse.write(URL(\'static\',\'js/dd_belatedpng.js\'))\nresponse.write(\'"></script>\\n\\t<script> DD_belatedPNG.fix(\\\'img, .png_bg\\\'); //fix any <img> or .png_bg background-images </script>\\n\\t<![endif]-->\\n  \', escape=False)\nif response.google_analytics_id:\n    response.write(\'<script type="text/javascript"> var _gaq = _gaq || []; _gaq.push([\\\'_setAccount\\\', \\\'\', escape=False)\n    response.write(response.google_analytics_id)\n    response.write("\']); _gaq.push([\'_trackPageview\']); (function() { var ga = document.createElement(\'script\'); ga.type = \'text/javascript\'; ga.async = true; ga.src = (\'https:\' == document.location.protocol ? \'https://ssl\' : \'http://www\') + \'.google-analytics.com/ga.js\'; var s = document.getElementsByTagName(\'script\')[0]; s.parentNode.insertBefore(ga, s); })(); </script> ", escape=False)\n    pass\nresponse.write(\'\\n</body>\\n</html>\\n\', escape=False)'
p7
sS'snapshot'
p8
(dp9
S'pyver'
p10
S'Python 2.7.2: /usr/bin/pypy'
p11
sS'exception'
p12
(dp13
S'args'
p14
S'("\'str\' object has no attribute \'year\'",)'
p15
sS'__module__'
p16
S"'exceptions'"
p17
sS'__reduce_ex__'
p18
S'<bound method AttributeError.__reduce_ex__ of At...teError("\'str\' object has no attribute \'year\'",)>'
p19
sS'__new__'
p20
S'<function __new__>'
p21
sS'__getitem__'
p22
S'<bound method AttributeError.__getitem__ of AttributeError("\'str\' object has no attribute \'year\'",)>'
p23
sS'__setstate__'
p24
S'<bound method AttributeError.__setstate__ of Att...teError("\'str\' object has no attribute \'year\'",)>'
p25
sS'__reduce__'
p26
S'<bound method AttributeError.__reduce__ of AttributeError("\'str\' object has no attribute \'year\'",)>'
p27
sS'__str__'
p28
S'<bound method AttributeError.__str__ of AttributeError("\'str\' object has no attribute \'year\'",)>'
p29
sS'__format__'
p30
S'<bound method AttributeError.__format__ of AttributeError("\'str\' object has no attribute \'year\'",)>'
p31
sS'__getattribute__'
p32
S'<bound method AttributeError.__getattribute__ of...teError("\'str\' object has no attribute \'year\'",)>'
p33
sS'__class__'
p34
S"<type 'exceptions.AttributeError'>"
p35
sS'__dict__'
p36
S'{}'
p37
sS'__delattr__'
p38
S'<bound method AttributeError.__delattr__ of AttributeError("\'str\' object has no attribute \'year\'",)>'
p39
sS'__unicode__'
p40
S'<bound method AttributeError.__unicode__ of AttributeError("\'str\' object has no attribute \'year\'",)>'
p41
sS'__subclasshook__'
p42
S"<bound method type.__subclasshook__ of <type 'exceptions.AttributeError'>>"
p43
sS'__repr__'
p44
S'<bound method AttributeError.__repr__ of AttributeError("\'str\' object has no attribute \'year\'",)>'
p45
sS'__setattr__'
p46
S'<bound method AttributeError.__setattr__ of AttributeError("\'str\' object has no attribute \'year\'",)>'
p47
sS'__hash__'
p48
S'<bound method AttributeError.__hash__ of AttributeError("\'str\' object has no attribute \'year\'",)>'
p49
sS'__doc__'
p50
S"'Superclass representing the base of the exceptio...ty\\n    and will be deprecated at some point.\\n    '"
p51
sS'__init__'
p52
S'<bound method AttributeError.__init__ of AttributeError("\'str\' object has no attribute \'year\'",)>'
p53
ssS'session'
p54
ccopy_reg
_reconstructor
p55
(cgluon.html
BEAUTIFY
p56
c__builtin__
object
p57
Ntp58
Rp59
(dp60
S'attributes'
p61
(dp62
sS'components'
p63
(lp64
g55
(cgluon.html
TABLE
p65
g57
Ntp66
Rp67
(dp68
S'parent'
p69
Nsg61
(dp70
S'level'
p71
I5
ssg63
(lp72
g55
(cgluon.html
TR
p73
g57
Ntp74
Rp75
(dp76
g69
g67
sg61
(dp77
sg63
(lp78
g55
(cgluon.html
TD
p79
g57
Ntp80
Rp81
(dp82
g69
g75
sg61
(dp83
S'_style'
p84
S'font-weight:bold;vertical-align:top'
p85
ssg63
(lp86
S'last_query'
p87
asbag55
(g79
g57
Ntp88
Rp89
(dp90
g69
g75
sg61
(dp91
S'_valign'
p92
S'top'
p93
ssg63
(lp94
S':'
p95
asbag55
(g79
g57
Ntp96
Rp97
(dp98
g69
g75
sg61
(dp99
sg63
(lp100
g55
(g56
g57
Ntp101
Rp102
(dp103
g69
g97
sg61
(dp104
g71
I5
ssg63
(lp105
S'db.articulo.id>0'
p106
asbasbasbasbasbsS'locals'
p107
(dp108
S'self'
p109
S'<gluon.validators.IS_DATE object>'
p110
sS'value'
p111
S"'15/12/2011'"
p112
sS'format'
p113
S"'%d-%m%-Y'"
p114
ssS'etype'
p115
S"<type 'exceptions.AttributeError'>"
p116
sS'date'
p117
S'Wed Mar 14 12:54:58 2012'
p118
sS'evalue'
p119
S"'str' object has no attribute 'year'"
p120
sS'request'
p121
g55
(g56
g57
Ntp122
Rp123
(dp124
g61
(dp125
sg63
(lp126
g55
(g65
g57
Ntp127
Rp128
(dp129
g69
Nsg61
(dp130
g71
I5
ssg63
(lp131
g55
(g73
g57
Ntp132
Rp133
(dp134
g69
g128
sg61
(dp135
sg63
(lp136
g55
(g79
g57
Ntp137
Rp138
(dp139
g69
g133
sg61
(dp140
g84
g85
ssg63
(lp141
S'ajax'
p142
asbag55
(g79
g57
Ntp143
Rp144
(dp145
g69
g133
sg61
(dp146
g92
g93
ssg63
(lp147
g95
asbag55
(g79
g57
Ntp148
Rp149
(dp150
g69
g133
sg61
(dp151
sg63
(lp152
g55
(g56
g57
Ntp153
Rp154
(dp155
g69
g149
sg61
(dp156
g71
I5
ssg63
(lp157
S'False'
p158
asbasbasbag55
(g73
g57
Ntp159
Rp160
(dp161
g69
g128
sg61
(dp162
sg63
(lp163
g55
(g79
g57
Ntp164
Rp165
(dp166
g69
g160
sg61
(dp167
g84
g85
ssg63
(lp168
S'application'
p169
asbag55
(g79
g57
Ntp170
Rp171
(dp172
g69
g160
sg61
(dp173
g92
g93
ssg63
(lp174
g95
asbag55
(g79
g57
Ntp175
Rp176
(dp177
g69
g160
sg61
(dp178
sg63
(lp179
g55
(g56
g57
Ntp180
Rp181
(dp182
g69
g176
sg61
(dp183
g71
I5
ssg63
(lp184
S'fragance'
p185
asbasbasbag55
(g73
g57
Ntp186
Rp187
(dp188
g69
g128
sg61
(dp189
sg63
(lp190
g55
(g79
g57
Ntp191
Rp192
(dp193
g69
g187
sg61
(dp194
g84
g85
ssg63
(lp195
g14
asbag55
(g79
g57
Ntp196
Rp197
(dp198
g69
g187
sg61
(dp199
g92
g93
ssg63
(lp200
g95
asbag55
(g79
g57
Ntp201
Rp202
(dp203
g69
g187
sg61
(dp204
sg63
(lp205
g55
(g56
g57
Ntp206
Rp207
(dp208
g69
g202
sg61
(dp209
g71
I5
ssg63
(lp210
g55
(g65
g57
Ntp211
Rp212
(dp213
g69
Nsg61
(dp214
g71
I4
ssg63
(lp215
g55
(g73
g57
Ntp216
Rp217
(dp218
g69
g212
sg61
(dp219
sg63
(lp220
g55
(g79
g57
Ntp221
Rp222
(dp223
g69
g217
sg61
(dp224
sg63
(lp225
g55
(g56
g57
Ntp226
Rp227
(dp228
g69
g222
sg61
(dp229
g71
I4
ssg63
(lp230
S'db'
p231
asbasbasbasbasbasbasbag55
(g73
g57
Ntp232
Rp233
(dp234
g69
g128
sg61
(dp235
sg63
(lp236
g55
(g79
g57
Ntp237
Rp238
(dp239
g69
g233
sg61
(dp240
g84
g85
ssg63
(lp241
S'body'
p242
asbag55
(g79
g57
Ntp243
Rp244
(dp245
g69
g233
sg61
(dp246
g92
g93
ssg63
(lp247
g95
asbag55
(g79
g57
Ntp248
Rp249
(dp250
g69
g233
sg61
(dp251
sg63
(lp252
g55
(g56
g57
Ntp253
Rp254
(dp255
g69
g249
sg61
(dp256
g71
I5
ssg63
(lp257
S'<cStringIO.StringO object at 0x000000000a284288>'
p258
asbasbasbag55
(g73
g57
Ntp259
Rp260
(dp261
g69
g128
sg61
(dp262
sg63
(lp263
g55
(g79
g57
Ntp264
Rp265
(dp266
g69
g260
sg61
(dp267
g84
g85
ssg63
(lp268
S'client'
p269
asbag55
(g79
g57
Ntp270
Rp271
(dp272
g69
g260
sg61
(dp273
g92
g93
ssg63
(lp274
g95
asbag55
(g79
g57
Ntp275
Rp276
(dp277
g69
g260
sg61
(dp278
sg63
(lp279
g55
(g56
g57
Ntp280
Rp281
(dp282
g69
g276
sg61
(dp283
g71
I5
ssg63
(lp284
S'127.0.0.1'
p285
asbasbasbag55
(g73
g57
Ntp286
Rp287
(dp288
g69
g128
sg61
(dp289
sg63
(lp290
g55
(g79
g57
Ntp291
Rp292
(dp293
g69
g287
sg61
(dp294
g84
g85
ssg63
(lp295
S'controller'
p296
asbag55
(g79
g57
Ntp297
Rp298
(dp299
g69
g287
sg61
(dp300
g92
g93
ssg63
(lp301
g95
asbag55
(g79
g57
Ntp302
Rp303
(dp304
g69
g287
sg61
(dp305
sg63
(lp306
g55
(g56
g57
Ntp307
Rp308
(dp309
g69
g303
sg61
(dp310
g71
I5
ssg63
(lp311
S'appadmin'
p312
asbasbasbag55
(g73
g57
Ntp313
Rp314
(dp315
g69
g128
sg61
(dp316
sg63
(lp317
g55
(g79
g57
Ntp318
Rp319
(dp320
g69
g314
sg61
(dp321
g84
g85
ssg63
(lp322
S'cookies'
p323
asbag55
(g79
g57
Ntp324
Rp325
(dp326
g69
g314
sg61
(dp327
g92
g93
ssg63
(lp328
g95
asbag55
(g79
g57
Ntp329
Rp330
(dp331
g69
g314
sg61
(dp332
sg63
(lp333
g55
(g56
g57
Ntp334
Rp335
(dp336
g69
g330
sg61
(dp337
g71
I5
ssg63
(lp338
g55
(g65
g57
Ntp339
Rp340
(dp341
g69
Nsg61
(dp342
g71
I4
ssg63
(lp343
g55
(g73
g57
Ntp344
Rp345
(dp346
g69
g340
sg61
(dp347
sg63
(lp348
g55
(g79
g57
Ntp349
Rp350
(dp351
g69
g345
sg61
(dp352
g84
g85
ssg63
(lp353
S'PHPSESSID'
p354
asbag55
(g79
g57
Ntp355
Rp356
(dp357
g69
g345
sg61
(dp358
g92
g93
ssg63
(lp359
g95
asbag55
(g79
g57
Ntp360
Rp361
(dp362
g69
g345
sg61
(dp363
sg63
(lp364
g55
(g56
g57
Ntp365
Rp366
(dp367
g69
g361
sg61
(dp368
g71
I4
ssg63
(lp369
g55
(g65
g57
Ntp370
Rp371
(dp372
g69
Nsg61
(dp373
g71
I3
ssg63
(lp374
g55
(g73
g57
Ntp375
Rp376
(dp377
g69
g371
sg61
(dp378
sg63
(lp379
g55
(g79
g57
Ntp380
Rp381
(dp382
g69
g376
sg61
(dp383
g84
g85
ssg63
(lp384
S'comment'
p385
asbag55
(g79
g57
Ntp386
Rp387
(dp388
g69
g376
sg61
(dp389
g92
g93
ssg63
(lp390
g95
asbag55
(g79
g57
Ntp391
Rp392
(dp393
g69
g376
sg61
(dp394
sg63
(lp395
g55
(g56
g57
Ntp396
Rp397
(dp398
g69
g392
sg61
(dp399
g71
I3
ssg63
(lp400
S''
p401
asbasbasbag55
(g73
g57
Ntp402
Rp403
(dp404
g69
g371
sg61
(dp405
sg63
(lp406
g55
(g79
g57
Ntp407
Rp408
(dp409
g69
g403
sg61
(dp410
g84
g85
ssg63
(lp411
S'domain'
p412
asbag55
(g79
g57
Ntp413
Rp414
(dp415
g69
g403
sg61
(dp416
g92
g93
ssg63
(lp417
g95
asbag55
(g79
g57
Ntp418
Rp419
(dp420
g69
g403
sg61
(dp421
sg63
(lp422
g55
(g56
g57
Ntp423
Rp424
(dp425
g69
g419
sg61
(dp426
g71
I3
ssg63
(lp427
g401
asbasbasbag55
(g73
g57
Ntp428
Rp429
(dp430
g69
g371
sg61
(dp431
sg63
(lp432
g55
(g79
g57
Ntp433
Rp434
(dp435
g69
g429
sg61
(dp436
g84
g85
ssg63
(lp437
S'expires'
p438
asbag55
(g79
g57
Ntp439
Rp440
(dp441
g69
g429
sg61
(dp442
g92
g93
ssg63
(lp443
g95
asbag55
(g79
g57
Ntp444
Rp445
(dp446
g69
g429
sg61
(dp447
sg63
(lp448
g55
(g56
g57
Ntp449
Rp450
(dp451
g69
g445
sg61
(dp452
g71
I3
ssg63
(lp453
g401
asbasbasbag55
(g73
g57
Ntp454
Rp455
(dp456
g69
g371
sg61
(dp457
sg63
(lp458
g55
(g79
g57
Ntp459
Rp460
(dp461
g69
g455
sg61
(dp462
g84
g85
ssg63
(lp463
S'httponly'
p464
asbag55
(g79
g57
Ntp465
Rp466
(dp467
g69
g455
sg61
(dp468
g92
g93
ssg63
(lp469
g95
asbag55
(g79
g57
Ntp470
Rp471
(dp472
g69
g455
sg61
(dp473
sg63
(lp474
g55
(g56
g57
Ntp475
Rp476
(dp477
g69
g471
sg61
(dp478
g71
I3
ssg63
(lp479
g401
asbasbasbag55
(g73
g57
Ntp480
Rp481
(dp482
g69
g371
sg61
(dp483
sg63
(lp484
g55
(g79
g57
Ntp485
Rp486
(dp487
g69
g481
sg61
(dp488
g84
g85
ssg63
(lp489
S'max-age'
p490
asbag55
(g79
g57
Ntp491
Rp492
(dp493
g69
g481
sg61
(dp494
g92
g93
ssg63
(lp495
g95
asbag55
(g79
g57
Ntp496
Rp497
(dp498
g69
g481
sg61
(dp499
sg63
(lp500
g55
(g56
g57
Ntp501
Rp502
(dp503
g69
g497
sg61
(dp504
g71
I3
ssg63
(lp505
g401
asbasbasbag55
(g73
g57
Ntp506
Rp507
(dp508
g69
g371
sg61
(dp509
sg63
(lp510
g55
(g79
g57
Ntp511
Rp512
(dp513
g69
g507
sg61
(dp514
g84
g85
ssg63
(lp515
S'path'
p516
asbag55
(g79
g57
Ntp517
Rp518
(dp519
g69
g507
sg61
(dp520
g92
g93
ssg63
(lp521
g95
asbag55
(g79
g57
Ntp522
Rp523
(dp524
g69
g507
sg61
(dp525
sg63
(lp526
g55
(g56
g57
Ntp527
Rp528
(dp529
g69
g523
sg61
(dp530
g71
I3
ssg63
(lp531
g401
asbasbasbag55
(g73
g57
Ntp532
Rp533
(dp534
g69
g371
sg61
(dp535
sg63
(lp536
g55
(g79
g57
Ntp537
Rp538
(dp539
g69
g533
sg61
(dp540
g84
g85
ssg63
(lp541
S'secure'
p542
asbag55
(g79
g57
Ntp543
Rp544
(dp545
g69
g533
sg61
(dp546
g92
g93
ssg63
(lp547
g95
asbag55
(g79
g57
Ntp548
Rp549
(dp550
g69
g533
sg61
(dp551
sg63
(lp552
g55
(g56
g57
Ntp553
Rp554
(dp555
g69
g549
sg61
(dp556
g71
I3
ssg63
(lp557
g401
asbasbasbag55
(g73
g57
Ntp558
Rp559
(dp560
g69
g371
sg61
(dp561
sg63
(lp562
g55
(g79
g57
Ntp563
Rp564
(dp565
g69
g559
sg61
(dp566
g84
g85
ssg63
(lp567
S'version'
p568
asbag55
(g79
g57
Ntp569
Rp570
(dp571
g69
g559
sg61
(dp572
g92
g93
ssg63
(lp573
g95
asbag55
(g79
g57
Ntp574
Rp575
(dp576
g69
g559
sg61
(dp577
sg63
(lp578
g55
(g56
g57
Ntp579
Rp580
(dp581
g69
g575
sg61
(dp582
g71
I3
ssg63
(lp583
g401
asbasbasbasbasbasbasbag55
(g73
g57
Ntp584
Rp585
(dp586
g69
g340
sg61
(dp587
sg63
(lp588
g55
(g79
g57
Ntp589
Rp590
(dp591
g69
g585
sg61
(dp592
g84
g85
ssg63
(lp593
S'session_id_admin'
p594
asbag55
(g79
g57
Ntp595
Rp596
(dp597
g69
g585
sg61
(dp598
g92
g93
ssg63
(lp599
g95
asbag55
(g79
g57
Ntp600
Rp601
(dp602
g69
g585
sg61
(dp603
sg63
(lp604
g55
(g56
g57
Ntp605
Rp606
(dp607
g69
g601
sg61
(dp608
g71
I4
ssg63
(lp609
g55
(g65
g57
Ntp610
Rp611
(dp612
g69
Nsg61
(dp613
g71
I3
ssg63
(lp614
g55
(g73
g57
Ntp615
Rp616
(dp617
g69
g611
sg61
(dp618
sg63
(lp619
g55
(g79
g57
Ntp620
Rp621
(dp622
g69
g616
sg61
(dp623
g84
g85
ssg63
(lp624
g385
asbag55
(g79
g57
Ntp625
Rp626
(dp627
g69
g616
sg61
(dp628
g92
g93
ssg63
(lp629
g95
asbag55
(g79
g57
Ntp630
Rp631
(dp632
g69
g616
sg61
(dp633
sg63
(lp634
g55
(g56
g57
Ntp635
Rp636
(dp637
g69
g631
sg61
(dp638
g71
I3
ssg63
(lp639
g401
asbasbasbag55
(g73
g57
Ntp640
Rp641
(dp642
g69
g611
sg61
(dp643
sg63
(lp644
g55
(g79
g57
Ntp645
Rp646
(dp647
g69
g641
sg61
(dp648
g84
g85
ssg63
(lp649
g412
asbag55
(g79
g57
Ntp650
Rp651
(dp652
g69
g641
sg61
(dp653
g92
g93
ssg63
(lp654
g95
asbag55
(g79
g57
Ntp655
Rp656
(dp657
g69
g641
sg61
(dp658
sg63
(lp659
g55
(g56
g57
Ntp660
Rp661
(dp662
g69
g656
sg61
(dp663
g71
I3
ssg63
(lp664
g401
asbasbasbag55
(g73
g57
Ntp665
Rp666
(dp667
g69
g611
sg61
(dp668
sg63
(lp669
g55
(g79
g57
Ntp670
Rp671
(dp672
g69
g666
sg61
(dp673
g84
g85
ssg63
(lp674
g438
asbag55
(g79
g57
Ntp675
Rp676
(dp677
g69
g666
sg61
(dp678
g92
g93
ssg63
(lp679
g95
asbag55
(g79
g57
Ntp680
Rp681
(dp682
g69
g666
sg61
(dp683
sg63
(lp684
g55
(g56
g57
Ntp685
Rp686
(dp687
g69
g681
sg61
(dp688
g71
I3
ssg63
(lp689
g401
asbasbasbag55
(g73
g57
Ntp690
Rp691
(dp692
g69
g611
sg61
(dp693
sg63
(lp694
g55
(g79
g57
Ntp695
Rp696
(dp697
g69
g691
sg61
(dp698
g84
g85
ssg63
(lp699
g464
asbag55
(g79
g57
Ntp700
Rp701
(dp702
g69
g691
sg61
(dp703
g92
g93
ssg63
(lp704
g95
asbag55
(g79
g57
Ntp705
Rp706
(dp707
g69
g691
sg61
(dp708
sg63
(lp709
g55
(g56
g57
Ntp710
Rp711
(dp712
g69
g706
sg61
(dp713
g71
I3
ssg63
(lp714
g401
asbasbasbag55
(g73
g57
Ntp715
Rp716
(dp717
g69
g611
sg61
(dp718
sg63
(lp719
g55
(g79
g57
Ntp720
Rp721
(dp722
g69
g716
sg61
(dp723
g84
g85
ssg63
(lp724
g490
asbag55
(g79
g57
Ntp725
Rp726
(dp727
g69
g716
sg61
(dp728
g92
g93
ssg63
(lp729
g95
asbag55
(g79
g57
Ntp730
Rp731
(dp732
g69
g716
sg61
(dp733
sg63
(lp734
g55
(g56
g57
Ntp735
Rp736
(dp737
g69
g731
sg61
(dp738
g71
I3
ssg63
(lp739
g401
asbasbasbag55
(g73
g57
Ntp740
Rp741
(dp742
g69
g611
sg61
(dp743
sg63
(lp744
g55
(g79
g57
Ntp745
Rp746
(dp747
g69
g741
sg61
(dp748
g84
g85
ssg63
(lp749
g516
asbag55
(g79
g57
Ntp750
Rp751
(dp752
g69
g741
sg61
(dp753
g92
g93
ssg63
(lp754
g95
asbag55
(g79
g57
Ntp755
Rp756
(dp757
g69
g741
sg61
(dp758
sg63
(lp759
g55
(g56
g57
Ntp760
Rp761
(dp762
g69
g756
sg61
(dp763
g71
I3
ssg63
(lp764
g401
asbasbasbag55
(g73
g57
Ntp765
Rp766
(dp767
g69
g611
sg61
(dp768
sg63
(lp769
g55
(g79
g57
Ntp770
Rp771
(dp772
g69
g766
sg61
(dp773
g84
g85
ssg63
(lp774
g542
asbag55
(g79
g57
Ntp775
Rp776
(dp777
g69
g766
sg61
(dp778
g92
g93
ssg63
(lp779
g95
asbag55
(g79
g57
Ntp780
Rp781
(dp782
g69
g766
sg61
(dp783
sg63
(lp784
g55
(g56
g57
Ntp785
Rp786
(dp787
g69
g781
sg61
(dp788
g71
I3
ssg63
(lp789
g401
asbasbasbag55
(g73
g57
Ntp790
Rp791
(dp792
g69
g611
sg61
(dp793
sg63
(lp794
g55
(g79
g57
Ntp795
Rp796
(dp797
g69
g791
sg61
(dp798
g84
g85
ssg63
(lp799
g568
asbag55
(g79
g57
Ntp800
Rp801
(dp802
g69
g791
sg61
(dp803
g92
g93
ssg63
(lp804
g95
asbag55
(g79
g57
Ntp805
Rp806
(dp807
g69
g791
sg61
(dp808
sg63
(lp809
g55
(g56
g57
Ntp810
Rp811
(dp812
g69
g806
sg61
(dp813
g71
I3
ssg63
(lp814
g401
asbasbasbasbasbasbasbag55
(g73
g57
Ntp815
Rp816
(dp817
g69
g340
sg61
(dp818
sg63
(lp819
g55
(g79
g57
Ntp820
Rp821
(dp822
g69
g816
sg61
(dp823
g84
g85
ssg63
(lp824
S'session_id_flisol2012'
p825
asbag55
(g79
g57
Ntp826
Rp827
(dp828
g69
g816
sg61
(dp829
g92
g93
ssg63
(lp830
g95
asbag55
(g79
g57
Ntp831
Rp832
(dp833
g69
g816
sg61
(dp834
sg63
(lp835
g55
(g56
g57
Ntp836
Rp837
(dp838
g69
g832
sg61
(dp839
g71
I4
ssg63
(lp840
g55
(g65
g57
Ntp841
Rp842
(dp843
g69
Nsg61
(dp844
g71
I3
ssg63
(lp845
g55
(g73
g57
Ntp846
Rp847
(dp848
g69
g842
sg61
(dp849
sg63
(lp850
g55
(g79
g57
Ntp851
Rp852
(dp853
g69
g847
sg61
(dp854
g84
g85
ssg63
(lp855
g385
asbag55
(g79
g57
Ntp856
Rp857
(dp858
g69
g847
sg61
(dp859
g92
g93
ssg63
(lp860
g95
asbag55
(g79
g57
Ntp861
Rp862
(dp863
g69
g847
sg61
(dp864
sg63
(lp865
g55
(g56
g57
Ntp866
Rp867
(dp868
g69
g862
sg61
(dp869
g71
I3
ssg63
(lp870
g401
asbasbasbag55
(g73
g57
Ntp871
Rp872
(dp873
g69
g842
sg61
(dp874
sg63
(lp875
g55
(g79
g57
Ntp876
Rp877
(dp878
g69
g872
sg61
(dp879
g84
g85
ssg63
(lp880
g412
asbag55
(g79
g57
Ntp881
Rp882
(dp883
g69
g872
sg61
(dp884
g92
g93
ssg63
(lp885
g95
asbag55
(g79
g57
Ntp886
Rp887
(dp888
g69
g872
sg61
(dp889
sg63
(lp890
g55
(g56
g57
Ntp891
Rp892
(dp893
g69
g887
sg61
(dp894
g71
I3
ssg63
(lp895
g401
asbasbasbag55
(g73
g57
Ntp896
Rp897
(dp898
g69
g842
sg61
(dp899
sg63
(lp900
g55
(g79
g57
Ntp901
Rp902
(dp903
g69
g897
sg61
(dp904
g84
g85
ssg63
(lp905
g438
asbag55
(g79
g57
Ntp906
Rp907
(dp908
g69
g897
sg61
(dp909
g92
g93
ssg63
(lp910
g95
asbag55
(g79
g57
Ntp911
Rp912
(dp913
g69
g897
sg61
(dp914
sg63
(lp915
g55
(g56
g57
Ntp916
Rp917
(dp918
g69
g912
sg61
(dp919
g71
I3
ssg63
(lp920
g401
asbasbasbag55
(g73
g57
Ntp921
Rp922
(dp923
g69
g842
sg61
(dp924
sg63
(lp925
g55
(g79
g57
Ntp926
Rp927
(dp928
g69
g922
sg61
(dp929
g84
g85
ssg63
(lp930
g464
asbag55
(g79
g57
Ntp931
Rp932
(dp933
g69
g922
sg61
(dp934
g92
g93
ssg63
(lp935
g95
asbag55
(g79
g57
Ntp936
Rp937
(dp938
g69
g922
sg61
(dp939
sg63
(lp940
g55
(g56
g57
Ntp941
Rp942
(dp943
g69
g937
sg61
(dp944
g71
I3
ssg63
(lp945
g401
asbasbasbag55
(g73
g57
Ntp946
Rp947
(dp948
g69
g842
sg61
(dp949
sg63
(lp950
g55
(g79
g57
Ntp951
Rp952
(dp953
g69
g947
sg61
(dp954
g84
g85
ssg63
(lp955
g490
asbag55
(g79
g57
Ntp956
Rp957
(dp958
g69
g947
sg61
(dp959
g92
g93
ssg63
(lp960
g95
asbag55
(g79
g57
Ntp961
Rp962
(dp963
g69
g947
sg61
(dp964
sg63
(lp965
g55
(g56
g57
Ntp966
Rp967
(dp968
g69
g962
sg61
(dp969
g71
I3
ssg63
(lp970
g401
asbasbasbag55
(g73
g57
Ntp971
Rp972
(dp973
g69
g842
sg61
(dp974
sg63
(lp975
g55
(g79
g57
Ntp976
Rp977
(dp978
g69
g972
sg61
(dp979
g84
g85
ssg63
(lp980
g516
asbag55
(g79
g57
Ntp981
Rp982
(dp983
g69
g972
sg61
(dp984
g92
g93
ssg63
(lp985
g95
asbag55
(g79
g57
Ntp986
Rp987
(dp988
g69
g972
sg61
(dp989
sg63
(lp990
g55
(g56
g57
Ntp991
Rp992
(dp993
g69
g987
sg61
(dp994
g71
I3
ssg63
(lp995
g401
asbasbasbag55
(g73
g57
Ntp996
Rp997
(dp998
g69
g842
sg61
(dp999
sg63
(lp1000
g55
(g79
g57
Ntp1001
Rp1002
(dp1003
g69
g997
sg61
(dp1004
g84
g85
ssg63
(lp1005
g542
asbag55
(g79
g57
Ntp1006
Rp1007
(dp1008
g69
g997
sg61
(dp1009
g92
g93
ssg63
(lp1010
g95
asbag55
(g79
g57
Ntp1011
Rp1012
(dp1013
g69
g997
sg61
(dp1014
sg63
(lp1015
g55
(g56
g57
Ntp1016
Rp1017
(dp1018
g69
g1012
sg61
(dp1019
g71
I3
ssg63
(lp1020
g401
asbasbasbag55
(g73
g57
Ntp1021
Rp1022
(dp1023
g69
g842
sg61
(dp1024
sg63
(lp1025
g55
(g79
g57
Ntp1026
Rp1027
(dp1028
g69
g1022
sg61
(dp1029
g84
g85
ssg63
(lp1030
g568
asbag55
(g79
g57
Ntp1031
Rp1032
(dp1033
g69
g1022
sg61
(dp1034
g92
g93
ssg63
(lp1035
g95
asbag55
(g79
g57
Ntp1036
Rp1037
(dp1038
g69
g1022
sg61
(dp1039
sg63
(lp1040
g55
(g56
g57
Ntp1041
Rp1042
(dp1043
g69
g1037
sg61
(dp1044
g71
I3
ssg63
(lp1045
g401
asbasbasbasbasbasbasbag55
(g73
g57
Ntp1046
Rp1047
(dp1048
g69
g340
sg61
(dp1049
sg63
(lp1050
g55
(g79
g57
Ntp1051
Rp1052
(dp1053
g69
g1047
sg61
(dp1054
g84
g85
ssg63
(lp1055
S'session_id_fragance'
p1056
asbag55
(g79
g57
Ntp1057
Rp1058
(dp1059
g69
g1047
sg61
(dp1060
g92
g93
ssg63
(lp1061
g95
asbag55
(g79
g57
Ntp1062
Rp1063
(dp1064
g69
g1047
sg61
(dp1065
sg63
(lp1066
g55
(g56
g57
Ntp1067
Rp1068
(dp1069
g69
g1063
sg61
(dp1070
g71
I4
ssg63
(lp1071
g55
(g65
g57
Ntp1072
Rp1073
(dp1074
g69
Nsg61
(dp1075
g71
I3
ssg63
(lp1076
g55
(g73
g57
Ntp1077
Rp1078
(dp1079
g69
g1073
sg61
(dp1080
sg63
(lp1081
g55
(g79
g57
Ntp1082
Rp1083
(dp1084
g69
g1078
sg61
(dp1085
g84
g85
ssg63
(lp1086
g385
asbag55
(g79
g57
Ntp1087
Rp1088
(dp1089
g69
g1078
sg61
(dp1090
g92
g93
ssg63
(lp1091
g95
asbag55
(g79
g57
Ntp1092
Rp1093
(dp1094
g69
g1078
sg61
(dp1095
sg63
(lp1096
g55
(g56
g57
Ntp1097
Rp1098
(dp1099
g69
g1093
sg61
(dp1100
g71
I3
ssg63
(lp1101
g401
asbasbasbag55
(g73
g57
Ntp1102
Rp1103
(dp1104
g69
g1073
sg61
(dp1105
sg63
(lp1106
g55
(g79
g57
Ntp1107
Rp1108
(dp1109
g69
g1103
sg61
(dp1110
g84
g85
ssg63
(lp1111
g412
asbag55
(g79
g57
Ntp1112
Rp1113
(dp1114
g69
g1103
sg61
(dp1115
g92
g93
ssg63
(lp1116
g95
asbag55
(g79
g57
Ntp1117
Rp1118
(dp1119
g69
g1103
sg61
(dp1120
sg63
(lp1121
g55
(g56
g57
Ntp1122
Rp1123
(dp1124
g69
g1118
sg61
(dp1125
g71
I3
ssg63
(lp1126
g401
asbasbasbag55
(g73
g57
Ntp1127
Rp1128
(dp1129
g69
g1073
sg61
(dp1130
sg63
(lp1131
g55
(g79
g57
Ntp1132
Rp1133
(dp1134
g69
g1128
sg61
(dp1135
g84
g85
ssg63
(lp1136
g438
asbag55
(g79
g57
Ntp1137
Rp1138
(dp1139
g69
g1128
sg61
(dp1140
g92
g93
ssg63
(lp1141
g95
asbag55
(g79
g57
Ntp1142
Rp1143
(dp1144
g69
g1128
sg61
(dp1145
sg63
(lp1146
g55
(g56
g57
Ntp1147
Rp1148
(dp1149
g69
g1143
sg61
(dp1150
g71
I3
ssg63
(lp1151
g401
asbasbasbag55
(g73
g57
Ntp1152
Rp1153
(dp1154
g69
g1073
sg61
(dp1155
sg63
(lp1156
g55
(g79
g57
Ntp1157
Rp1158
(dp1159
g69
g1153
sg61
(dp1160
g84
g85
ssg63
(lp1161
g464
asbag55
(g79
g57
Ntp1162
Rp1163
(dp1164
g69
g1153
sg61
(dp1165
g92
g93
ssg63
(lp1166
g95
asbag55
(g79
g57
Ntp1167
Rp1168
(dp1169
g69
g1153
sg61
(dp1170
sg63
(lp1171
g55
(g56
g57
Ntp1172
Rp1173
(dp1174
g69
g1168
sg61
(dp1175
g71
I3
ssg63
(lp1176
g401
asbasbasbag55
(g73
g57
Ntp1177
Rp1178
(dp1179
g69
g1073
sg61
(dp1180
sg63
(lp1181
g55
(g79
g57
Ntp1182
Rp1183
(dp1184
g69
g1178
sg61
(dp1185
g84
g85
ssg63
(lp1186
g490
asbag55
(g79
g57
Ntp1187
Rp1188
(dp1189
g69
g1178
sg61
(dp1190
g92
g93
ssg63
(lp1191
g95
asbag55
(g79
g57
Ntp1192
Rp1193
(dp1194
g69
g1178
sg61
(dp1195
sg63
(lp1196
g55
(g56
g57
Ntp1197
Rp1198
(dp1199
g69
g1193
sg61
(dp1200
g71
I3
ssg63
(lp1201
g401
asbasbasbag55
(g73
g57
Ntp1202
Rp1203
(dp1204
g69
g1073
sg61
(dp1205
sg63
(lp1206
g55
(g79
g57
Ntp1207
Rp1208
(dp1209
g69
g1203
sg61
(dp1210
g84
g85
ssg63
(lp1211
g516
asbag55
(g79
g57
Ntp1212
Rp1213
(dp1214
g69
g1203
sg61
(dp1215
g92
g93
ssg63
(lp1216
g95
asbag55
(g79
g57
Ntp1217
Rp1218
(dp1219
g69
g1203
sg61
(dp1220
sg63
(lp1221
g55
(g56
g57
Ntp1222
Rp1223
(dp1224
g69
g1218
sg61
(dp1225
g71
I3
ssg63
(lp1226
g401
asbasbasbag55
(g73
g57
Ntp1227
Rp1228
(dp1229
g69
g1073
sg61
(dp1230
sg63
(lp1231
g55
(g79
g57
Ntp1232
Rp1233
(dp1234
g69
g1228
sg61
(dp1235
g84
g85
ssg63
(lp1236
g542
asbag55
(g79
g57
Ntp1237
Rp1238
(dp1239
g69
g1228
sg61
(dp1240
g92
g93
ssg63
(lp1241
g95
asbag55
(g79
g57
Ntp1242
Rp1243
(dp1244
g69
g1228
sg61
(dp1245
sg63
(lp1246
g55
(g56
g57
Ntp1247
Rp1248
(dp1249
g69
g1243
sg61
(dp1250
g71
I3
ssg63
(lp1251
g401
asbasbasbag55
(g73
g57
Ntp1252
Rp1253
(dp1254
g69
g1073
sg61
(dp1255
sg63
(lp1256
g55
(g79
g57
Ntp1257
Rp1258
(dp1259
g69
g1253
sg61
(dp1260
g84
g85
ssg63
(lp1261
g568
asbag55
(g79
g57
Ntp1262
Rp1263
(dp1264
g69
g1253
sg61
(dp1265
g92
g93
ssg63
(lp1266
g95
asbag55
(g79
g57
Ntp1267
Rp1268
(dp1269
g69
g1253
sg61
(dp1270
sg63
(lp1271
g55
(g56
g57
Ntp1272
Rp1273
(dp1274
g69
g1268
sg61
(dp1275
g71
I3
ssg63
(lp1276
g401
asbasbasbasbasbasbasbag55
(g73
g57
Ntp1277
Rp1278
(dp1279
g69
g340
sg61
(dp1280
sg63
(lp1281
g55
(g79
g57
Ntp1282
Rp1283
(dp1284
g69
g1278
sg61
(dp1285
g84
g85
ssg63
(lp1286
S'session_id_mulone'
p1287
asbag55
(g79
g57
Ntp1288
Rp1289
(dp1290
g69
g1278
sg61
(dp1291
g92
g93
ssg63
(lp1292
g95
asbag55
(g79
g57
Ntp1293
Rp1294
(dp1295
g69
g1278
sg61
(dp1296
sg63
(lp1297
g55
(g56
g57
Ntp1298
Rp1299
(dp1300
g69
g1294
sg61
(dp1301
g71
I4
ssg63
(lp1302
g55
(g65
g57
Ntp1303
Rp1304
(dp1305
g69
Nsg61
(dp1306
g71
I3
ssg63
(lp1307
g55
(g73
g57
Ntp1308
Rp1309
(dp1310
g69
g1304
sg61
(dp1311
sg63
(lp1312
g55
(g79
g57
Ntp1313
Rp1314
(dp1315
g69
g1309
sg61
(dp1316
g84
g85
ssg63
(lp1317
g385
asbag55
(g79
g57
Ntp1318
Rp1319
(dp1320
g69
g1309
sg61
(dp1321
g92
g93
ssg63
(lp1322
g95
asbag55
(g79
g57
Ntp1323
Rp1324
(dp1325
g69
g1309
sg61
(dp1326
sg63
(lp1327
g55
(g56
g57
Ntp1328
Rp1329
(dp1330
g69
g1324
sg61
(dp1331
g71
I3
ssg63
(lp1332
g401
asbasbasbag55
(g73
g57
Ntp1333
Rp1334
(dp1335
g69
g1304
sg61
(dp1336
sg63
(lp1337
g55
(g79
g57
Ntp1338
Rp1339
(dp1340
g69
g1334
sg61
(dp1341
g84
g85
ssg63
(lp1342
g412
asbag55
(g79
g57
Ntp1343
Rp1344
(dp1345
g69
g1334
sg61
(dp1346
g92
g93
ssg63
(lp1347
g95
asbag55
(g79
g57
Ntp1348
Rp1349
(dp1350
g69
g1334
sg61
(dp1351
sg63
(lp1352
g55
(g56
g57
Ntp1353
Rp1354
(dp1355
g69
g1349
sg61
(dp1356
g71
I3
ssg63
(lp1357
g401
asbasbasbag55
(g73
g57
Ntp1358
Rp1359
(dp1360
g69
g1304
sg61
(dp1361
sg63
(lp1362
g55
(g79
g57
Ntp1363
Rp1364
(dp1365
g69
g1359
sg61
(dp1366
g84
g85
ssg63
(lp1367
g438
asbag55
(g79
g57
Ntp1368
Rp1369
(dp1370
g69
g1359
sg61
(dp1371
g92
g93
ssg63
(lp1372
g95
asbag55
(g79
g57
Ntp1373
Rp1374
(dp1375
g69
g1359
sg61
(dp1376
sg63
(lp1377
g55
(g56
g57
Ntp1378
Rp1379
(dp1380
g69
g1374
sg61
(dp1381
g71
I3
ssg63
(lp1382
g401
asbasbasbag55
(g73
g57
Ntp1383
Rp1384
(dp1385
g69
g1304
sg61
(dp1386
sg63
(lp1387
g55
(g79
g57
Ntp1388
Rp1389
(dp1390
g69
g1384
sg61
(dp1391
g84
g85
ssg63
(lp1392
g464
asbag55
(g79
g57
Ntp1393
Rp1394
(dp1395
g69
g1384
sg61
(dp1396
g92
g93
ssg63
(lp1397
g95
asbag55
(g79
g57
Ntp1398
Rp1399
(dp1400
g69
g1384
sg61
(dp1401
sg63
(lp1402
g55
(g56
g57
Ntp1403
Rp1404
(dp1405
g69
g1399
sg61
(dp1406
g71
I3
ssg63
(lp1407
g401
asbasbasbag55
(g73
g57
Ntp1408
Rp1409
(dp1410
g69
g1304
sg61
(dp1411
sg63
(lp1412
g55
(g79
g57
Ntp1413
Rp1414
(dp1415
g69
g1409
sg61
(dp1416
g84
g85
ssg63
(lp1417
g490
asbag55
(g79
g57
Ntp1418
Rp1419
(dp1420
g69
g1409
sg61
(dp1421
g92
g93
ssg63
(lp1422
g95
asbag55
(g79
g57
Ntp1423
Rp1424
(dp1425
g69
g1409
sg61
(dp1426
sg63
(lp1427
g55
(g56
g57
Ntp1428
Rp1429
(dp1430
g69
g1424
sg61
(dp1431
g71
I3
ssg63
(lp1432
g401
asbasbasbag55
(g73
g57
Ntp1433
Rp1434
(dp1435
g69
g1304
sg61
(dp1436
sg63
(lp1437
g55
(g79
g57
Ntp1438
Rp1439
(dp1440
g69
g1434
sg61
(dp1441
g84
g85
ssg63
(lp1442
g516
asbag55
(g79
g57
Ntp1443
Rp1444
(dp1445
g69
g1434
sg61
(dp1446
g92
g93
ssg63
(lp1447
g95
asbag55
(g79
g57
Ntp1448
Rp1449
(dp1450
g69
g1434
sg61
(dp1451
sg63
(lp1452
g55
(g56
g57
Ntp1453
Rp1454
(dp1455
g69
g1449
sg61
(dp1456
g71
I3
ssg63
(lp1457
g401
asbasbasbag55
(g73
g57
Ntp1458
Rp1459
(dp1460
g69
g1304
sg61
(dp1461
sg63
(lp1462
g55
(g79
g57
Ntp1463
Rp1464
(dp1465
g69
g1459
sg61
(dp1466
g84
g85
ssg63
(lp1467
g542
asbag55
(g79
g57
Ntp1468
Rp1469
(dp1470
g69
g1459
sg61
(dp1471
g92
g93
ssg63
(lp1472
g95
asbag55
(g79
g57
Ntp1473
Rp1474
(dp1475
g69
g1459
sg61
(dp1476
sg63
(lp1477
g55
(g56
g57
Ntp1478
Rp1479
(dp1480
g69
g1474
sg61
(dp1481
g71
I3
ssg63
(lp1482
g401
asbasbasbag55
(g73
g57
Ntp1483
Rp1484
(dp1485
g69
g1304
sg61
(dp1486
sg63
(lp1487
g55
(g79
g57
Ntp1488
Rp1489
(dp1490
g69
g1484
sg61
(dp1491
g84
g85
ssg63
(lp1492
g568
asbag55
(g79
g57
Ntp1493
Rp1494
(dp1495
g69
g1484
sg61
(dp1496
g92
g93
ssg63
(lp1497
g95
asbag55
(g79
g57
Ntp1498
Rp1499
(dp1500
g69
g1484
sg61
(dp1501
sg63
(lp1502
g55
(g56
g57
Ntp1503
Rp1504
(dp1505
g69
g1499
sg61
(dp1506
g71
I3
ssg63
(lp1507
g401
asbasbasbasbasbasbasbag55
(g73
g57
Ntp1508
Rp1509
(dp1510
g69
g340
sg61
(dp1511
sg63
(lp1512
g55
(g79
g57
Ntp1513
Rp1514
(dp1515
g69
g1509
sg61
(dp1516
g84
g85
ssg63
(lp1517
S'session_id_pyforum'
p1518
asbag55
(g79
g57
Ntp1519
Rp1520
(dp1521
g69
g1509
sg61
(dp1522
g92
g93
ssg63
(lp1523
g95
asbag55
(g79
g57
Ntp1524
Rp1525
(dp1526
g69
g1509
sg61
(dp1527
sg63
(lp1528
g55
(g56
g57
Ntp1529
Rp1530
(dp1531
g69
g1525
sg61
(dp1532
g71
I4
ssg63
(lp1533
g55
(g65
g57
Ntp1534
Rp1535
(dp1536
g69
Nsg61
(dp1537
g71
I3
ssg63
(lp1538
g55
(g73
g57
Ntp1539
Rp1540
(dp1541
g69
g1535
sg61
(dp1542
sg63
(lp1543
g55
(g79
g57
Ntp1544
Rp1545
(dp1546
g69
g1540
sg61
(dp1547
g84
g85
ssg63
(lp1548
g385
asbag55
(g79
g57
Ntp1549
Rp1550
(dp1551
g69
g1540
sg61
(dp1552
g92
g93
ssg63
(lp1553
g95
asbag55
(g79
g57
Ntp1554
Rp1555
(dp1556
g69
g1540
sg61
(dp1557
sg63
(lp1558
g55
(g56
g57
Ntp1559
Rp1560
(dp1561
g69
g1555
sg61
(dp1562
g71
I3
ssg63
(lp1563
g401
asbasbasbag55
(g73
g57
Ntp1564
Rp1565
(dp1566
g69
g1535
sg61
(dp1567
sg63
(lp1568
g55
(g79
g57
Ntp1569
Rp1570
(dp1571
g69
g1565
sg61
(dp1572
g84
g85
ssg63
(lp1573
g412
asbag55
(g79
g57
Ntp1574
Rp1575
(dp1576
g69
g1565
sg61
(dp1577
g92
g93
ssg63
(lp1578
g95
asbag55
(g79
g57
Ntp1579
Rp1580
(dp1581
g69
g1565
sg61
(dp1582
sg63
(lp1583
g55
(g56
g57
Ntp1584
Rp1585
(dp1586
g69
g1580
sg61
(dp1587
g71
I3
ssg63
(lp1588
g401
asbasbasbag55
(g73
g57
Ntp1589
Rp1590
(dp1591
g69
g1535
sg61
(dp1592
sg63
(lp1593
g55
(g79
g57
Ntp1594
Rp1595
(dp1596
g69
g1590
sg61
(dp1597
g84
g85
ssg63
(lp1598
g438
asbag55
(g79
g57
Ntp1599
Rp1600
(dp1601
g69
g1590
sg61
(dp1602
g92
g93
ssg63
(lp1603
g95
asbag55
(g79
g57
Ntp1604
Rp1605
(dp1606
g69
g1590
sg61
(dp1607
sg63
(lp1608
g55
(g56
g57
Ntp1609
Rp1610
(dp1611
g69
g1605
sg61
(dp1612
g71
I3
ssg63
(lp1613
g401
asbasbasbag55
(g73
g57
Ntp1614
Rp1615
(dp1616
g69
g1535
sg61
(dp1617
sg63
(lp1618
g55
(g79
g57
Ntp1619
Rp1620
(dp1621
g69
g1615
sg61
(dp1622
g84
g85
ssg63
(lp1623
g464
asbag55
(g79
g57
Ntp1624
Rp1625
(dp1626
g69
g1615
sg61
(dp1627
g92
g93
ssg63
(lp1628
g95
asbag55
(g79
g57
Ntp1629
Rp1630
(dp1631
g69
g1615
sg61
(dp1632
sg63
(lp1633
g55
(g56
g57
Ntp1634
Rp1635
(dp1636
g69
g1630
sg61
(dp1637
g71
I3
ssg63
(lp1638
g401
asbasbasbag55
(g73
g57
Ntp1639
Rp1640
(dp1641
g69
g1535
sg61
(dp1642
sg63
(lp1643
g55
(g79
g57
Ntp1644
Rp1645
(dp1646
g69
g1640
sg61
(dp1647
g84
g85
ssg63
(lp1648
g490
asbag55
(g79
g57
Ntp1649
Rp1650
(dp1651
g69
g1640
sg61
(dp1652
g92
g93
ssg63
(lp1653
g95
asbag55
(g79
g57
Ntp1654
Rp1655
(dp1656
g69
g1640
sg61
(dp1657
sg63
(lp1658
g55
(g56
g57
Ntp1659
Rp1660
(dp1661
g69
g1655
sg61
(dp1662
g71
I3
ssg63
(lp1663
g401
asbasbasbag55
(g73
g57
Ntp1664
Rp1665
(dp1666
g69
g1535
sg61
(dp1667
sg63
(lp1668
g55
(g79
g57
Ntp1669
Rp1670
(dp1671
g69
g1665
sg61
(dp1672
g84
g85
ssg63
(lp1673
g516
asbag55
(g79
g57
Ntp1674
Rp1675
(dp1676
g69
g1665
sg61
(dp1677
g92
g93
ssg63
(lp1678
g95
asbag55
(g79
g57
Ntp1679
Rp1680
(dp1681
g69
g1665
sg61
(dp1682
sg63
(lp1683
g55
(g56
g57
Ntp1684
Rp1685
(dp1686
g69
g1680
sg61
(dp1687
g71
I3
ssg63
(lp1688
g401
asbasbasbag55
(g73
g57
Ntp1689
Rp1690
(dp1691
g69
g1535
sg61
(dp1692
sg63
(lp1693
g55
(g79
g57
Ntp1694
Rp1695
(dp1696
g69
g1690
sg61
(dp1697
g84
g85
ssg63
(lp1698
g542
asbag55
(g79
g57
Ntp1699
Rp1700
(dp1701
g69
g1690
sg61
(dp1702
g92
g93
ssg63
(lp1703
g95
asbag55
(g79
g57
Ntp1704
Rp1705
(dp1706
g69
g1690
sg61
(dp1707
sg63
(lp1708
g55
(g56
g57
Ntp1709
Rp1710
(dp1711
g69
g1705
sg61
(dp1712
g71
I3
ssg63
(lp1713
g401
asbasbasbag55
(g73
g57
Ntp1714
Rp1715
(dp1716
g69
g1535
sg61
(dp1717
sg63
(lp1718
g55
(g79
g57
Ntp1719
Rp1720
(dp1721
g69
g1715
sg61
(dp1722
g84
g85
ssg63
(lp1723
g568
asbag55
(g79
g57
Ntp1724
Rp1725
(dp1726
g69
g1715
sg61
(dp1727
g92
g93
ssg63
(lp1728
g95
asbag55
(g79
g57
Ntp1729
Rp1730
(dp1731
g69
g1715
sg61
(dp1732
sg63
(lp1733
g55
(g56
g57
Ntp1734
Rp1735
(dp1736
g69
g1730
sg61
(dp1737
g71
I3
ssg63
(lp1738
g401
asbasbasbasbasbasbasbag55
(g73
g57
Ntp1739
Rp1740
(dp1741
g69
g340
sg61
(dp1742
sg63
(lp1743
g55
(g79
g57
Ntp1744
Rp1745
(dp1746
g69
g1740
sg61
(dp1747
g84
g85
ssg63
(lp1748
S'session_id_welcome'
p1749
asbag55
(g79
g57
Ntp1750
Rp1751
(dp1752
g69
g1740
sg61
(dp1753
g92
g93
ssg63
(lp1754
g95
asbag55
(g79
g57
Ntp1755
Rp1756
(dp1757
g69
g1740
sg61
(dp1758
sg63
(lp1759
g55
(g56
g57
Ntp1760
Rp1761
(dp1762
g69
g1756
sg61
(dp1763
g71
I4
ssg63
(lp1764
g55
(g65
g57
Ntp1765
Rp1766
(dp1767
g69
Nsg61
(dp1768
g71
I3
ssg63
(lp1769
g55
(g73
g57
Ntp1770
Rp1771
(dp1772
g69
g1766
sg61
(dp1773
sg63
(lp1774
g55
(g79
g57
Ntp1775
Rp1776
(dp1777
g69
g1771
sg61
(dp1778
g84
g85
ssg63
(lp1779
g385
asbag55
(g79
g57
Ntp1780
Rp1781
(dp1782
g69
g1771
sg61
(dp1783
g92
g93
ssg63
(lp1784
g95
asbag55
(g79
g57
Ntp1785
Rp1786
(dp1787
g69
g1771
sg61
(dp1788
sg63
(lp1789
g55
(g56
g57
Ntp1790
Rp1791
(dp1792
g69
g1786
sg61
(dp1793
g71
I3
ssg63
(lp1794
g401
asbasbasbag55
(g73
g57
Ntp1795
Rp1796
(dp1797
g69
g1766
sg61
(dp1798
sg63
(lp1799
g55
(g79
g57
Ntp1800
Rp1801
(dp1802
g69
g1796
sg61
(dp1803
g84
g85
ssg63
(lp1804
g412
asbag55
(g79
g57
Ntp1805
Rp1806
(dp1807
g69
g1796
sg61
(dp1808
g92
g93
ssg63
(lp1809
g95
asbag55
(g79
g57
Ntp1810
Rp1811
(dp1812
g69
g1796
sg61
(dp1813
sg63
(lp1814
g55
(g56
g57
Ntp1815
Rp1816
(dp1817
g69
g1811
sg61
(dp1818
g71
I3
ssg63
(lp1819
g401
asbasbasbag55
(g73
g57
Ntp1820
Rp1821
(dp1822
g69
g1766
sg61
(dp1823
sg63
(lp1824
g55
(g79
g57
Ntp1825
Rp1826
(dp1827
g69
g1821
sg61
(dp1828
g84
g85
ssg63
(lp1829
g438
asbag55
(g79
g57
Ntp1830
Rp1831
(dp1832
g69
g1821
sg61
(dp1833
g92
g93
ssg63
(lp1834
g95
asbag55
(g79
g57
Ntp1835
Rp1836
(dp1837
g69
g1821
sg61
(dp1838
sg63
(lp1839
g55
(g56
g57
Ntp1840
Rp1841
(dp1842
g69
g1836
sg61
(dp1843
g71
I3
ssg63
(lp1844
g401
asbasbasbag55
(g73
g57
Ntp1845
Rp1846
(dp1847
g69
g1766
sg61
(dp1848
sg63
(lp1849
g55
(g79
g57
Ntp1850
Rp1851
(dp1852
g69
g1846
sg61
(dp1853
g84
g85
ssg63
(lp1854
g464
asbag55
(g79
g57
Ntp1855
Rp1856
(dp1857
g69
g1846
sg61
(dp1858
g92
g93
ssg63
(lp1859
g95
asbag55
(g79
g57
Ntp1860
Rp1861
(dp1862
g69
g1846
sg61
(dp1863
sg63
(lp1864
g55
(g56
g57
Ntp1865
Rp1866
(dp1867
g69
g1861
sg61
(dp1868
g71
I3
ssg63
(lp1869
g401
asbasbasbag55
(g73
g57
Ntp1870
Rp1871
(dp1872
g69
g1766
sg61
(dp1873
sg63
(lp1874
g55
(g79
g57
Ntp1875
Rp1876
(dp1877
g69
g1871
sg61
(dp1878
g84
g85
ssg63
(lp1879
g490
asbag55
(g79
g57
Ntp1880
Rp1881
(dp1882
g69
g1871
sg61
(dp1883
g92
g93
ssg63
(lp1884
g95
asbag55
(g79
g57
Ntp1885
Rp1886
(dp1887
g69
g1871
sg61
(dp1888
sg63
(lp1889
g55
(g56
g57
Ntp1890
Rp1891
(dp1892
g69
g1886
sg61
(dp1893
g71
I3
ssg63
(lp1894
g401
asbasbasbag55
(g73
g57
Ntp1895
Rp1896
(dp1897
g69
g1766
sg61
(dp1898
sg63
(lp1899
g55
(g79
g57
Ntp1900
Rp1901
(dp1902
g69
g1896
sg61
(dp1903
g84
g85
ssg63
(lp1904
g516
asbag55
(g79
g57
Ntp1905
Rp1906
(dp1907
g69
g1896
sg61
(dp1908
g92
g93
ssg63
(lp1909
g95
asbag55
(g79
g57
Ntp1910
Rp1911
(dp1912
g69
g1896
sg61
(dp1913
sg63
(lp1914
g55
(g56
g57
Ntp1915
Rp1916
(dp1917
g69
g1911
sg61
(dp1918
g71
I3
ssg63
(lp1919
g401
asbasbasbag55
(g73
g57
Ntp1920
Rp1921
(dp1922
g69
g1766
sg61
(dp1923
sg63
(lp1924
g55
(g79
g57
Ntp1925
Rp1926
(dp1927
g69
g1921
sg61
(dp1928
g84
g85
ssg63
(lp1929
g542
asbag55
(g79
g57
Ntp1930
Rp1931
(dp1932
g69
g1921
sg61
(dp1933
g92
g93
ssg63
(lp1934
g95
asbag55
(g79
g57
Ntp1935
Rp1936
(dp1937
g69
g1921
sg61
(dp1938
sg63
(lp1939
g55
(g56
g57
Ntp1940
Rp1941
(dp1942
g69
g1936
sg61
(dp1943
g71
I3
ssg63
(lp1944
g401
asbasbasbag55
(g73
g57
Ntp1945
Rp1946
(dp1947
g69
g1766
sg61
(dp1948
sg63
(lp1949
g55
(g79
g57
Ntp1950
Rp1951
(dp1952
g69
g1946
sg61
(dp1953
g84
g85
ssg63
(lp1954
g568
asbag55
(g79
g57
Ntp1955
Rp1956
(dp1957
g69
g1946
sg61
(dp1958
g92
g93
ssg63
(lp1959
g95
asbag55
(g79
g57
Ntp1960
Rp1961
(dp1962
g69
g1946
sg61
(dp1963
sg63
(lp1964
g55
(g56
g57
Ntp1965
Rp1966
(dp1967
g69
g1961
sg61
(dp1968
g71
I3
ssg63
(lp1969
g401
asbasbasbasbasbasbasbasbasbasbasbag55
(g73
g57
Ntp1970
Rp1971
(dp1972
g69
g128
sg61
(dp1973
sg63
(lp1974
g55
(g79
g57
Ntp1975
Rp1976
(dp1977
g69
g1971
sg61
(dp1978
g84
g85
ssg63
(lp1979
S'env'
p1980
asbag55
(g79
g57
Ntp1981
Rp1982
(dp1983
g69
g1971
sg61
(dp1984
g92
g93
ssg63
(lp1985
g95
asbag55
(g79
g57
Ntp1986
Rp1987
(dp1988
g69
g1971
sg61
(dp1989
sg63
(lp1990
g55
(g56
g57
Ntp1991
Rp1992
(dp1993
g69
g1987
sg61
(dp1994
g71
I5
ssg63
(lp1995
g55
(g65
g57
Ntp1996
Rp1997
(dp1998
g69
Nsg61
(dp1999
g71
I4
ssg63
(lp2000
g55
(g73
g57
Ntp2001
Rp2002
(dp2003
g69
g1997
sg61
(dp2004
sg63
(lp2005
g55
(g79
g57
Ntp2006
Rp2007
(dp2008
g69
g2002
sg61
(dp2009
g84
g85
ssg63
(lp2010
S'app_folders'
p2011
asbag55
(g79
g57
Ntp2012
Rp2013
(dp2014
g69
g2002
sg61
(dp2015
g92
g93
ssg63
(lp2016
g95
asbag55
(g79
g57
Ntp2017
Rp2018
(dp2019
g69
g2002
sg61
(dp2020
sg63
(lp2021
g55
(g56
g57
Ntp2022
Rp2023
(dp2024
g69
g2018
sg61
(dp2025
g71
I4
ssg63
(lp2026
S"set(['/home/marco/projects/milanel/web2py/applications/fragance/', '/home/marco/projects/milanel/web2py/applications/admin/'])"
p2027
asbasbasbag55
(g73
g57
Ntp2028
Rp2029
(dp2030
g69
g1997
sg61
(dp2031
sg63
(lp2032
g55
(g79
g57
Ntp2033
Rp2034
(dp2035
g69
g2029
sg61
(dp2036
g84
g85
ssg63
(lp2037
S'applications_parent'
p2038
asbag55
(g79
g57
Ntp2039
Rp2040
(dp2041
g69
g2029
sg61
(dp2042
g92
g93
ssg63
(lp2043
g95
asbag55
(g79
g57
Ntp2044
Rp2045
(dp2046
g69
g2029
sg61
(dp2047
sg63
(lp2048
g55
(g56
g57
Ntp2049
Rp2050
(dp2051
g69
g2045
sg61
(dp2052
g71
I4
ssg63
(lp2053
S'/home/marco/projects/milanel/web2py'
p2054
asbasbasbag55
(g73
g57
Ntp2055
Rp2056
(dp2057
g69
g1997
sg61
(dp2058
sg63
(lp2059
g55
(g79
g57
Ntp2060
Rp2061
(dp2062
g69
g2056
sg61
(dp2063
g84
g85
ssg63
(lp2064
S'cmd_args'
p2065
asbag55
(g79
g57
Ntp2066
Rp2067
(dp2068
g69
g2056
sg61
(dp2069
g92
g93
ssg63
(lp2070
g95
asbag55
(g79
g57
Ntp2071
Rp2072
(dp2073
g69
g2056
sg61
(dp2074
sg63
(lp2075
g55
(g56
g57
Ntp2076
Rp2077
(dp2078
g69
g2072
sg61
(dp2079
g71
I4
ssg63
(lp2080
g55
(g65
g57
Ntp2081
Rp2082
(dp2083
g69
Nsg61
(dp2084
g71
I3
ssg63
(lp2085
sbasbasbasbag55
(g73
g57
Ntp2086
Rp2087
(dp2088
g69
g1997
sg61
(dp2089
sg63
(lp2090
g55
(g79
g57
Ntp2091
Rp2092
(dp2093
g69
g2087
sg61
(dp2094
g84
g85
ssg63
(lp2095
S'cmd_options'
p2096
asbag55
(g79
g57
Ntp2097
Rp2098
(dp2099
g69
g2087
sg61
(dp2100
g92
g93
ssg63
(lp2101
g95
asbag55
(g79
g57
Ntp2102
Rp2103
(dp2104
g69
g2087
sg61
(dp2105
sg63
(lp2106
g55
(g56
g57
Ntp2107
Rp2108
(dp2109
g69
g2103
sg61
(dp2110
g71
I4
ssg63
(lp2111
S"<Values at 0x64d26c0: {'plain': False, 'winservice': '', 'pid_filename': 'httpserver.pid', 'nobanner': False, 'folder': '/home/marco/projects/milanel/web2py', 'import_models': False, 'test': None, 'socket_timeout': 5, 'timeout': 10, 'minthreads': None, 'extcron': False, 'nocron': False, 'interfaces': None, 'quiet': False, 'nogui': False, 'shutdown_timeout': 5, 'numthreads': None, 'bpython': False, 'server_name': 'malena', 'softcron': False, 'maxthreads': None, 'cronjob': False, 'ssl_certificate': '', 'request_queue_size': 5, 'port': 8000, 'password': 'asd', 'ssl_private_key': '', 'profiler_filename': None, 'taskbar': False, 'scheduler': None, 'config': '', 'ssl_ca_certificate': None, 'debuglevel': 30, 'args': [''], 'log_filename': 'httpserver.log', 'ip': '127.0.0.1', 'verbose': False, 'run': '', 'shell': None}>"
p2112
asbasbasbag55
(g73
g57
Ntp2113
Rp2114
(dp2115
g69
g1997
sg61
(dp2116
sg63
(lp2117
g55
(g79
g57
Ntp2118
Rp2119
(dp2120
g69
g2114
sg61
(dp2121
g84
g85
ssg63
(lp2122
S'db_sessions'
p2123
asbag55
(g79
g57
Ntp2124
Rp2125
(dp2126
g69
g2114
sg61
(dp2127
g92
g93
ssg63
(lp2128
g95
asbag55
(g79
g57
Ntp2129
Rp2130
(dp2131
g69
g2114
sg61
(dp2132
sg63
(lp2133
g55
(g56
g57
Ntp2134
Rp2135
(dp2136
g69
g2130
sg61
(dp2137
g71
I4
ssg63
(lp2138
S'set([])'
p2139
asbasbasbag55
(g73
g57
Ntp2140
Rp2141
(dp2142
g69
g1997
sg61
(dp2143
sg63
(lp2144
g55
(g79
g57
Ntp2145
Rp2146
(dp2147
g69
g2141
sg61
(dp2148
g84
g85
ssg63
(lp2149
S'debugging'
p2150
asbag55
(g79
g57
Ntp2151
Rp2152
(dp2153
g69
g2141
sg61
(dp2154
g92
g93
ssg63
(lp2155
g95
asbag55
(g79
g57
Ntp2156
Rp2157
(dp2158
g69
g2141
sg61
(dp2159
sg63
(lp2160
g55
(g56
g57
Ntp2161
Rp2162
(dp2163
g69
g2157
sg61
(dp2164
g71
I4
ssg63
(lp2165
g158
asbasbasbag55
(g73
g57
Ntp2166
Rp2167
(dp2168
g69
g1997
sg61
(dp2169
sg63
(lp2170
g55
(g79
g57
Ntp2171
Rp2172
(dp2173
g69
g2167
sg61
(dp2174
g84
g85
ssg63
(lp2175
S'gluon_parent'
p2176
asbag55
(g79
g57
Ntp2177
Rp2178
(dp2179
g69
g2167
sg61
(dp2180
g92
g93
ssg63
(lp2181
g95
asbag55
(g79
g57
Ntp2182
Rp2183
(dp2184
g69
g2167
sg61
(dp2185
sg63
(lp2186
g55
(g56
g57
Ntp2187
Rp2188
(dp2189
g69
g2183
sg61
(dp2190
g71
I4
ssg63
(lp2191
S'/home/marco/projects/milanel/web2py'
p2192
asbasbasbag55
(g73
g57
Ntp2193
Rp2194
(dp2195
g69
g1997
sg61
(dp2196
sg63
(lp2197
g55
(g79
g57
Ntp2198
Rp2199
(dp2200
g69
g2194
sg61
(dp2201
g84
g85
ssg63
(lp2202
S'http_accept'
p2203
asbag55
(g79
g57
Ntp2204
Rp2205
(dp2206
g69
g2194
sg61
(dp2207
g92
g93
ssg63
(lp2208
g95
asbag55
(g79
g57
Ntp2209
Rp2210
(dp2211
g69
g2194
sg61
(dp2212
sg63
(lp2213
g55
(g56
g57
Ntp2214
Rp2215
(dp2216
g69
g2210
sg61
(dp2217
g71
I4
ssg63
(lp2218
S'text/html,application/xhtml+xml,application/xml;q=0.9,*/*;q=0.8'
p2219
asbasbasbag55
(g73
g57
Ntp2220
Rp2221
(dp2222
g69
g1997
sg61
(dp2223
sg63
(lp2224
g55
(g79
g57
Ntp2225
Rp2226
(dp2227
g69
g2221
sg61
(dp2228
g84
g85
ssg63
(lp2229
S'http_accept_encoding'
p2230
asbag55
(g79
g57
Ntp2231
Rp2232
(dp2233
g69
g2221
sg61
(dp2234
g92
g93
ssg63
(lp2235
g95
asbag55
(g79
g57
Ntp2236
Rp2237
(dp2238
g69
g2221
sg61
(dp2239
sg63
(lp2240
g55
(g56
g57
Ntp2241
Rp2242
(dp2243
g69
g2237
sg61
(dp2244
g71
I4
ssg63
(lp2245
S'gzip, deflate'
p2246
asbasbasbag55
(g73
g57
Ntp2247
Rp2248
(dp2249
g69
g1997
sg61
(dp2250
sg63
(lp2251
g55
(g79
g57
Ntp2252
Rp2253
(dp2254
g69
g2248
sg61
(dp2255
g84
g85
ssg63
(lp2256
S'http_accept_language'
p2257
asbag55
(g79
g57
Ntp2258
Rp2259
(dp2260
g69
g2248
sg61
(dp2261
g92
g93
ssg63
(lp2262
g95
asbag55
(g79
g57
Ntp2263
Rp2264
(dp2265
g69
g2248
sg61
(dp2266
sg63
(lp2267
g55
(g56
g57
Ntp2268
Rp2269
(dp2270
g69
g2264
sg61
(dp2271
g71
I4
ssg63
(lp2272
S'es-ar,es;q=0.8,en-us;q=0.5,en;q=0.3'
p2273
asbasbasbag55
(g73
g57
Ntp2274
Rp2275
(dp2276
g69
g1997
sg61
(dp2277
sg63
(lp2278
g55
(g79
g57
Ntp2279
Rp2280
(dp2281
g69
g2275
sg61
(dp2282
g84
g85
ssg63
(lp2283
S'http_cache_control'
p2284
asbag55
(g79
g57
Ntp2285
Rp2286
(dp2287
g69
g2275
sg61
(dp2288
g92
g93
ssg63
(lp2289
g95
asbag55
(g79
g57
Ntp2290
Rp2291
(dp2292
g69
g2275
sg61
(dp2293
sg63
(lp2294
g55
(g56
g57
Ntp2295
Rp2296
(dp2297
g69
g2291
sg61
(dp2298
g71
I4
ssg63
(lp2299
S'max-age=0'
p2300
asbasbasbag55
(g73
g57
Ntp2301
Rp2302
(dp2303
g69
g1997
sg61
(dp2304
sg63
(lp2305
g55
(g79
g57
Ntp2306
Rp2307
(dp2308
g69
g2302
sg61
(dp2309
g84
g85
ssg63
(lp2310
S'http_connection'
p2311
asbag55
(g79
g57
Ntp2312
Rp2313
(dp2314
g69
g2302
sg61
(dp2315
g92
g93
ssg63
(lp2316
g95
asbag55
(g79
g57
Ntp2317
Rp2318
(dp2319
g69
g2302
sg61
(dp2320
sg63
(lp2321
g55
(g56
g57
Ntp2322
Rp2323
(dp2324
g69
g2318
sg61
(dp2325
g71
I4
ssg63
(lp2326
S'keep-alive'
p2327
asbasbasbag55
(g73
g57
Ntp2328
Rp2329
(dp2330
g69
g1997
sg61
(dp2331
sg63
(lp2332
g55
(g79
g57
Ntp2333
Rp2334
(dp2335
g69
g2329
sg61
(dp2336
g84
g85
ssg63
(lp2337
S'http_cookie'
p2338
asbag55
(g79
g57
Ntp2339
Rp2340
(dp2341
g69
g2329
sg61
(dp2342
g92
g93
ssg63
(lp2343
g95
asbag55
(g79
g57
Ntp2344
Rp2345
(dp2346
g69
g2329
sg61
(dp2347
sg63
(lp2348
g55
(g56
g57
Ntp2349
Rp2350
(dp2351
g69
g2345
sg61
(dp2352
g71
I4
ssg63
(lp2353
S'__utma=96992031.1881515701.1331265087.1331598672.1331664875.13; __utmz=96992031.1331265087.1.1.utmcsr=(direct)|utmccn=(direct)|utmcmd=(none); session_id_welcome=127.0.0.1-bc1d4fe1-a82f-4886-9661-c21469c577ae; session_id_mulone=127.0.0.1-d00e5c6f-5e23-4faf-8f82-7871a8294546; session_id_pyforum=127.0.0.1-0f1c3970-4880-47c3-9813-2662fd402b76; session_id_admin=127.0.0.1-c99434ee-f1ac-4032-a4a8-a48c94272c40; PHPSESSID=gq50mjm5dcdrobk0o08uhg8uj4; session_id_flisol2012=127.0.0.1-ed1db9bf-ad91-48d9-88d5-043d2b56127d; __utmc=96992031; session_id_fragance=127.0.0.1-4c183531-58d1-419b-bed0-c56856f380cb'
p2354
asbasbasbag55
(g73
g57
Ntp2355
Rp2356
(dp2357
g69
g1997
sg61
(dp2358
sg63
(lp2359
g55
(g79
g57
Ntp2360
Rp2361
(dp2362
g69
g2356
sg61
(dp2363
g84
g85
ssg63
(lp2364
S'http_host'
p2365
asbag55
(g79
g57
Ntp2366
Rp2367
(dp2368
g69
g2356
sg61
(dp2369
g92
g93
ssg63
(lp2370
g95
asbag55
(g79
g57
Ntp2371
Rp2372
(dp2373
g69
g2356
sg61
(dp2374
sg63
(lp2375
g55
(g56
g57
Ntp2376
Rp2377
(dp2378
g69
g2372
sg61
(dp2379
g71
I4
ssg63
(lp2380
S'127.0.0.1:8000'
p2381
asbasbasbag55
(g73
g57
Ntp2382
Rp2383
(dp2384
g69
g1997
sg61
(dp2385
sg63
(lp2386
g55
(g79
g57
Ntp2387
Rp2388
(dp2389
g69
g2383
sg61
(dp2390
g84
g85
ssg63
(lp2391
S'http_referer'
p2392
asbag55
(g79
g57
Ntp2393
Rp2394
(dp2395
g69
g2383
sg61
(dp2396
g92
g93
ssg63
(lp2397
g95
asbag55
(g79
g57
Ntp2398
Rp2399
(dp2400
g69
g2383
sg61
(dp2401
sg63
(lp2402
g55
(g56
g57
Ntp2403
Rp2404
(dp2405
g69
g2399
sg61
(dp2406
g71
I4
ssg63
(lp2407
S'http://127.0.0.1:8000/fragance/appadmin/select/db?start=100'
p2408
asbasbasbag55
(g73
g57
Ntp2409
Rp2410
(dp2411
g69
g1997
sg61
(dp2412
sg63
(lp2413
g55
(g79
g57
Ntp2414
Rp2415
(dp2416
g69
g2410
sg61
(dp2417
g84
g85
ssg63
(lp2418
S'http_user_agent'
p2419
asbag55
(g79
g57
Ntp2420
Rp2421
(dp2422
g69
g2410
sg61
(dp2423
g92
g93
ssg63
(lp2424
g95
asbag55
(g79
g57
Ntp2425
Rp2426
(dp2427
g69
g2410
sg61
(dp2428
sg63
(lp2429
g55
(g56
g57
Ntp2430
Rp2431
(dp2432
g69
g2426
sg61
(dp2433
g71
I4
ssg63
(lp2434
S'Mozilla/5.0 (X11; Linux x86_64; rv:11.0) Gecko/20100101 Firefox/11.0 Iceweasel/11.0'
p2435
asbasbasbag55
(g73
g57
Ntp2436
Rp2437
(dp2438
g69
g1997
sg61
(dp2439
sg63
(lp2440
g55
(g79
g57
Ntp2441
Rp2442
(dp2443
g69
g2437
sg61
(dp2444
g84
g85
ssg63
(lp2445
S'is_jython'
p2446
asbag55
(g79
g57
Ntp2447
Rp2448
(dp2449
g69
g2437
sg61
(dp2450
g92
g93
ssg63
(lp2451
g95
asbag55
(g79
g57
Ntp2452
Rp2453
(dp2454
g69
g2437
sg61
(dp2455
sg63
(lp2456
g55
(g56
g57
Ntp2457
Rp2458
(dp2459
g69
g2453
sg61
(dp2460
g71
I4
ssg63
(lp2461
g158
asbasbasbag55
(g73
g57
Ntp2462
Rp2463
(dp2464
g69
g1997
sg61
(dp2465
sg63
(lp2466
g55
(g79
g57
Ntp2467
Rp2468
(dp2469
g69
g2463
sg61
(dp2470
g84
g85
ssg63
(lp2471
S'is_pypy'
p2472
asbag55
(g79
g57
Ntp2473
Rp2474
(dp2475
g69
g2463
sg61
(dp2476
g92
g93
ssg63
(lp2477
g95
asbag55
(g79
g57
Ntp2478
Rp2479
(dp2480
g69
g2463
sg61
(dp2481
sg63
(lp2482
g55
(g56
g57
Ntp2483
Rp2484
(dp2485
g69
g2479
sg61
(dp2486
g71
I4
ssg63
(lp2487
S'True'
p2488
asbasbasbag55
(g73
g57
Ntp2489
Rp2490
(dp2491
g69
g1997
sg61
(dp2492
sg63
(lp2493
g55
(g79
g57
Ntp2494
Rp2495
(dp2496
g69
g2490
sg61
(dp2497
g84
g85
ssg63
(lp2498
S'path_info'
p2499
asbag55
(g79
g57
Ntp2500
Rp2501
(dp2502
g69
g2490
sg61
(dp2503
g92
g93
ssg63
(lp2504
g95
asbag55
(g79
g57
Ntp2505
Rp2506
(dp2507
g69
g2490
sg61
(dp2508
sg63
(lp2509
g55
(g56
g57
Ntp2510
Rp2511
(dp2512
g69
g2506
sg61
(dp2513
g71
I4
ssg63
(lp2514
S'/fragance/appadmin/select/db'
p2515
asbasbasbag55
(g73
g57
Ntp2516
Rp2517
(dp2518
g69
g1997
sg61
(dp2519
sg63
(lp2520
g55
(g79
g57
Ntp2521
Rp2522
(dp2523
g69
g2517
sg61
(dp2524
g84
g85
ssg63
(lp2525
S'query_string'
p2526
asbag55
(g79
g57
Ntp2527
Rp2528
(dp2529
g69
g2517
sg61
(dp2530
g92
g93
ssg63
(lp2531
g95
asbag55
(g79
g57
Ntp2532
Rp2533
(dp2534
g69
g2517
sg61
(dp2535
sg63
(lp2536
g55
(g56
g57
Ntp2537
Rp2538
(dp2539
g69
g2533
sg61
(dp2540
g71
I4
ssg63
(lp2541
S'start=200'
p2542
asbasbasbag55
(g73
g57
Ntp2543
Rp2544
(dp2545
g69
g1997
sg61
(dp2546
sg63
(lp2547
g55
(g79
g57
Ntp2548
Rp2549
(dp2550
g69
g2544
sg61
(dp2551
g84
g85
ssg63
(lp2552
S'remote_addr'
p2553
asbag55
(g79
g57
Ntp2554
Rp2555
(dp2556
g69
g2544
sg61
(dp2557
g92
g93
ssg63
(lp2558
g95
asbag55
(g79
g57
Ntp2559
Rp2560
(dp2561
g69
g2544
sg61
(dp2562
sg63
(lp2563
g55
(g56
g57
Ntp2564
Rp2565
(dp2566
g69
g2560
sg61
(dp2567
g71
I4
ssg63
(lp2568
g285
asbasbasbag55
(g73
g57
Ntp2569
Rp2570
(dp2571
g69
g1997
sg61
(dp2572
sg63
(lp2573
g55
(g79
g57
Ntp2574
Rp2575
(dp2576
g69
g2570
sg61
(dp2577
g84
g85
ssg63
(lp2578
S'remote_port'
p2579
asbag55
(g79
g57
Ntp2580
Rp2581
(dp2582
g69
g2570
sg61
(dp2583
g92
g93
ssg63
(lp2584
g95
asbag55
(g79
g57
Ntp2585
Rp2586
(dp2587
g69
g2570
sg61
(dp2588
sg63
(lp2589
g55
(g56
g57
Ntp2590
Rp2591
(dp2592
g69
g2586
sg61
(dp2593
g71
I4
ssg63
(lp2594
S'39196'
p2595
asbasbasbag55
(g73
g57
Ntp2596
Rp2597
(dp2598
g69
g1997
sg61
(dp2599
sg63
(lp2600
g55
(g79
g57
Ntp2601
Rp2602
(dp2603
g69
g2597
sg61
(dp2604
g84
g85
ssg63
(lp2605
S'request_method'
p2606
asbag55
(g79
g57
Ntp2607
Rp2608
(dp2609
g69
g2597
sg61
(dp2610
g92
g93
ssg63
(lp2611
g95
asbag55
(g79
g57
Ntp2612
Rp2613
(dp2614
g69
g2597
sg61
(dp2615
sg63
(lp2616
g55
(g56
g57
Ntp2617
Rp2618
(dp2619
g69
g2613
sg61
(dp2620
g71
I4
ssg63
(lp2621
S'GET'
p2622
asbasbasbag55
(g73
g57
Ntp2623
Rp2624
(dp2625
g69
g1997
sg61
(dp2626
sg63
(lp2627
g55
(g79
g57
Ntp2628
Rp2629
(dp2630
g69
g2624
sg61
(dp2631
g84
g85
ssg63
(lp2632
S'script_name'
p2633
asbag55
(g79
g57
Ntp2634
Rp2635
(dp2636
g69
g2624
sg61
(dp2637
g92
g93
ssg63
(lp2638
g95
asbag55
(g79
g57
Ntp2639
Rp2640
(dp2641
g69
g2624
sg61
(dp2642
sg63
(lp2643
g55
(g56
g57
Ntp2644
Rp2645
(dp2646
g69
g2640
sg61
(dp2647
g71
I4
ssg63
(lp2648
S''
p2649
asbasbasbag55
(g73
g57
Ntp2650
Rp2651
(dp2652
g69
g1997
sg61
(dp2653
sg63
(lp2654
g55
(g79
g57
Ntp2655
Rp2656
(dp2657
g69
g2651
sg61
(dp2658
g84
g85
ssg63
(lp2659
S'server_name'
p2660
asbag55
(g79
g57
Ntp2661
Rp2662
(dp2663
g69
g2651
sg61
(dp2664
g92
g93
ssg63
(lp2665
g95
asbag55
(g79
g57
Ntp2666
Rp2667
(dp2668
g69
g2651
sg61
(dp2669
sg63
(lp2670
g55
(g56
g57
Ntp2671
Rp2672
(dp2673
g69
g2667
sg61
(dp2674
g71
I4
ssg63
(lp2675
S'malena'
p2676
asbasbasbag55
(g73
g57
Ntp2677
Rp2678
(dp2679
g69
g1997
sg61
(dp2680
sg63
(lp2681
g55
(g79
g57
Ntp2682
Rp2683
(dp2684
g69
g2678
sg61
(dp2685
g84
g85
ssg63
(lp2686
S'server_port'
p2687
asbag55
(g79
g57
Ntp2688
Rp2689
(dp2690
g69
g2678
sg61
(dp2691
g92
g93
ssg63
(lp2692
g95
asbag55
(g79
g57
Ntp2693
Rp2694
(dp2695
g69
g2678
sg61
(dp2696
sg63
(lp2697
g55
(g56
g57
Ntp2698
Rp2699
(dp2700
g69
g2694
sg61
(dp2701
g71
I4
ssg63
(lp2702
S'8000'
p2703
asbasbasbag55
(g73
g57
Ntp2704
Rp2705
(dp2706
g69
g1997
sg61
(dp2707
sg63
(lp2708
g55
(g79
g57
Ntp2709
Rp2710
(dp2711
g69
g2705
sg61
(dp2712
g84
g85
ssg63
(lp2713
S'server_protocol'
p2714
asbag55
(g79
g57
Ntp2715
Rp2716
(dp2717
g69
g2705
sg61
(dp2718
g92
g93
ssg63
(lp2719
g95
asbag55
(g79
g57
Ntp2720
Rp2721
(dp2722
g69
g2705
sg61
(dp2723
sg63
(lp2724
g55
(g56
g57
Ntp2725
Rp2726
(dp2727
g69
g2721
sg61
(dp2728
g71
I4
ssg63
(lp2729
S'HTTP/1.1'
p2730
asbasbasbag55
(g73
g57
Ntp2731
Rp2732
(dp2733
g69
g1997
sg61
(dp2734
sg63
(lp2735
g55
(g79
g57
Ntp2736
Rp2737
(dp2738
g69
g2732
sg61
(dp2739
g84
g85
ssg63
(lp2740
S'server_software'
p2741
asbag55
(g79
g57
Ntp2742
Rp2743
(dp2744
g69
g2732
sg61
(dp2745
g92
g93
ssg63
(lp2746
g95
asbag55
(g79
g57
Ntp2747
Rp2748
(dp2749
g69
g2732
sg61
(dp2750
sg63
(lp2751
g55
(g56
g57
Ntp2752
Rp2753
(dp2754
g69
g2748
sg61
(dp2755
g71
I4
ssg63
(lp2756
S'Rocket 1.2.4'
p2757
asbasbasbag55
(g73
g57
Ntp2758
Rp2759
(dp2760
g69
g1997
sg61
(dp2761
sg63
(lp2762
g55
(g79
g57
Ntp2763
Rp2764
(dp2765
g69
g2759
sg61
(dp2766
g84
g85
ssg63
(lp2767
S'web2py_crontype'
p2768
asbag55
(g79
g57
Ntp2769
Rp2770
(dp2771
g69
g2759
sg61
(dp2772
g92
g93
ssg63
(lp2773
g95
asbag55
(g79
g57
Ntp2774
Rp2775
(dp2776
g69
g2759
sg61
(dp2777
sg63
(lp2778
g55
(g56
g57
Ntp2779
Rp2780
(dp2781
g69
g2775
sg61
(dp2782
g71
I4
ssg63
(lp2783
S'hard'
p2784
asbasbasbag55
(g73
g57
Ntp2785
Rp2786
(dp2787
g69
g1997
sg61
(dp2788
sg63
(lp2789
g55
(g79
g57
Ntp2790
Rp2791
(dp2792
g69
g2786
sg61
(dp2793
g84
g85
ssg63
(lp2794
S'web2py_path'
p2795
asbag55
(g79
g57
Ntp2796
Rp2797
(dp2798
g69
g2786
sg61
(dp2799
g92
g93
ssg63
(lp2800
g95
asbag55
(g79
g57
Ntp2801
Rp2802
(dp2803
g69
g2786
sg61
(dp2804
sg63
(lp2805
g55
(g56
g57
Ntp2806
Rp2807
(dp2808
g69
g2802
sg61
(dp2809
g71
I4
ssg63
(lp2810
g2054
asbasbasbag55
(g73
g57
Ntp2811
Rp2812
(dp2813
g69
g1997
sg61
(dp2814
sg63
(lp2815
g55
(g79
g57
Ntp2816
Rp2817
(dp2818
g69
g2812
sg61
(dp2819
g84
g85
ssg63
(lp2820
S'web2py_version'
p2821
asbag55
(g79
g57
Ntp2822
Rp2823
(dp2824
g69
g2812
sg61
(dp2825
g92
g93
ssg63
(lp2826
g95
asbag55
(g79
g57
Ntp2827
Rp2828
(dp2829
g69
g2812
sg61
(dp2830
sg63
(lp2831
g55
(g56
g57
Ntp2832
Rp2833
(dp2834
g69
g2828
sg61
(dp2835
g71
I4
ssg63
(lp2836
g55
(g65
g57
Ntp2837
Rp2838
(dp2839
g69
Nsg61
(dp2840
g71
I3
ssg63
(lp2841
g55
(g73
g57
Ntp2842
Rp2843
(dp2844
g69
g2838
sg61
(dp2845
sg63
(lp2846
g55
(g79
g57
Ntp2847
Rp2848
(dp2849
g69
g2843
sg61
(dp2850
sg63
(lp2851
g55
(g56
g57
Ntp2852
Rp2853
(dp2854
g69
g2848
sg61
(dp2855
g71
I3
ssg63
(lp2856
S'1'
p2857
asbasbasbag55
(g73
g57
Ntp2858
Rp2859
(dp2860
g69
g2838
sg61
(dp2861
sg63
(lp2862
g55
(g79
g57
Ntp2863
Rp2864
(dp2865
g69
g2859
sg61
(dp2866
sg63
(lp2867
g55
(g56
g57
Ntp2868
Rp2869
(dp2870
g69
g2864
sg61
(dp2871
g71
I3
ssg63
(lp2872
S'99'
p2873
asbasbasbag55
(g73
g57
Ntp2874
Rp2875
(dp2876
g69
g2838
sg61
(dp2877
sg63
(lp2878
g55
(g79
g57
Ntp2879
Rp2880
(dp2881
g69
g2875
sg61
(dp2882
sg63
(lp2883
g55
(g56
g57
Ntp2884
Rp2885
(dp2886
g69
g2880
sg61
(dp2887
g71
I3
ssg63
(lp2888
S'7'
p2889
asbasbasbag55
(g73
g57
Ntp2890
Rp2891
(dp2892
g69
g2838
sg61
(dp2893
sg63
(lp2894
g55
(g79
g57
Ntp2895
Rp2896
(dp2897
g69
g2891
sg61
(dp2898
sg63
(lp2899
g55
(g56
g57
Ntp2900
Rp2901
(dp2902
g69
g2896
sg61
(dp2903
g71
I3
ssg63
(lp2904
S'datetime.datetime(2012, 3, 4, 22, 12, 8)'
p2905
asbasbasbag55
(g73
g57
Ntp2906
Rp2907
(dp2908
g69
g2838
sg61
(dp2909
sg63
(lp2910
g55
(g79
g57
Ntp2911
Rp2912
(dp2913
g69
g2907
sg61
(dp2914
sg63
(lp2915
g55
(g56
g57
Ntp2916
Rp2917
(dp2918
g69
g2912
sg61
(dp2919
g71
I3
ssg63
(lp2920
S'stable'
p2921
asbasbasbasbasbasbasbag55
(g73
g57
Ntp2922
Rp2923
(dp2924
g69
g1997
sg61
(dp2925
sg63
(lp2926
g55
(g79
g57
Ntp2927
Rp2928
(dp2929
g69
g2923
sg61
(dp2930
g84
g85
ssg63
(lp2931
S'wsgi_errors'
p2932
asbag55
(g79
g57
Ntp2933
Rp2934
(dp2935
g69
g2923
sg61
(dp2936
g92
g93
ssg63
(lp2937
g95
asbag55
(g79
g57
Ntp2938
Rp2939
(dp2940
g69
g2923
sg61
(dp2941
sg63
(lp2942
g55
(g56
g57
Ntp2943
Rp2944
(dp2945
g69
g2939
sg61
(dp2946
g71
I4
ssg63
(lp2947
S"<open file '<fdopen>', mode 'w' at 0x0000000002ed4b40>"
p2948
asbasbasbag55
(g73
g57
Ntp2949
Rp2950
(dp2951
g69
g1997
sg61
(dp2952
sg63
(lp2953
g55
(g79
g57
Ntp2954
Rp2955
(dp2956
g69
g2950
sg61
(dp2957
g84
g85
ssg63
(lp2958
S'wsgi_file_wrapper'
p2959
asbag55
(g79
g57
Ntp2960
Rp2961
(dp2962
g69
g2950
sg61
(dp2963
g92
g93
ssg63
(lp2964
g95
asbag55
(g79
g57
Ntp2965
Rp2966
(dp2967
g69
g2950
sg61
(dp2968
sg63
(lp2969
g55
(g56
g57
Ntp2970
Rp2971
(dp2972
g69
g2966
sg61
(dp2973
g71
I4
ssg63
(lp2974
S'<class wsgiref.util.FileWrapper at 0x0000000006f105c0>'
p2975
asbasbasbag55
(g73
g57
Ntp2976
Rp2977
(dp2978
g69
g1997
sg61
(dp2979
sg63
(lp2980
g55
(g79
g57
Ntp2981
Rp2982
(dp2983
g69
g2977
sg61
(dp2984
g84
g85
ssg63
(lp2985
S'wsgi_input'
p2986
asbag55
(g79
g57
Ntp2987
Rp2988
(dp2989
g69
g2977
sg61
(dp2990
g92
g93
ssg63
(lp2991
g95
asbag55
(g79
g57
Ntp2992
Rp2993
(dp2994
g69
g2977
sg61
(dp2995
sg63
(lp2996
g55
(g56
g57
Ntp2997
Rp2998
(dp2999
g69
g2993
sg61
(dp3000
g71
I4
ssg63
(lp3001
S'<socket._fileobject object at 0x00000000088df508>'
p3002
asbasbasbag55
(g73
g57
Ntp3003
Rp3004
(dp3005
g69
g1997
sg61
(dp3006
sg63
(lp3007
g55
(g79
g57
Ntp3008
Rp3009
(dp3010
g69
g3004
sg61
(dp3011
g84
g85
ssg63
(lp3012
S'wsgi_multiprocess'
p3013
asbag55
(g79
g57
Ntp3014
Rp3015
(dp3016
g69
g3004
sg61
(dp3017
g92
g93
ssg63
(lp3018
g95
asbag55
(g79
g57
Ntp3019
Rp3020
(dp3021
g69
g3004
sg61
(dp3022
sg63
(lp3023
g55
(g56
g57
Ntp3024
Rp3025
(dp3026
g69
g3020
sg61
(dp3027
g71
I4
ssg63
(lp3028
g158
asbasbasbag55
(g73
g57
Ntp3029
Rp3030
(dp3031
g69
g1997
sg61
(dp3032
sg63
(lp3033
g55
(g79
g57
Ntp3034
Rp3035
(dp3036
g69
g3030
sg61
(dp3037
g84
g85
ssg63
(lp3038
S'wsgi_multithread'
p3039
asbag55
(g79
g57
Ntp3040
Rp3041
(dp3042
g69
g3030
sg61
(dp3043
g92
g93
ssg63
(lp3044
g95
asbag55
(g79
g57
Ntp3045
Rp3046
(dp3047
g69
g3030
sg61
(dp3048
sg63
(lp3049
g55
(g56
g57
Ntp3050
Rp3051
(dp3052
g69
g3046
sg61
(dp3053
g71
I4
ssg63
(lp3054
g2488
asbasbasbag55
(g73
g57
Ntp3055
Rp3056
(dp3057
g69
g1997
sg61
(dp3058
sg63
(lp3059
g55
(g79
g57
Ntp3060
Rp3061
(dp3062
g69
g3056
sg61
(dp3063
g84
g85
ssg63
(lp3064
S'wsgi_run_once'
p3065
asbag55
(g79
g57
Ntp3066
Rp3067
(dp3068
g69
g3056
sg61
(dp3069
g92
g93
ssg63
(lp3070
g95
asbag55
(g79
g57
Ntp3071
Rp3072
(dp3073
g69
g3056
sg61
(dp3074
sg63
(lp3075
g55
(g56
g57
Ntp3076
Rp3077
(dp3078
g69
g3072
sg61
(dp3079
g71
I4
ssg63
(lp3080
g158
asbasbasbag55
(g73
g57
Ntp3081
Rp3082
(dp3083
g69
g1997
sg61
(dp3084
sg63
(lp3085
g55
(g79
g57
Ntp3086
Rp3087
(dp3088
g69
g3082
sg61
(dp3089
g84
g85
ssg63
(lp3090
S'wsgi_url_scheme'
p3091
asbag55
(g79
g57
Ntp3092
Rp3093
(dp3094
g69
g3082
sg61
(dp3095
g92
g93
ssg63
(lp3096
g95
asbag55
(g79
g57
Ntp3097
Rp3098
(dp3099
g69
g3082
sg61
(dp3100
sg63
(lp3101
g55
(g56
g57
Ntp3102
Rp3103
(dp3104
g69
g3098
sg61
(dp3105
g71
I4
ssg63
(lp3106
S'http'
p3107
asbasbasbag55
(g73
g57
Ntp3108
Rp3109
(dp3110
g69
g1997
sg61
(dp3111
sg63
(lp3112
g55
(g79
g57
Ntp3113
Rp3114
(dp3115
g69
g3109
sg61
(dp3116
g84
g85
ssg63
(lp3117
S'wsgi_version'
p3118
asbag55
(g79
g57
Ntp3119
Rp3120
(dp3121
g69
g3109
sg61
(dp3122
g92
g93
ssg63
(lp3123
g95
asbag55
(g79
g57
Ntp3124
Rp3125
(dp3126
g69
g3109
sg61
(dp3127
sg63
(lp3128
g55
(g56
g57
Ntp3129
Rp3130
(dp3131
g69
g3125
sg61
(dp3132
g71
I4
ssg63
(lp3133
g55
(g65
g57
Ntp3134
Rp3135
(dp3136
g69
Nsg61
(dp3137
g71
I3
ssg63
(lp3138
g55
(g73
g57
Ntp3139
Rp3140
(dp3141
g69
g3135
sg61
(dp3142
sg63
(lp3143
g55
(g79
g57
Ntp3144
Rp3145
(dp3146
g69
g3140
sg61
(dp3147
sg63
(lp3148
g55
(g56
g57
Ntp3149
Rp3150
(dp3151
g69
g3145
sg61
(dp3152
g71
I3
ssg63
(lp3153
S'1'
p3154
asbasbasbag55
(g73
g57
Ntp3155
Rp3156
(dp3157
g69
g3135
sg61
(dp3158
sg63
(lp3159
g55
(g79
g57
Ntp3160
Rp3161
(dp3162
g69
g3156
sg61
(dp3163
sg63
(lp3164
g55
(g56
g57
Ntp3165
Rp3166
(dp3167
g69
g3161
sg61
(dp3168
g71
I3
ssg63
(lp3169
S'0'
p3170
asbasbasbasbasbasbasbasbasbasbasbag55
(g73
g57
Ntp3171
Rp3172
(dp3173
g69
g128
sg61
(dp3174
sg63
(lp3175
g55
(g79
g57
Ntp3176
Rp3177
(dp3178
g69
g3172
sg61
(dp3179
g84
g85
ssg63
(lp3180
S'extension'
p3181
asbag55
(g79
g57
Ntp3182
Rp3183
(dp3184
g69
g3172
sg61
(dp3185
g92
g93
ssg63
(lp3186
g95
asbag55
(g79
g57
Ntp3187
Rp3188
(dp3189
g69
g3172
sg61
(dp3190
sg63
(lp3191
g55
(g56
g57
Ntp3192
Rp3193
(dp3194
g69
g3188
sg61
(dp3195
g71
I5
ssg63
(lp3196
S'html'
p3197
asbasbasbag55
(g73
g57
Ntp3198
Rp3199
(dp3200
g69
g128
sg61
(dp3201
sg63
(lp3202
g55
(g79
g57
Ntp3203
Rp3204
(dp3205
g69
g3199
sg61
(dp3206
g84
g85
ssg63
(lp3207
S'folder'
p3208
asbag55
(g79
g57
Ntp3209
Rp3210
(dp3211
g69
g3199
sg61
(dp3212
g92
g93
ssg63
(lp3213
g95
asbag55
(g79
g57
Ntp3214
Rp3215
(dp3216
g69
g3199
sg61
(dp3217
sg63
(lp3218
g55
(g56
g57
Ntp3219
Rp3220
(dp3221
g69
g3215
sg61
(dp3222
g71
I5
ssg63
(lp3223
S'/home/marco/projects/milanel/web2py/applications/fragance/'
p3224
asbasbasbag55
(g73
g57
Ntp3225
Rp3226
(dp3227
g69
g128
sg61
(dp3228
sg63
(lp3229
g55
(g79
g57
Ntp3230
Rp3231
(dp3232
g69
g3226
sg61
(dp3233
g84
g85
ssg63
(lp3234
S'function'
p3235
asbag55
(g79
g57
Ntp3236
Rp3237
(dp3238
g69
g3226
sg61
(dp3239
g92
g93
ssg63
(lp3240
g95
asbag55
(g79
g57
Ntp3241
Rp3242
(dp3243
g69
g3226
sg61
(dp3244
sg63
(lp3245
g55
(g56
g57
Ntp3246
Rp3247
(dp3248
g69
g3242
sg61
(dp3249
g71
I5
ssg63
(lp3250
S'select'
p3251
asbasbasbag55
(g73
g57
Ntp3252
Rp3253
(dp3254
g69
g128
sg61
(dp3255
sg63
(lp3256
g55
(g79
g57
Ntp3257
Rp3258
(dp3259
g69
g3253
sg61
(dp3260
g84
g85
ssg63
(lp3261
S'get_vars'
p3262
asbag55
(g79
g57
Ntp3263
Rp3264
(dp3265
g69
g3253
sg61
(dp3266
g92
g93
ssg63
(lp3267
g95
asbag55
(g79
g57
Ntp3268
Rp3269
(dp3270
g69
g3253
sg61
(dp3271
sg63
(lp3272
g55
(g56
g57
Ntp3273
Rp3274
(dp3275
g69
g3269
sg61
(dp3276
g71
I5
ssg63
(lp3277
g55
(g65
g57
Ntp3278
Rp3279
(dp3280
g69
Nsg61
(dp3281
g71
I4
ssg63
(lp3282
g55
(g73
g57
Ntp3283
Rp3284
(dp3285
g69
g3279
sg61
(dp3286
sg63
(lp3287
g55
(g79
g57
Ntp3288
Rp3289
(dp3290
g69
g3284
sg61
(dp3291
g84
g85
ssg63
(lp3292
S'start'
p3293
asbag55
(g79
g57
Ntp3294
Rp3295
(dp3296
g69
g3284
sg61
(dp3297
g92
g93
ssg63
(lp3298
g95
asbag55
(g79
g57
Ntp3299
Rp3300
(dp3301
g69
g3284
sg61
(dp3302
sg63
(lp3303
g55
(g56
g57
Ntp3304
Rp3305
(dp3306
g69
g3300
sg61
(dp3307
g71
I4
ssg63
(lp3308
S'200'
p3309
asbasbasbasbasbasbasbag55
(g73
g57
Ntp3310
Rp3311
(dp3312
g69
g128
sg61
(dp3313
sg63
(lp3314
g55
(g79
g57
Ntp3315
Rp3316
(dp3317
g69
g3311
sg61
(dp3318
g84
g85
ssg63
(lp3319
S'global_settings'
p3320
asbag55
(g79
g57
Ntp3321
Rp3322
(dp3323
g69
g3311
sg61
(dp3324
g92
g93
ssg63
(lp3325
g95
asbag55
(g79
g57
Ntp3326
Rp3327
(dp3328
g69
g3311
sg61
(dp3329
sg63
(lp3330
g55
(g56
g57
Ntp3331
Rp3332
(dp3333
g69
g3327
sg61
(dp3334
g71
I5
ssg63
(lp3335
g55
(g65
g57
Ntp3336
Rp3337
(dp3338
g69
Nsg61
(dp3339
g71
I4
ssg63
(lp3340
g55
(g73
g57
Ntp3341
Rp3342
(dp3343
g69
g3337
sg61
(dp3344
sg63
(lp3345
g55
(g79
g57
Ntp3346
Rp3347
(dp3348
g69
g3342
sg61
(dp3349
g84
g85
ssg63
(lp3350
g2011
asbag55
(g79
g57
Ntp3351
Rp3352
(dp3353
g69
g3342
sg61
(dp3354
g92
g93
ssg63
(lp3355
g95
asbag55
(g79
g57
Ntp3356
Rp3357
(dp3358
g69
g3342
sg61
(dp3359
sg63
(lp3360
g55
(g56
g57
Ntp3361
Rp3362
(dp3363
g69
g3357
sg61
(dp3364
g71
I4
ssg63
(lp3365
S"set(['/home/marco/projects/milanel/web2py/applications/fragance/', '/home/marco/projects/milanel/web2py/applications/admin/'])"
p3366
asbasbasbag55
(g73
g57
Ntp3367
Rp3368
(dp3369
g69
g3337
sg61
(dp3370
sg63
(lp3371
g55
(g79
g57
Ntp3372
Rp3373
(dp3374
g69
g3368
sg61
(dp3375
g84
g85
ssg63
(lp3376
g2038
asbag55
(g79
g57
Ntp3377
Rp3378
(dp3379
g69
g3368
sg61
(dp3380
g92
g93
ssg63
(lp3381
g95
asbag55
(g79
g57
Ntp3382
Rp3383
(dp3384
g69
g3368
sg61
(dp3385
sg63
(lp3386
g55
(g56
g57
Ntp3387
Rp3388
(dp3389
g69
g3383
sg61
(dp3390
g71
I4
ssg63
(lp3391
g2054
asbasbasbag55
(g73
g57
Ntp3392
Rp3393
(dp3394
g69
g3337
sg61
(dp3395
sg63
(lp3396
g55
(g79
g57
Ntp3397
Rp3398
(dp3399
g69
g3393
sg61
(dp3400
g84
g85
ssg63
(lp3401
g2065
asbag55
(g79
g57
Ntp3402
Rp3403
(dp3404
g69
g3393
sg61
(dp3405
g92
g93
ssg63
(lp3406
g95
asbag55
(g79
g57
Ntp3407
Rp3408
(dp3409
g69
g3393
sg61
(dp3410
sg63
(lp3411
g55
(g56
g57
Ntp3412
Rp3413
(dp3414
g69
g3408
sg61
(dp3415
g71
I4
ssg63
(lp3416
g55
(g65
g57
Ntp3417
Rp3418
(dp3419
g69
Nsg61
(dp3420
g71
I3
ssg63
(lp3421
sbasbasbasbag55
(g73
g57
Ntp3422
Rp3423
(dp3424
g69
g3337
sg61
(dp3425
sg63
(lp3426
g55
(g79
g57
Ntp3427
Rp3428
(dp3429
g69
g3423
sg61
(dp3430
g84
g85
ssg63
(lp3431
g2096
asbag55
(g79
g57
Ntp3432
Rp3433
(dp3434
g69
g3423
sg61
(dp3435
g92
g93
ssg63
(lp3436
g95
asbag55
(g79
g57
Ntp3437
Rp3438
(dp3439
g69
g3423
sg61
(dp3440
sg63
(lp3441
g55
(g56
g57
Ntp3442
Rp3443
(dp3444
g69
g3438
sg61
(dp3445
g71
I4
ssg63
(lp3446
S"<Values at 0x64d26c0: {'plain': False, 'winservice': '', 'pid_filename': 'httpserver.pid', 'nobanner': False, 'folder': '/home/marco/projects/milanel/web2py', 'import_models': False, 'test': None, 'socket_timeout': 5, 'timeout': 10, 'minthreads': None, 'extcron': False, 'nocron': False, 'interfaces': None, 'quiet': False, 'nogui': False, 'shutdown_timeout': 5, 'numthreads': None, 'bpython': False, 'server_name': 'malena', 'softcron': False, 'maxthreads': None, 'cronjob': False, 'ssl_certificate': '', 'request_queue_size': 5, 'port': 8000, 'password': 'asd', 'ssl_private_key': '', 'profiler_filename': None, 'taskbar': False, 'scheduler': None, 'config': '', 'ssl_ca_certificate': None, 'debuglevel': 30, 'args': [''], 'log_filename': 'httpserver.log', 'ip': '127.0.0.1', 'verbose': False, 'run': '', 'shell': None}>"
p3447
asbasbasbag55
(g73
g57
Ntp3448
Rp3449
(dp3450
g69
g3337
sg61
(dp3451
sg63
(lp3452
g55
(g79
g57
Ntp3453
Rp3454
(dp3455
g69
g3449
sg61
(dp3456
g84
g85
ssg63
(lp3457
g2123
asbag55
(g79
g57
Ntp3458
Rp3459
(dp3460
g69
g3449
sg61
(dp3461
g92
g93
ssg63
(lp3462
g95
asbag55
(g79
g57
Ntp3463
Rp3464
(dp3465
g69
g3449
sg61
(dp3466
sg63
(lp3467
g55
(g56
g57
Ntp3468
Rp3469
(dp3470
g69
g3464
sg61
(dp3471
g71
I4
ssg63
(lp3472
S'set([])'
p3473
asbasbasbag55
(g73
g57
Ntp3474
Rp3475
(dp3476
g69
g3337
sg61
(dp3477
sg63
(lp3478
g55
(g79
g57
Ntp3479
Rp3480
(dp3481
g69
g3475
sg61
(dp3482
g84
g85
ssg63
(lp3483
g2150
asbag55
(g79
g57
Ntp3484
Rp3485
(dp3486
g69
g3475
sg61
(dp3487
g92
g93
ssg63
(lp3488
g95
asbag55
(g79
g57
Ntp3489
Rp3490
(dp3491
g69
g3475
sg61
(dp3492
sg63
(lp3493
g55
(g56
g57
Ntp3494
Rp3495
(dp3496
g69
g3490
sg61
(dp3497
g71
I4
ssg63
(lp3498
g158
asbasbasbag55
(g73
g57
Ntp3499
Rp3500
(dp3501
g69
g3337
sg61
(dp3502
sg63
(lp3503
g55
(g79
g57
Ntp3504
Rp3505
(dp3506
g69
g3500
sg61
(dp3507
g84
g85
ssg63
(lp3508
g2176
asbag55
(g79
g57
Ntp3509
Rp3510
(dp3511
g69
g3500
sg61
(dp3512
g92
g93
ssg63
(lp3513
g95
asbag55
(g79
g57
Ntp3514
Rp3515
(dp3516
g69
g3500
sg61
(dp3517
sg63
(lp3518
g55
(g56
g57
Ntp3519
Rp3520
(dp3521
g69
g3515
sg61
(dp3522
g71
I4
ssg63
(lp3523
g2192
asbasbasbag55
(g73
g57
Ntp3524
Rp3525
(dp3526
g69
g3337
sg61
(dp3527
sg63
(lp3528
g55
(g79
g57
Ntp3529
Rp3530
(dp3531
g69
g3525
sg61
(dp3532
g84
g85
ssg63
(lp3533
g2446
asbag55
(g79
g57
Ntp3534
Rp3535
(dp3536
g69
g3525
sg61
(dp3537
g92
g93
ssg63
(lp3538
g95
asbag55
(g79
g57
Ntp3539
Rp3540
(dp3541
g69
g3525
sg61
(dp3542
sg63
(lp3543
g55
(g56
g57
Ntp3544
Rp3545
(dp3546
g69
g3540
sg61
(dp3547
g71
I4
ssg63
(lp3548
g158
asbasbasbag55
(g73
g57
Ntp3549
Rp3550
(dp3551
g69
g3337
sg61
(dp3552
sg63
(lp3553
g55
(g79
g57
Ntp3554
Rp3555
(dp3556
g69
g3550
sg61
(dp3557
g84
g85
ssg63
(lp3558
g2472
asbag55
(g79
g57
Ntp3559
Rp3560
(dp3561
g69
g3550
sg61
(dp3562
g92
g93
ssg63
(lp3563
g95
asbag55
(g79
g57
Ntp3564
Rp3565
(dp3566
g69
g3550
sg61
(dp3567
sg63
(lp3568
g55
(g56
g57
Ntp3569
Rp3570
(dp3571
g69
g3565
sg61
(dp3572
g71
I4
ssg63
(lp3573
g2488
asbasbasbag55
(g73
g57
Ntp3574
Rp3575
(dp3576
g69
g3337
sg61
(dp3577
sg63
(lp3578
g55
(g79
g57
Ntp3579
Rp3580
(dp3581
g69
g3575
sg61
(dp3582
g84
g85
ssg63
(lp3583
g2768
asbag55
(g79
g57
Ntp3584
Rp3585
(dp3586
g69
g3575
sg61
(dp3587
g92
g93
ssg63
(lp3588
g95
asbag55
(g79
g57
Ntp3589
Rp3590
(dp3591
g69
g3575
sg61
(dp3592
sg63
(lp3593
g55
(g56
g57
Ntp3594
Rp3595
(dp3596
g69
g3590
sg61
(dp3597
g71
I4
ssg63
(lp3598
g2784
asbasbasbag55
(g73
g57
Ntp3599
Rp3600
(dp3601
g69
g3337
sg61
(dp3602
sg63
(lp3603
g55
(g79
g57
Ntp3604
Rp3605
(dp3606
g69
g3600
sg61
(dp3607
g84
g85
ssg63
(lp3608
g2821
asbag55
(g79
g57
Ntp3609
Rp3610
(dp3611
g69
g3600
sg61
(dp3612
g92
g93
ssg63
(lp3613
g95
asbag55
(g79
g57
Ntp3614
Rp3615
(dp3616
g69
g3600
sg61
(dp3617
sg63
(lp3618
g55
(g56
g57
Ntp3619
Rp3620
(dp3621
g69
g3615
sg61
(dp3622
g71
I4
ssg63
(lp3623
g55
(g65
g57
Ntp3624
Rp3625
(dp3626
g69
Nsg61
(dp3627
g71
I3
ssg63
(lp3628
g55
(g73
g57
Ntp3629
Rp3630
(dp3631
g69
g3625
sg61
(dp3632
sg63
(lp3633
g55
(g79
g57
Ntp3634
Rp3635
(dp3636
g69
g3630
sg61
(dp3637
sg63
(lp3638
g55
(g56
g57
Ntp3639
Rp3640
(dp3641
g69
g3635
sg61
(dp3642
g71
I3
ssg63
(lp3643
S'1'
p3644
asbasbasbag55
(g73
g57
Ntp3645
Rp3646
(dp3647
g69
g3625
sg61
(dp3648
sg63
(lp3649
g55
(g79
g57
Ntp3650
Rp3651
(dp3652
g69
g3646
sg61
(dp3653
sg63
(lp3654
g55
(g56
g57
Ntp3655
Rp3656
(dp3657
g69
g3651
sg61
(dp3658
g71
I3
ssg63
(lp3659
S'99'
p3660
asbasbasbag55
(g73
g57
Ntp3661
Rp3662
(dp3663
g69
g3625
sg61
(dp3664
sg63
(lp3665
g55
(g79
g57
Ntp3666
Rp3667
(dp3668
g69
g3662
sg61
(dp3669
sg63
(lp3670
g55
(g56
g57
Ntp3671
Rp3672
(dp3673
g69
g3667
sg61
(dp3674
g71
I3
ssg63
(lp3675
S'7'
p3676
asbasbasbag55
(g73
g57
Ntp3677
Rp3678
(dp3679
g69
g3625
sg61
(dp3680
sg63
(lp3681
g55
(g79
g57
Ntp3682
Rp3683
(dp3684
g69
g3678
sg61
(dp3685
sg63
(lp3686
g55
(g56
g57
Ntp3687
Rp3688
(dp3689
g69
g3683
sg61
(dp3690
g71
I3
ssg63
(lp3691
S'datetime.datetime(2012, 3, 4, 22, 12, 8)'
p3692
asbasbasbag55
(g73
g57
Ntp3693
Rp3694
(dp3695
g69
g3625
sg61
(dp3696
sg63
(lp3697
g55
(g79
g57
Ntp3698
Rp3699
(dp3700
g69
g3694
sg61
(dp3701
sg63
(lp3702
g55
(g56
g57
Ntp3703
Rp3704
(dp3705
g69
g3699
sg61
(dp3706
g71
I3
ssg63
(lp3707
g2921
asbasbasbasbasbasbasbasbasbasbasbag55
(g73
g57
Ntp3708
Rp3709
(dp3710
g69
g128
sg61
(dp3711
sg63
(lp3712
g55
(g79
g57
Ntp3713
Rp3714
(dp3715
g69
g3709
sg61
(dp3716
g84
g85
ssg63
(lp3717
S'is_https'
p3718
asbag55
(g79
g57
Ntp3719
Rp3720
(dp3721
g69
g3709
sg61
(dp3722
g92
g93
ssg63
(lp3723
g95
asbag55
(g79
g57
Ntp3724
Rp3725
(dp3726
g69
g3709
sg61
(dp3727
sg63
(lp3728
g55
(g56
g57
Ntp3729
Rp3730
(dp3731
g69
g3725
sg61
(dp3732
g71
I5
ssg63
(lp3733
g158
asbasbasbag55
(g73
g57
Ntp3734
Rp3735
(dp3736
g69
g128
sg61
(dp3737
sg63
(lp3738
g55
(g79
g57
Ntp3739
Rp3740
(dp3741
g69
g3735
sg61
(dp3742
g84
g85
ssg63
(lp3743
S'is_local'
p3744
asbag55
(g79
g57
Ntp3745
Rp3746
(dp3747
g69
g3735
sg61
(dp3748
g92
g93
ssg63
(lp3749
g95
asbag55
(g79
g57
Ntp3750
Rp3751
(dp3752
g69
g3735
sg61
(dp3753
sg63
(lp3754
g55
(g56
g57
Ntp3755
Rp3756
(dp3757
g69
g3751
sg61
(dp3758
g71
I5
ssg63
(lp3759
g2488
asbasbasbag55
(g73
g57
Ntp3760
Rp3761
(dp3762
g69
g128
sg61
(dp3763
sg63
(lp3764
g55
(g79
g57
Ntp3765
Rp3766
(dp3767
g69
g3761
sg61
(dp3768
g84
g85
ssg63
(lp3769
S'is_restful'
p3770
asbag55
(g79
g57
Ntp3771
Rp3772
(dp3773
g69
g3761
sg61
(dp3774
g92
g93
ssg63
(lp3775
g95
asbag55
(g79
g57
Ntp3776
Rp3777
(dp3778
g69
g3761
sg61
(dp3779
sg63
(lp3780
g55
(g56
g57
Ntp3781
Rp3782
(dp3783
g69
g3777
sg61
(dp3784
g71
I5
ssg63
(lp3785
g158
asbasbasbag55
(g73
g57
Ntp3786
Rp3787
(dp3788
g69
g128
sg61
(dp3789
sg63
(lp3790
g55
(g79
g57
Ntp3791
Rp3792
(dp3793
g69
g3787
sg61
(dp3794
g84
g85
ssg63
(lp3795
S'now'
p3796
asbag55
(g79
g57
Ntp3797
Rp3798
(dp3799
g69
g3787
sg61
(dp3800
g92
g93
ssg63
(lp3801
g95
asbag55
(g79
g57
Ntp3802
Rp3803
(dp3804
g69
g3787
sg61
(dp3805
sg63
(lp3806
g55
(g56
g57
Ntp3807
Rp3808
(dp3809
g69
g3803
sg61
(dp3810
g71
I5
ssg63
(lp3811
S'datetime.datetime(2012, 3, 14, 12, 54, 58, 495062)'
p3812
asbasbasbag55
(g73
g57
Ntp3813
Rp3814
(dp3815
g69
g128
sg61
(dp3816
sg63
(lp3817
g55
(g79
g57
Ntp3818
Rp3819
(dp3820
g69
g3814
sg61
(dp3821
g84
g85
ssg63
(lp3822
S'post_vars'
p3823
asbag55
(g79
g57
Ntp3824
Rp3825
(dp3826
g69
g3814
sg61
(dp3827
g92
g93
ssg63
(lp3828
g95
asbag55
(g79
g57
Ntp3829
Rp3830
(dp3831
g69
g3814
sg61
(dp3832
sg63
(lp3833
g55
(g56
g57
Ntp3834
Rp3835
(dp3836
g69
g3830
sg61
(dp3837
g71
I5
ssg63
(lp3838
g55
(g65
g57
Ntp3839
Rp3840
(dp3841
g69
Nsg61
(dp3842
g71
I4
ssg63
(lp3843
sbasbasbasbag55
(g73
g57
Ntp3844
Rp3845
(dp3846
g69
g128
sg61
(dp3847
sg63
(lp3848
g55
(g79
g57
Ntp3849
Rp3850
(dp3851
g69
g3845
sg61
(dp3852
g84
g85
ssg63
(lp3853
S'raw_args'
p3854
asbag55
(g79
g57
Ntp3855
Rp3856
(dp3857
g69
g3845
sg61
(dp3858
g92
g93
ssg63
(lp3859
g95
asbag55
(g79
g57
Ntp3860
Rp3861
(dp3862
g69
g3845
sg61
(dp3863
sg63
(lp3864
g55
(g56
g57
Ntp3865
Rp3866
(dp3867
g69
g3861
sg61
(dp3868
g71
I5
ssg63
(lp3869
S'db'
p3870
asbasbasbag55
(g73
g57
Ntp3871
Rp3872
(dp3873
g69
g128
sg61
(dp3874
sg63
(lp3875
g55
(g79
g57
Ntp3876
Rp3877
(dp3878
g69
g3872
sg61
(dp3879
g84
g85
ssg63
(lp3880
S'url'
p3881
asbag55
(g79
g57
Ntp3882
Rp3883
(dp3884
g69
g3872
sg61
(dp3885
g92
g93
ssg63
(lp3886
g95
asbag55
(g79
g57
Ntp3887
Rp3888
(dp3889
g69
g3872
sg61
(dp3890
sg63
(lp3891
g55
(g56
g57
Ntp3892
Rp3893
(dp3894
g69
g3888
sg61
(dp3895
g71
I5
ssg63
(lp3896
S'/fragance/appadmin/select/db'
p3897
asbasbasbag55
(g73
g57
Ntp3898
Rp3899
(dp3900
g69
g128
sg61
(dp3901
sg63
(lp3902
g55
(g79
g57
Ntp3903
Rp3904
(dp3905
g69
g3899
sg61
(dp3906
g84
g85
ssg63
(lp3907
S'utcnow'
p3908
asbag55
(g79
g57
Ntp3909
Rp3910
(dp3911
g69
g3899
sg61
(dp3912
g92
g93
ssg63
(lp3913
g95
asbag55
(g79
g57
Ntp3914
Rp3915
(dp3916
g69
g3899
sg61
(dp3917
sg63
(lp3918
g55
(g56
g57
Ntp3919
Rp3920
(dp3921
g69
g3915
sg61
(dp3922
g71
I5
ssg63
(lp3923
S'datetime.datetime(2012, 3, 14, 15, 54, 58, 495150.0)'
p3924
asbasbasbag55
(g73
g57
Ntp3925
Rp3926
(dp3927
g69
g128
sg61
(dp3928
sg63
(lp3929
g55
(g79
g57
Ntp3930
Rp3931
(dp3932
g69
g3926
sg61
(dp3933
g84
g85
ssg63
(lp3934
S'uuid'
p3935
asbag55
(g79
g57
Ntp3936
Rp3937
(dp3938
g69
g3926
sg61
(dp3939
g92
g93
ssg63
(lp3940
g95
asbag55
(g79
g57
Ntp3941
Rp3942
(dp3943
g69
g3926
sg61
(dp3944
sg63
(lp3945
g55
(g56
g57
Ntp3946
Rp3947
(dp3948
g69
g3942
sg61
(dp3949
g71
I5
ssg63
(lp3950
S'fragance/127.0.0.1.2012-03-14.12-54-58.5e52ab4d-1f68-4ded-8af7-9fad6a3cecb3'
p3951
asbasbasbag55
(g73
g57
Ntp3952
Rp3953
(dp3954
g69
g128
sg61
(dp3955
sg63
(lp3956
g55
(g79
g57
Ntp3957
Rp3958
(dp3959
g69
g3953
sg61
(dp3960
g84
g85
ssg63
(lp3961
S'vars'
p3962
asbag55
(g79
g57
Ntp3963
Rp3964
(dp3965
g69
g3953
sg61
(dp3966
g92
g93
ssg63
(lp3967
g95
asbag55
(g79
g57
Ntp3968
Rp3969
(dp3970
g69
g3953
sg61
(dp3971
sg63
(lp3972
g55
(g56
g57
Ntp3973
Rp3974
(dp3975
g69
g3969
sg61
(dp3976
g71
I5
ssg63
(lp3977
g55
(g65
g57
Ntp3978
Rp3979
(dp3980
g69
Nsg61
(dp3981
g71
I4
ssg63
(lp3982
g55
(g73
g57
Ntp3983
Rp3984
(dp3985
g69
g3979
sg61
(dp3986
sg63
(lp3987
g55
(g79
g57
Ntp3988
Rp3989
(dp3990
g69
g3984
sg61
(dp3991
g84
g85
ssg63
(lp3992
S'query'
p3993
asbag55
(g79
g57
Ntp3994
Rp3995
(dp3996
g69
g3984
sg61
(dp3997
g92
g93
ssg63
(lp3998
g95
asbag55
(g79
g57
Ntp3999
Rp4000
(dp4001
g69
g3984
sg61
(dp4002
sg63
(lp4003
g55
(g56
g57
Ntp4004
Rp4005
(dp4006
g69
g4000
sg61
(dp4007
g71
I4
ssg63
(lp4008
g106
asbasbasbag55
(g73
g57
Ntp4009
Rp4010
(dp4011
g69
g3979
sg61
(dp4012
sg63
(lp4013
g55
(g79
g57
Ntp4014
Rp4015
(dp4016
g69
g4010
sg61
(dp4017
g84
g85
ssg63
(lp4018
g3293
asbag55
(g79
g57
Ntp4019
Rp4020
(dp4021
g69
g4010
sg61
(dp4022
g92
g93
ssg63
(lp4023
g95
asbag55
(g79
g57
Ntp4024
Rp4025
(dp4026
g69
g4010
sg61
(dp4027
sg63
(lp4028
g55
(g56
g57
Ntp4029
Rp4030
(dp4031
g69
g4025
sg61
(dp4032
g71
I4
ssg63
(lp4033
g3309
asbasbasbasbasbasbasbag55
(g73
g57
Ntp4034
Rp4035
(dp4036
g69
g128
sg61
(dp4037
sg63
(lp4038
g55
(g79
g57
Ntp4039
Rp4040
(dp4041
g69
g4035
sg61
(dp4042
g84
g85
ssg63
(lp4043
S'wsgi'
p4044
asbag55
(g79
g57
Ntp4045
Rp4046
(dp4047
g69
g4035
sg61
(dp4048
g92
g93
ssg63
(lp4049
g95
asbag55
(g79
g57
Ntp4050
Rp4051
(dp4052
g69
g4035
sg61
(dp4053
sg63
(lp4054
g55
(g56
g57
Ntp4055
Rp4056
(dp4057
g69
g4051
sg61
(dp4058
g71
I5
ssg63
(lp4059
g55
(g65
g57
Ntp4060
Rp4061
(dp4062
g69
Nsg61
(dp4063
g71
I4
ssg63
(lp4064
g55
(g73
g57
Ntp4065
Rp4066
(dp4067
g69
g4061
sg61
(dp4068
sg63
(lp4069
g55
(g79
g57
Ntp4070
Rp4071
(dp4072
g69
g4066
sg61
(dp4073
g84
g85
ssg63
(lp4074
S'environ'
p4075
asbag55
(g79
g57
Ntp4076
Rp4077
(dp4078
g69
g4066
sg61
(dp4079
g92
g93
ssg63
(lp4080
g95
asbag55
(g79
g57
Ntp4081
Rp4082
(dp4083
g69
g4066
sg61
(dp4084
sg63
(lp4085
g55
(g56
g57
Ntp4086
Rp4087
(dp4088
g69
g4082
sg61
(dp4089
g71
I4
ssg63
(lp4090
g55
(g65
g57
Ntp4091
Rp4092
(dp4093
g69
Nsg61
(dp4094
g71
I3
ssg63
(lp4095
g55
(g73
g57
Ntp4096
Rp4097
(dp4098
g69
g4092
sg61
(dp4099
sg63
(lp4100
g55
(g79
g57
Ntp4101
Rp4102
(dp4103
g69
g4097
sg61
(dp4104
g84
g85
ssg63
(lp4105
S'HTTP_ACCEPT'
p4106
asbag55
(g79
g57
Ntp4107
Rp4108
(dp4109
g69
g4097
sg61
(dp4110
g92
g93
ssg63
(lp4111
g95
asbag55
(g79
g57
Ntp4112
Rp4113
(dp4114
g69
g4097
sg61
(dp4115
sg63
(lp4116
g55
(g56
g57
Ntp4117
Rp4118
(dp4119
g69
g4113
sg61
(dp4120
g71
I3
ssg63
(lp4121
g2219
asbasbasbag55
(g73
g57
Ntp4122
Rp4123
(dp4124
g69
g4092
sg61
(dp4125
sg63
(lp4126
g55
(g79
g57
Ntp4127
Rp4128
(dp4129
g69
g4123
sg61
(dp4130
g84
g85
ssg63
(lp4131
S'HTTP_ACCEPT_ENCODING'
p4132
asbag55
(g79
g57
Ntp4133
Rp4134
(dp4135
g69
g4123
sg61
(dp4136
g92
g93
ssg63
(lp4137
g95
asbag55
(g79
g57
Ntp4138
Rp4139
(dp4140
g69
g4123
sg61
(dp4141
sg63
(lp4142
g55
(g56
g57
Ntp4143
Rp4144
(dp4145
g69
g4139
sg61
(dp4146
g71
I3
ssg63
(lp4147
g2246
asbasbasbag55
(g73
g57
Ntp4148
Rp4149
(dp4150
g69
g4092
sg61
(dp4151
sg63
(lp4152
g55
(g79
g57
Ntp4153
Rp4154
(dp4155
g69
g4149
sg61
(dp4156
g84
g85
ssg63
(lp4157
S'HTTP_ACCEPT_LANGUAGE'
p4158
asbag55
(g79
g57
Ntp4159
Rp4160
(dp4161
g69
g4149
sg61
(dp4162
g92
g93
ssg63
(lp4163
g95
asbag55
(g79
g57
Ntp4164
Rp4165
(dp4166
g69
g4149
sg61
(dp4167
sg63
(lp4168
g55
(g56
g57
Ntp4169
Rp4170
(dp4171
g69
g4165
sg61
(dp4172
g71
I3
ssg63
(lp4173
g2273
asbasbasbag55
(g73
g57
Ntp4174
Rp4175
(dp4176
g69
g4092
sg61
(dp4177
sg63
(lp4178
g55
(g79
g57
Ntp4179
Rp4180
(dp4181
g69
g4175
sg61
(dp4182
g84
g85
ssg63
(lp4183
S'HTTP_CACHE_CONTROL'
p4184
asbag55
(g79
g57
Ntp4185
Rp4186
(dp4187
g69
g4175
sg61
(dp4188
g92
g93
ssg63
(lp4189
g95
asbag55
(g79
g57
Ntp4190
Rp4191
(dp4192
g69
g4175
sg61
(dp4193
sg63
(lp4194
g55
(g56
g57
Ntp4195
Rp4196
(dp4197
g69
g4191
sg61
(dp4198
g71
I3
ssg63
(lp4199
g2300
asbasbasbag55
(g73
g57
Ntp4200
Rp4201
(dp4202
g69
g4092
sg61
(dp4203
sg63
(lp4204
g55
(g79
g57
Ntp4205
Rp4206
(dp4207
g69
g4201
sg61
(dp4208
g84
g85
ssg63
(lp4209
S'HTTP_CONNECTION'
p4210
asbag55
(g79
g57
Ntp4211
Rp4212
(dp4213
g69
g4201
sg61
(dp4214
g92
g93
ssg63
(lp4215
g95
asbag55
(g79
g57
Ntp4216
Rp4217
(dp4218
g69
g4201
sg61
(dp4219
sg63
(lp4220
g55
(g56
g57
Ntp4221
Rp4222
(dp4223
g69
g4217
sg61
(dp4224
g71
I3
ssg63
(lp4225
g2327
asbasbasbag55
(g73
g57
Ntp4226
Rp4227
(dp4228
g69
g4092
sg61
(dp4229
sg63
(lp4230
g55
(g79
g57
Ntp4231
Rp4232
(dp4233
g69
g4227
sg61
(dp4234
g84
g85
ssg63
(lp4235
S'HTTP_COOKIE'
p4236
asbag55
(g79
g57
Ntp4237
Rp4238
(dp4239
g69
g4227
sg61
(dp4240
g92
g93
ssg63
(lp4241
g95
asbag55
(g79
g57
Ntp4242
Rp4243
(dp4244
g69
g4227
sg61
(dp4245
sg63
(lp4246
g55
(g56
g57
Ntp4247
Rp4248
(dp4249
g69
g4243
sg61
(dp4250
g71
I3
ssg63
(lp4251
g2354
asbasbasbag55
(g73
g57
Ntp4252
Rp4253
(dp4254
g69
g4092
sg61
(dp4255
sg63
(lp4256
g55
(g79
g57
Ntp4257
Rp4258
(dp4259
g69
g4253
sg61
(dp4260
g84
g85
ssg63
(lp4261
S'HTTP_HOST'
p4262
asbag55
(g79
g57
Ntp4263
Rp4264
(dp4265
g69
g4253
sg61
(dp4266
g92
g93
ssg63
(lp4267
g95
asbag55
(g79
g57
Ntp4268
Rp4269
(dp4270
g69
g4253
sg61
(dp4271
sg63
(lp4272
g55
(g56
g57
Ntp4273
Rp4274
(dp4275
g69
g4269
sg61
(dp4276
g71
I3
ssg63
(lp4277
g2381
asbasbasbag55
(g73
g57
Ntp4278
Rp4279
(dp4280
g69
g4092
sg61
(dp4281
sg63
(lp4282
g55
(g79
g57
Ntp4283
Rp4284
(dp4285
g69
g4279
sg61
(dp4286
g84
g85
ssg63
(lp4287
S'HTTP_REFERER'
p4288
asbag55
(g79
g57
Ntp4289
Rp4290
(dp4291
g69
g4279
sg61
(dp4292
g92
g93
ssg63
(lp4293
g95
asbag55
(g79
g57
Ntp4294
Rp4295
(dp4296
g69
g4279
sg61
(dp4297
sg63
(lp4298
g55
(g56
g57
Ntp4299
Rp4300
(dp4301
g69
g4295
sg61
(dp4302
g71
I3
ssg63
(lp4303
g2408
asbasbasbag55
(g73
g57
Ntp4304
Rp4305
(dp4306
g69
g4092
sg61
(dp4307
sg63
(lp4308
g55
(g79
g57
Ntp4309
Rp4310
(dp4311
g69
g4305
sg61
(dp4312
g84
g85
ssg63
(lp4313
S'HTTP_USER_AGENT'
p4314
asbag55
(g79
g57
Ntp4315
Rp4316
(dp4317
g69
g4305
sg61
(dp4318
g92
g93
ssg63
(lp4319
g95
asbag55
(g79
g57
Ntp4320
Rp4321
(dp4322
g69
g4305
sg61
(dp4323
sg63
(lp4324
g55
(g56
g57
Ntp4325
Rp4326
(dp4327
g69
g4321
sg61
(dp4328
g71
I3
ssg63
(lp4329
g2435
asbasbasbag55
(g73
g57
Ntp4330
Rp4331
(dp4332
g69
g4092
sg61
(dp4333
sg63
(lp4334
g55
(g79
g57
Ntp4335
Rp4336
(dp4337
g69
g4331
sg61
(dp4338
g84
g85
ssg63
(lp4339
S'PATH_INFO'
p4340
asbag55
(g79
g57
Ntp4341
Rp4342
(dp4343
g69
g4331
sg61
(dp4344
g92
g93
ssg63
(lp4345
g95
asbag55
(g79
g57
Ntp4346
Rp4347
(dp4348
g69
g4331
sg61
(dp4349
sg63
(lp4350
g55
(g56
g57
Ntp4351
Rp4352
(dp4353
g69
g4347
sg61
(dp4354
g71
I3
ssg63
(lp4355
g2515
asbasbasbag55
(g73
g57
Ntp4356
Rp4357
(dp4358
g69
g4092
sg61
(dp4359
sg63
(lp4360
g55
(g79
g57
Ntp4361
Rp4362
(dp4363
g69
g4357
sg61
(dp4364
g84
g85
ssg63
(lp4365
S'QUERY_STRING'
p4366
asbag55
(g79
g57
Ntp4367
Rp4368
(dp4369
g69
g4357
sg61
(dp4370
g92
g93
ssg63
(lp4371
g95
asbag55
(g79
g57
Ntp4372
Rp4373
(dp4374
g69
g4357
sg61
(dp4375
sg63
(lp4376
g55
(g56
g57
Ntp4377
Rp4378
(dp4379
g69
g4373
sg61
(dp4380
g71
I3
ssg63
(lp4381
g2542
asbasbasbag55
(g73
g57
Ntp4382
Rp4383
(dp4384
g69
g4092
sg61
(dp4385
sg63
(lp4386
g55
(g79
g57
Ntp4387
Rp4388
(dp4389
g69
g4383
sg61
(dp4390
g84
g85
ssg63
(lp4391
S'REMOTE_ADDR'
p4392
asbag55
(g79
g57
Ntp4393
Rp4394
(dp4395
g69
g4383
sg61
(dp4396
g92
g93
ssg63
(lp4397
g95
asbag55
(g79
g57
Ntp4398
Rp4399
(dp4400
g69
g4383
sg61
(dp4401
sg63
(lp4402
g55
(g56
g57
Ntp4403
Rp4404
(dp4405
g69
g4399
sg61
(dp4406
g71
I3
ssg63
(lp4407
g285
asbasbasbag55
(g73
g57
Ntp4408
Rp4409
(dp4410
g69
g4092
sg61
(dp4411
sg63
(lp4412
g55
(g79
g57
Ntp4413
Rp4414
(dp4415
g69
g4409
sg61
(dp4416
g84
g85
ssg63
(lp4417
S'REMOTE_PORT'
p4418
asbag55
(g79
g57
Ntp4419
Rp4420
(dp4421
g69
g4409
sg61
(dp4422
g92
g93
ssg63
(lp4423
g95
asbag55
(g79
g57
Ntp4424
Rp4425
(dp4426
g69
g4409
sg61
(dp4427
sg63
(lp4428
g55
(g56
g57
Ntp4429
Rp4430
(dp4431
g69
g4425
sg61
(dp4432
g71
I3
ssg63
(lp4433
g2595
asbasbasbag55
(g73
g57
Ntp4434
Rp4435
(dp4436
g69
g4092
sg61
(dp4437
sg63
(lp4438
g55
(g79
g57
Ntp4439
Rp4440
(dp4441
g69
g4435
sg61
(dp4442
g84
g85
ssg63
(lp4443
S'REQUEST_METHOD'
p4444
asbag55
(g79
g57
Ntp4445
Rp4446
(dp4447
g69
g4435
sg61
(dp4448
g92
g93
ssg63
(lp4449
g95
asbag55
(g79
g57
Ntp4450
Rp4451
(dp4452
g69
g4435
sg61
(dp4453
sg63
(lp4454
g55
(g56
g57
Ntp4455
Rp4456
(dp4457
g69
g4451
sg61
(dp4458
g71
I3
ssg63
(lp4459
g2622
asbasbasbag55
(g73
g57
Ntp4460
Rp4461
(dp4462
g69
g4092
sg61
(dp4463
sg63
(lp4464
g55
(g79
g57
Ntp4465
Rp4466
(dp4467
g69
g4461
sg61
(dp4468
g84
g85
ssg63
(lp4469
S'SCRIPT_NAME'
p4470
asbag55
(g79
g57
Ntp4471
Rp4472
(dp4473
g69
g4461
sg61
(dp4474
g92
g93
ssg63
(lp4475
g95
asbag55
(g79
g57
Ntp4476
Rp4477
(dp4478
g69
g4461
sg61
(dp4479
sg63
(lp4480
g55
(g56
g57
Ntp4481
Rp4482
(dp4483
g69
g4477
sg61
(dp4484
g71
I3
ssg63
(lp4485
g2649
asbasbasbag55
(g73
g57
Ntp4486
Rp4487
(dp4488
g69
g4092
sg61
(dp4489
sg63
(lp4490
g55
(g79
g57
Ntp4491
Rp4492
(dp4493
g69
g4487
sg61
(dp4494
g84
g85
ssg63
(lp4495
S'SERVER_NAME'
p4496
asbag55
(g79
g57
Ntp4497
Rp4498
(dp4499
g69
g4487
sg61
(dp4500
g92
g93
ssg63
(lp4501
g95
asbag55
(g79
g57
Ntp4502
Rp4503
(dp4504
g69
g4487
sg61
(dp4505
sg63
(lp4506
g55
(g56
g57
Ntp4507
Rp4508
(dp4509
g69
g4503
sg61
(dp4510
g71
I3
ssg63
(lp4511
g2676
asbasbasbag55
(g73
g57
Ntp4512
Rp4513
(dp4514
g69
g4092
sg61
(dp4515
sg63
(lp4516
g55
(g79
g57
Ntp4517
Rp4518
(dp4519
g69
g4513
sg61
(dp4520
g84
g85
ssg63
(lp4521
S'SERVER_PORT'
p4522
asbag55
(g79
g57
Ntp4523
Rp4524
(dp4525
g69
g4513
sg61
(dp4526
g92
g93
ssg63
(lp4527
g95
asbag55
(g79
g57
Ntp4528
Rp4529
(dp4530
g69
g4513
sg61
(dp4531
sg63
(lp4532
g55
(g56
g57
Ntp4533
Rp4534
(dp4535
g69
g4529
sg61
(dp4536
g71
I3
ssg63
(lp4537
g2703
asbasbasbag55
(g73
g57
Ntp4538
Rp4539
(dp4540
g69
g4092
sg61
(dp4541
sg63
(lp4542
g55
(g79
g57
Ntp4543
Rp4544
(dp4545
g69
g4539
sg61
(dp4546
g84
g85
ssg63
(lp4547
S'SERVER_PROTOCOL'
p4548
asbag55
(g79
g57
Ntp4549
Rp4550
(dp4551
g69
g4539
sg61
(dp4552
g92
g93
ssg63
(lp4553
g95
asbag55
(g79
g57
Ntp4554
Rp4555
(dp4556
g69
g4539
sg61
(dp4557
sg63
(lp4558
g55
(g56
g57
Ntp4559
Rp4560
(dp4561
g69
g4555
sg61
(dp4562
g71
I3
ssg63
(lp4563
g2730
asbasbasbag55
(g73
g57
Ntp4564
Rp4565
(dp4566
g69
g4092
sg61
(dp4567
sg63
(lp4568
g55
(g79
g57
Ntp4569
Rp4570
(dp4571
g69
g4565
sg61
(dp4572
g84
g85
ssg63
(lp4573
S'SERVER_SOFTWARE'
p4574
asbag55
(g79
g57
Ntp4575
Rp4576
(dp4577
g69
g4565
sg61
(dp4578
g92
g93
ssg63
(lp4579
g95
asbag55
(g79
g57
Ntp4580
Rp4581
(dp4582
g69
g4565
sg61
(dp4583
sg63
(lp4584
g55
(g56
g57
Ntp4585
Rp4586
(dp4587
g69
g4581
sg61
(dp4588
g71
I3
ssg63
(lp4589
g2757
asbasbasbag55
(g73
g57
Ntp4590
Rp4591
(dp4592
g69
g4092
sg61
(dp4593
sg63
(lp4594
g55
(g79
g57
Ntp4595
Rp4596
(dp4597
g69
g4591
sg61
(dp4598
g84
g85
ssg63
(lp4599
S'wsgi.errors'
p4600
asbag55
(g79
g57
Ntp4601
Rp4602
(dp4603
g69
g4591
sg61
(dp4604
g92
g93
ssg63
(lp4605
g95
asbag55
(g79
g57
Ntp4606
Rp4607
(dp4608
g69
g4591
sg61
(dp4609
sg63
(lp4610
g55
(g56
g57
Ntp4611
Rp4612
(dp4613
g69
g4607
sg61
(dp4614
g71
I3
ssg63
(lp4615
S"<open file '<fdopen>', mode 'w' at 0x0000000002ed4b40>"
p4616
asbasbasbag55
(g73
g57
Ntp4617
Rp4618
(dp4619
g69
g4092
sg61
(dp4620
sg63
(lp4621
g55
(g79
g57
Ntp4622
Rp4623
(dp4624
g69
g4618
sg61
(dp4625
g84
g85
ssg63
(lp4626
S'wsgi.file_wrapper'
p4627
asbag55
(g79
g57
Ntp4628
Rp4629
(dp4630
g69
g4618
sg61
(dp4631
g92
g93
ssg63
(lp4632
g95
asbag55
(g79
g57
Ntp4633
Rp4634
(dp4635
g69
g4618
sg61
(dp4636
sg63
(lp4637
g55
(g56
g57
Ntp4638
Rp4639
(dp4640
g69
g4634
sg61
(dp4641
g71
I3
ssg63
(lp4642
S'<class wsgiref.util.FileWrapper at 0x0000000006f105c0>'
p4643
asbasbasbag55
(g73
g57
Ntp4644
Rp4645
(dp4646
g69
g4092
sg61
(dp4647
sg63
(lp4648
g55
(g79
g57
Ntp4649
Rp4650
(dp4651
g69
g4645
sg61
(dp4652
g84
g85
ssg63
(lp4653
S'wsgi.input'
p4654
asbag55
(g79
g57
Ntp4655
Rp4656
(dp4657
g69
g4645
sg61
(dp4658
g92
g93
ssg63
(lp4659
g95
asbag55
(g79
g57
Ntp4660
Rp4661
(dp4662
g69
g4645
sg61
(dp4663
sg63
(lp4664
g55
(g56
g57
Ntp4665
Rp4666
(dp4667
g69
g4661
sg61
(dp4668
g71
I3
ssg63
(lp4669
S'<cStringIO.StringO object at 0x000000000a284288>'
p4670
asbasbasbag55
(g73
g57
Ntp4671
Rp4672
(dp4673
g69
g4092
sg61
(dp4674
sg63
(lp4675
g55
(g79
g57
Ntp4676
Rp4677
(dp4678
g69
g4672
sg61
(dp4679
g84
g85
ssg63
(lp4680
S'wsgi.multiprocess'
p4681
asbag55
(g79
g57
Ntp4682
Rp4683
(dp4684
g69
g4672
sg61
(dp4685
g92
g93
ssg63
(lp4686
g95
asbag55
(g79
g57
Ntp4687
Rp4688
(dp4689
g69
g4672
sg61
(dp4690
sg63
(lp4691
g55
(g56
g57
Ntp4692
Rp4693
(dp4694
g69
g4688
sg61
(dp4695
g71
I3
ssg63
(lp4696
g158
asbasbasbag55
(g73
g57
Ntp4697
Rp4698
(dp4699
g69
g4092
sg61
(dp4700
sg63
(lp4701
g55
(g79
g57
Ntp4702
Rp4703
(dp4704
g69
g4698
sg61
(dp4705
g84
g85
ssg63
(lp4706
S'wsgi.multithread'
p4707
asbag55
(g79
g57
Ntp4708
Rp4709
(dp4710
g69
g4698
sg61
(dp4711
g92
g93
ssg63
(lp4712
g95
asbag55
(g79
g57
Ntp4713
Rp4714
(dp4715
g69
g4698
sg61
(dp4716
sg63
(lp4717
g55
(g56
g57
Ntp4718
Rp4719
(dp4720
g69
g4714
sg61
(dp4721
g71
I3
ssg63
(lp4722
g2488
asbasbasbag55
(g73
g57
Ntp4723
Rp4724
(dp4725
g69
g4092
sg61
(dp4726
sg63
(lp4727
g55
(g79
g57
Ntp4728
Rp4729
(dp4730
g69
g4724
sg61
(dp4731
g84
g85
ssg63
(lp4732
S'wsgi.run_once'
p4733
asbag55
(g79
g57
Ntp4734
Rp4735
(dp4736
g69
g4724
sg61
(dp4737
g92
g93
ssg63
(lp4738
g95
asbag55
(g79
g57
Ntp4739
Rp4740
(dp4741
g69
g4724
sg61
(dp4742
sg63
(lp4743
g55
(g56
g57
Ntp4744
Rp4745
(dp4746
g69
g4740
sg61
(dp4747
g71
I3
ssg63
(lp4748
g158
asbasbasbag55
(g73
g57
Ntp4749
Rp4750
(dp4751
g69
g4092
sg61
(dp4752
sg63
(lp4753
g55
(g79
g57
Ntp4754
Rp4755
(dp4756
g69
g4750
sg61
(dp4757
g84
g85
ssg63
(lp4758
S'wsgi.url_scheme'
p4759
asbag55
(g79
g57
Ntp4760
Rp4761
(dp4762
g69
g4750
sg61
(dp4763
g92
g93
ssg63
(lp4764
g95
asbag55
(g79
g57
Ntp4765
Rp4766
(dp4767
g69
g4750
sg61
(dp4768
sg63
(lp4769
g55
(g56
g57
Ntp4770
Rp4771
(dp4772
g69
g4766
sg61
(dp4773
g71
I3
ssg63
(lp4774
g3107
asbasbasbag55
(g73
g57
Ntp4775
Rp4776
(dp4777
g69
g4092
sg61
(dp4778
sg63
(lp4779
g55
(g79
g57
Ntp4780
Rp4781
(dp4782
g69
g4776
sg61
(dp4783
g84
g85
ssg63
(lp4784
S'wsgi.version'
p4785
asbag55
(g79
g57
Ntp4786
Rp4787
(dp4788
g69
g4776
sg61
(dp4789
g92
g93
ssg63
(lp4790
g95
asbag55
(g79
g57
Ntp4791
Rp4792
(dp4793
g69
g4776
sg61
(dp4794
sg63
(lp4795
g55
(g56
g57
Ntp4796
Rp4797
(dp4798
g69
g4792
sg61
(dp4799
g71
I3
ssg63
(lp4800
S'1'
p4801
asbasbasbasbasbasbasbasbasbasbasbasbasbsS'response'
p4802
g55
(g56
g57
Ntp4803
Rp4804
(dp4805
g61
(dp4806
sg63
(lp4807
g55
(g65
g57
Ntp4808
Rp4809
(dp4810
g69
Nsg61
(dp4811
g71
I5
ssg63
(lp4812
g55
(g73
g57
Ntp4813
Rp4814
(dp4815
g69
g4809
sg61
(dp4816
sg63
(lp4817
g55
(g79
g57
Ntp4818
Rp4819
(dp4820
g69
g4814
sg61
(dp4821
g84
g85
ssg63
(lp4822
g242
asbag55
(g79
g57
Ntp4823
Rp4824
(dp4825
g69
g4814
sg61
(dp4826
g92
g93
ssg63
(lp4827
g95
asbag55
(g79
g57
Ntp4828
Rp4829
(dp4830
g69
g4814
sg61
(dp4831
sg63
(lp4832
g55
(g56
g57
Ntp4833
Rp4834
(dp4835
g69
g4829
sg61
(dp4836
g71
I5
ssg63
(lp4837
S'<cStringIO.StringO object at 0x000000000a284100>'
p4838
asbasbasbag55
(g73
g57
Ntp4839
Rp4840
(dp4841
g69
g4809
sg61
(dp4842
sg63
(lp4843
g55
(g79
g57
Ntp4844
Rp4845
(dp4846
g69
g4840
sg61
(dp4847
g84
g85
ssg63
(lp4848
g323
asbag55
(g79
g57
Ntp4849
Rp4850
(dp4851
g69
g4840
sg61
(dp4852
g92
g93
ssg63
(lp4853
g95
asbag55
(g79
g57
Ntp4854
Rp4855
(dp4856
g69
g4840
sg61
(dp4857
sg63
(lp4858
g55
(g56
g57
Ntp4859
Rp4860
(dp4861
g69
g4855
sg61
(dp4862
g71
I5
ssg63
(lp4863
g55
(g65
g57
Ntp4864
Rp4865
(dp4866
g69
Nsg61
(dp4867
g71
I4
ssg63
(lp4868
g55
(g73
g57
Ntp4869
Rp4870
(dp4871
g69
g4865
sg61
(dp4872
sg63
(lp4873
g55
(g79
g57
Ntp4874
Rp4875
(dp4876
g69
g4870
sg61
(dp4877
g84
g85
ssg63
(lp4878
S'session_id_fragance'
p4879
asbag55
(g79
g57
Ntp4880
Rp4881
(dp4882
g69
g4870
sg61
(dp4883
g92
g93
ssg63
(lp4884
g95
asbag55
(g79
g57
Ntp4885
Rp4886
(dp4887
g69
g4870
sg61
(dp4888
sg63
(lp4889
g55
(g56
g57
Ntp4890
Rp4891
(dp4892
g69
g4886
sg61
(dp4893
g71
I4
ssg63
(lp4894
g55
(g65
g57
Ntp4895
Rp4896
(dp4897
g69
Nsg61
(dp4898
g71
I3
ssg63
(lp4899
g55
(g73
g57
Ntp4900
Rp4901
(dp4902
g69
g4896
sg61
(dp4903
sg63
(lp4904
g55
(g79
g57
Ntp4905
Rp4906
(dp4907
g69
g4901
sg61
(dp4908
g84
g85
ssg63
(lp4909
g385
asbag55
(g79
g57
Ntp4910
Rp4911
(dp4912
g69
g4901
sg61
(dp4913
g92
g93
ssg63
(lp4914
g95
asbag55
(g79
g57
Ntp4915
Rp4916
(dp4917
g69
g4901
sg61
(dp4918
sg63
(lp4919
g55
(g56
g57
Ntp4920
Rp4921
(dp4922
g69
g4916
sg61
(dp4923
g71
I3
ssg63
(lp4924
g401
asbasbasbag55
(g73
g57
Ntp4925
Rp4926
(dp4927
g69
g4896
sg61
(dp4928
sg63
(lp4929
g55
(g79
g57
Ntp4930
Rp4931
(dp4932
g69
g4926
sg61
(dp4933
g84
g85
ssg63
(lp4934
g412
asbag55
(g79
g57
Ntp4935
Rp4936
(dp4937
g69
g4926
sg61
(dp4938
g92
g93
ssg63
(lp4939
g95
asbag55
(g79
g57
Ntp4940
Rp4941
(dp4942
g69
g4926
sg61
(dp4943
sg63
(lp4944
g55
(g56
g57
Ntp4945
Rp4946
(dp4947
g69
g4941
sg61
(dp4948
g71
I3
ssg63
(lp4949
g401
asbasbasbag55
(g73
g57
Ntp4950
Rp4951
(dp4952
g69
g4896
sg61
(dp4953
sg63
(lp4954
g55
(g79
g57
Ntp4955
Rp4956
(dp4957
g69
g4951
sg61
(dp4958
g84
g85
ssg63
(lp4959
g438
asbag55
(g79
g57
Ntp4960
Rp4961
(dp4962
g69
g4951
sg61
(dp4963
g92
g93
ssg63
(lp4964
g95
asbag55
(g79
g57
Ntp4965
Rp4966
(dp4967
g69
g4951
sg61
(dp4968
sg63
(lp4969
g55
(g56
g57
Ntp4970
Rp4971
(dp4972
g69
g4966
sg61
(dp4973
g71
I3
ssg63
(lp4974
g401
asbasbasbag55
(g73
g57
Ntp4975
Rp4976
(dp4977
g69
g4896
sg61
(dp4978
sg63
(lp4979
g55
(g79
g57
Ntp4980
Rp4981
(dp4982
g69
g4976
sg61
(dp4983
g84
g85
ssg63
(lp4984
g464
asbag55
(g79
g57
Ntp4985
Rp4986
(dp4987
g69
g4976
sg61
(dp4988
g92
g93
ssg63
(lp4989
g95
asbag55
(g79
g57
Ntp4990
Rp4991
(dp4992
g69
g4976
sg61
(dp4993
sg63
(lp4994
g55
(g56
g57
Ntp4995
Rp4996
(dp4997
g69
g4991
sg61
(dp4998
g71
I3
ssg63
(lp4999
g401
asbasbasbag55
(g73
g57
Ntp5000
Rp5001
(dp5002
g69
g4896
sg61
(dp5003
sg63
(lp5004
g55
(g79
g57
Ntp5005
Rp5006
(dp5007
g69
g5001
sg61
(dp5008
g84
g85
ssg63
(lp5009
g490
asbag55
(g79
g57
Ntp5010
Rp5011
(dp5012
g69
g5001
sg61
(dp5013
g92
g93
ssg63
(lp5014
g95
asbag55
(g79
g57
Ntp5015
Rp5016
(dp5017
g69
g5001
sg61
(dp5018
sg63
(lp5019
g55
(g56
g57
Ntp5020
Rp5021
(dp5022
g69
g5016
sg61
(dp5023
g71
I3
ssg63
(lp5024
g401
asbasbasbag55
(g73
g57
Ntp5025
Rp5026
(dp5027
g69
g4896
sg61
(dp5028
sg63
(lp5029
g55
(g79
g57
Ntp5030
Rp5031
(dp5032
g69
g5026
sg61
(dp5033
g84
g85
ssg63
(lp5034
g516
asbag55
(g79
g57
Ntp5035
Rp5036
(dp5037
g69
g5026
sg61
(dp5038
g92
g93
ssg63
(lp5039
g95
asbag55
(g79
g57
Ntp5040
Rp5041
(dp5042
g69
g5026
sg61
(dp5043
sg63
(lp5044
g55
(g56
g57
Ntp5045
Rp5046
(dp5047
g69
g5041
sg61
(dp5048
g71
I3
ssg63
(lp5049
S'/'
p5050
asbasbasbag55
(g73
g57
Ntp5051
Rp5052
(dp5053
g69
g4896
sg61
(dp5054
sg63
(lp5055
g55
(g79
g57
Ntp5056
Rp5057
(dp5058
g69
g5052
sg61
(dp5059
g84
g85
ssg63
(lp5060
g542
asbag55
(g79
g57
Ntp5061
Rp5062
(dp5063
g69
g5052
sg61
(dp5064
g92
g93
ssg63
(lp5065
g95
asbag55
(g79
g57
Ntp5066
Rp5067
(dp5068
g69
g5052
sg61
(dp5069
sg63
(lp5070
g55
(g56
g57
Ntp5071
Rp5072
(dp5073
g69
g5067
sg61
(dp5074
g71
I3
ssg63
(lp5075
g401
asbasbasbag55
(g73
g57
Ntp5076
Rp5077
(dp5078
g69
g4896
sg61
(dp5079
sg63
(lp5080
g55
(g79
g57
Ntp5081
Rp5082
(dp5083
g69
g5077
sg61
(dp5084
g84
g85
ssg63
(lp5085
g568
asbag55
(g79
g57
Ntp5086
Rp5087
(dp5088
g69
g5077
sg61
(dp5089
g92
g93
ssg63
(lp5090
g95
asbag55
(g79
g57
Ntp5091
Rp5092
(dp5093
g69
g5077
sg61
(dp5094
sg63
(lp5095
g55
(g56
g57
Ntp5096
Rp5097
(dp5098
g69
g5092
sg61
(dp5099
g71
I3
ssg63
(lp5100
g401
asbasbasbasbasbasbasbasbasbasbasbag55
(g73
g57
Ntp5101
Rp5102
(dp5103
g69
g4809
sg61
(dp5104
sg63
(lp5105
g55
(g79
g57
Ntp5106
Rp5107
(dp5108
g69
g5102
sg61
(dp5109
g84
g85
ssg63
(lp5110
S'delimiters'
p5111
asbag55
(g79
g57
Ntp5112
Rp5113
(dp5114
g69
g5102
sg61
(dp5115
g92
g93
ssg63
(lp5116
g95
asbag55
(g79
g57
Ntp5117
Rp5118
(dp5119
g69
g5102
sg61
(dp5120
sg63
(lp5121
g55
(g56
g57
Ntp5122
Rp5123
(dp5124
g69
g5118
sg61
(dp5125
g71
I5
ssg63
(lp5126
g55
(g65
g57
Ntp5127
Rp5128
(dp5129
g69
Nsg61
(dp5130
g71
I4
ssg63
(lp5131
g55
(g73
g57
Ntp5132
Rp5133
(dp5134
g69
g5128
sg61
(dp5135
sg63
(lp5136
g55
(g79
g57
Ntp5137
Rp5138
(dp5139
g69
g5133
sg61
(dp5140
sg63
(lp5141
g55
(g56
g57
Ntp5142
Rp5143
(dp5144
g69
g5138
sg61
(dp5145
g71
I4
ssg63
(lp5146
S'{{'
p5147
asbasbasbag55
(g73
g57
Ntp5148
Rp5149
(dp5150
g69
g5128
sg61
(dp5151
sg63
(lp5152
g55
(g79
g57
Ntp5153
Rp5154
(dp5155
g69
g5149
sg61
(dp5156
sg63
(lp5157
g55
(g56
g57
Ntp5158
Rp5159
(dp5160
g69
g5154
sg61
(dp5161
g71
I4
ssg63
(lp5162
S'}}'
p5163
asbasbasbasbasbasbasbag55
(g73
g57
Ntp5164
Rp5165
(dp5166
g69
g4809
sg61
(dp5167
sg63
(lp5168
g55
(g79
g57
Ntp5169
Rp5170
(dp5171
g69
g5165
sg61
(dp5172
g84
g85
ssg63
(lp5173
S'files'
p5174
asbag55
(g79
g57
Ntp5175
Rp5176
(dp5177
g69
g5165
sg61
(dp5178
g92
g93
ssg63
(lp5179
g95
asbag55
(g79
g57
Ntp5180
Rp5181
(dp5182
g69
g5165
sg61
(dp5183
sg63
(lp5184
g55
(g56
g57
Ntp5185
Rp5186
(dp5187
g69
g5181
sg61
(dp5188
g71
I5
ssg63
(lp5189
g55
(g65
g57
Ntp5190
Rp5191
(dp5192
g69
Nsg61
(dp5193
g71
I4
ssg63
(lp5194
g55
(g73
g57
Ntp5195
Rp5196
(dp5197
g69
g5191
sg61
(dp5198
sg63
(lp5199
g55
(g79
g57
Ntp5200
Rp5201
(dp5202
g69
g5196
sg61
(dp5203
sg63
(lp5204
g55
(g56
g57
Ntp5205
Rp5206
(dp5207
g69
g5201
sg61
(dp5208
g71
I4
ssg63
(lp5209
S'/fragance/static/js/jquery.js'
p5210
asbasbasbag55
(g73
g57
Ntp5211
Rp5212
(dp5213
g69
g5191
sg61
(dp5214
sg63
(lp5215
g55
(g79
g57
Ntp5216
Rp5217
(dp5218
g69
g5212
sg61
(dp5219
sg63
(lp5220
g55
(g56
g57
Ntp5221
Rp5222
(dp5223
g69
g5217
sg61
(dp5224
g71
I4
ssg63
(lp5225
S'/fragance/static/css/calendar.css'
p5226
asbasbasbag55
(g73
g57
Ntp5227
Rp5228
(dp5229
g69
g5191
sg61
(dp5230
sg63
(lp5231
g55
(g79
g57
Ntp5232
Rp5233
(dp5234
g69
g5228
sg61
(dp5235
sg63
(lp5236
g55
(g56
g57
Ntp5237
Rp5238
(dp5239
g69
g5233
sg61
(dp5240
g71
I4
ssg63
(lp5241
S'/fragance/static/js/calendar.js'
p5242
asbasbasbag55
(g73
g57
Ntp5243
Rp5244
(dp5245
g69
g5191
sg61
(dp5246
sg63
(lp5247
g55
(g79
g57
Ntp5248
Rp5249
(dp5250
g69
g5244
sg61
(dp5251
sg63
(lp5252
g55
(g56
g57
Ntp5253
Rp5254
(dp5255
g69
g5249
sg61
(dp5256
g71
I4
ssg63
(lp5257
S'/fragance/static/js/web2py.js'
p5258
asbasbasbag55
(g73
g57
Ntp5259
Rp5260
(dp5261
g69
g5191
sg61
(dp5262
sg63
(lp5263
g55
(g79
g57
Ntp5264
Rp5265
(dp5266
g69
g5260
sg61
(dp5267
sg63
(lp5268
g55
(g56
g57
Ntp5269
Rp5270
(dp5271
g69
g5265
sg61
(dp5272
g71
I4
ssg63
(lp5273
S'/fragance/static/css/skeleton.css'
p5274
asbasbasbag55
(g73
g57
Ntp5275
Rp5276
(dp5277
g69
g5191
sg61
(dp5278
sg63
(lp5279
g55
(g79
g57
Ntp5280
Rp5281
(dp5282
g69
g5276
sg61
(dp5283
sg63
(lp5284
g55
(g56
g57
Ntp5285
Rp5286
(dp5287
g69
g5281
sg61
(dp5288
g71
I4
ssg63
(lp5289
S'/fragance/static/css/web2py.css'
p5290
asbasbasbag55
(g73
g57
Ntp5291
Rp5292
(dp5293
g69
g5191
sg61
(dp5294
sg63
(lp5295
g55
(g79
g57
Ntp5296
Rp5297
(dp5298
g69
g5292
sg61
(dp5299
sg63
(lp5300
g55
(g56
g57
Ntp5301
Rp5302
(dp5303
g69
g5297
sg61
(dp5304
g71
I4
ssg63
(lp5305
S'/fragance/static/css/superfish.css'
p5306
asbasbasbag55
(g73
g57
Ntp5307
Rp5308
(dp5309
g69
g5191
sg61
(dp5310
sg63
(lp5311
g55
(g79
g57
Ntp5312
Rp5313
(dp5314
g69
g5308
sg61
(dp5315
sg63
(lp5316
g55
(g56
g57
Ntp5317
Rp5318
(dp5319
g69
g5313
sg61
(dp5320
g71
I4
ssg63
(lp5321
S'/fragance/static/js/superfish.js'
p5322
asbasbasbasbasbasbasbag55
(g73
g57
Ntp5323
Rp5324
(dp5325
g69
g4809
sg61
(dp5326
sg63
(lp5327
g55
(g79
g57
Ntp5328
Rp5329
(dp5330
g69
g5324
sg61
(dp5331
g84
g85
ssg63
(lp5332
S'flash'
p5333
asbag55
(g79
g57
Ntp5334
Rp5335
(dp5336
g69
g5324
sg61
(dp5337
g92
g93
ssg63
(lp5338
g95
asbag55
(g79
g57
Ntp5339
Rp5340
(dp5341
g69
g5324
sg61
(dp5342
sg63
(lp5343
g55
(g56
g57
Ntp5344
Rp5345
(dp5346
g69
g5340
sg61
(dp5347
g71
I5
ssg63
(lp5348
S''
p5349
asbasbasbag55
(g73
g57
Ntp5350
Rp5351
(dp5352
g69
g4809
sg61
(dp5353
sg63
(lp5354
g55
(g79
g57
Ntp5355
Rp5356
(dp5357
g69
g5351
sg61
(dp5358
g84
g85
ssg63
(lp5359
S'generic_patterns'
p5360
asbag55
(g79
g57
Ntp5361
Rp5362
(dp5363
g69
g5351
sg61
(dp5364
g92
g93
ssg63
(lp5365
g95
asbag55
(g79
g57
Ntp5366
Rp5367
(dp5368
g69
g5351
sg61
(dp5369
sg63
(lp5370
g55
(g56
g57
Ntp5371
Rp5372
(dp5373
g69
g5367
sg61
(dp5374
g71
I5
ssg63
(lp5375
g55
(g65
g57
Ntp5376
Rp5377
(dp5378
g69
Nsg61
(dp5379
g71
I4
ssg63
(lp5380
g55
(g73
g57
Ntp5381
Rp5382
(dp5383
g69
g5377
sg61
(dp5384
sg63
(lp5385
g55
(g79
g57
Ntp5386
Rp5387
(dp5388
g69
g5382
sg61
(dp5389
sg63
(lp5390
g55
(g56
g57
Ntp5391
Rp5392
(dp5393
g69
g5387
sg61
(dp5394
g71
I4
ssg63
(lp5395
S'*'
p5396
asbasbasbasbasbasbasbag55
(g73
g57
Ntp5397
Rp5398
(dp5399
g69
g4809
sg61
(dp5400
sg63
(lp5401
g55
(g79
g57
Ntp5402
Rp5403
(dp5404
g69
g5398
sg61
(dp5405
g84
g85
ssg63
(lp5406
S'headers'
p5407
asbag55
(g79
g57
Ntp5408
Rp5409
(dp5410
g69
g5398
sg61
(dp5411
g92
g93
ssg63
(lp5412
g95
asbag55
(g79
g57
Ntp5413
Rp5414
(dp5415
g69
g5398
sg61
(dp5416
sg63
(lp5417
g55
(g56
g57
Ntp5418
Rp5419
(dp5420
g69
g5414
sg61
(dp5421
g71
I5
ssg63
(lp5422
g55
(g65
g57
Ntp5423
Rp5424
(dp5425
g69
Nsg61
(dp5426
g71
I4
ssg63
(lp5427
g55
(g73
g57
Ntp5428
Rp5429
(dp5430
g69
g5424
sg61
(dp5431
sg63
(lp5432
g55
(g79
g57
Ntp5433
Rp5434
(dp5435
g69
g5429
sg61
(dp5436
g84
g85
ssg63
(lp5437
S'Cache-Control'
p5438
asbag55
(g79
g57
Ntp5439
Rp5440
(dp5441
g69
g5429
sg61
(dp5442
g92
g93
ssg63
(lp5443
g95
asbag55
(g79
g57
Ntp5444
Rp5445
(dp5446
g69
g5429
sg61
(dp5447
sg63
(lp5448
g55
(g56
g57
Ntp5449
Rp5450
(dp5451
g69
g5445
sg61
(dp5452
g71
I4
ssg63
(lp5453
S'no-store, no-cache, must-revalidate, post-check=0, pre-check=0'
p5454
asbasbasbag55
(g73
g57
Ntp5455
Rp5456
(dp5457
g69
g5424
sg61
(dp5458
sg63
(lp5459
g55
(g79
g57
Ntp5460
Rp5461
(dp5462
g69
g5456
sg61
(dp5463
g84
g85
ssg63
(lp5464
S'Content-Type'
p5465
asbag55
(g79
g57
Ntp5466
Rp5467
(dp5468
g69
g5456
sg61
(dp5469
g92
g93
ssg63
(lp5470
g95
asbag55
(g79
g57
Ntp5471
Rp5472
(dp5473
g69
g5456
sg61
(dp5474
sg63
(lp5475
g55
(g56
g57
Ntp5476
Rp5477
(dp5478
g69
g5472
sg61
(dp5479
g71
I4
ssg63
(lp5480
S'text/html; charset=utf-8'
p5481
asbasbasbag55
(g73
g57
Ntp5482
Rp5483
(dp5484
g69
g5424
sg61
(dp5485
sg63
(lp5486
g55
(g79
g57
Ntp5487
Rp5488
(dp5489
g69
g5483
sg61
(dp5490
g84
g85
ssg63
(lp5491
S'Expires'
p5492
asbag55
(g79
g57
Ntp5493
Rp5494
(dp5495
g69
g5483
sg61
(dp5496
g92
g93
ssg63
(lp5497
g95
asbag55
(g79
g57
Ntp5498
Rp5499
(dp5500
g69
g5483
sg61
(dp5501
sg63
(lp5502
g55
(g56
g57
Ntp5503
Rp5504
(dp5505
g69
g5499
sg61
(dp5506
g71
I4
ssg63
(lp5507
S'Wed, 14 Mar 2012 15:54:58 GMT'
p5508
asbasbasbag55
(g73
g57
Ntp5509
Rp5510
(dp5511
g69
g5424
sg61
(dp5512
sg63
(lp5513
g55
(g79
g57
Ntp5514
Rp5515
(dp5516
g69
g5510
sg61
(dp5517
g84
g85
ssg63
(lp5518
S'Pragma'
p5519
asbag55
(g79
g57
Ntp5520
Rp5521
(dp5522
g69
g5510
sg61
(dp5523
g92
g93
ssg63
(lp5524
g95
asbag55
(g79
g57
Ntp5525
Rp5526
(dp5527
g69
g5510
sg61
(dp5528
sg63
(lp5529
g55
(g56
g57
Ntp5530
Rp5531
(dp5532
g69
g5526
sg61
(dp5533
g71
I4
ssg63
(lp5534
S'no-cache'
p5535
asbasbasbag55
(g73
g57
Ntp5536
Rp5537
(dp5538
g69
g5424
sg61
(dp5539
sg63
(lp5540
g55
(g79
g57
Ntp5541
Rp5542
(dp5543
g69
g5537
sg61
(dp5544
g84
g85
ssg63
(lp5545
S'X-Powered-By'
p5546
asbag55
(g79
g57
Ntp5547
Rp5548
(dp5549
g69
g5537
sg61
(dp5550
g92
g93
ssg63
(lp5551
g95
asbag55
(g79
g57
Ntp5552
Rp5553
(dp5554
g69
g5537
sg61
(dp5555
sg63
(lp5556
g55
(g56
g57
Ntp5557
Rp5558
(dp5559
g69
g5553
sg61
(dp5560
g71
I4
ssg63
(lp5561
S'web2py'
p5562
asbasbasbasbasbasbasbag55
(g73
g57
Ntp5563
Rp5564
(dp5565
g69
g4809
sg61
(dp5566
sg63
(lp5567
g55
(g79
g57
Ntp5568
Rp5569
(dp5570
g69
g5564
sg61
(dp5571
g84
g85
ssg63
(lp5572
S'menu'
p5573
asbag55
(g79
g57
Ntp5574
Rp5575
(dp5576
g69
g5564
sg61
(dp5577
g92
g93
ssg63
(lp5578
g95
asbag55
(g79
g57
Ntp5579
Rp5580
(dp5581
g69
g5564
sg61
(dp5582
sg63
(lp5583
g55
(g56
g57
Ntp5584
Rp5585
(dp5586
g69
g5580
sg61
(dp5587
g71
I5
ssg63
(lp5588
g55
(g65
g57
Ntp5589
Rp5590
(dp5591
g69
Nsg61
(dp5592
g71
I4
ssg63
(lp5593
g55
(g73
g57
Ntp5594
Rp5595
(dp5596
g69
g5590
sg61
(dp5597
sg63
(lp5598
g55
(g79
g57
Ntp5599
Rp5600
(dp5601
g69
g5595
sg61
(dp5602
sg63
(lp5603
g55
(g56
g57
Ntp5604
Rp5605
(dp5606
g69
g5600
sg61
(dp5607
g71
I4
ssg63
(lp5608
g55
(g65
g57
Ntp5609
Rp5610
(dp5611
g69
Nsg61
(dp5612
g71
I3
ssg63
(lp5613
g55
(g73
g57
Ntp5614
Rp5615
(dp5616
g69
g5610
sg61
(dp5617
sg63
(lp5618
g55
(g79
g57
Ntp5619
Rp5620
(dp5621
g69
g5615
sg61
(dp5622
sg63
(lp5623
g55
(g56
g57
Ntp5624
Rp5625
(dp5626
g69
g5620
sg61
(dp5627
g71
I3
ssg63
(lp5628
cgluon.languages
lazyT_unpickle
p5629
(S's\x06\x00\x00\x00design'
p5630
tp5631
Rp5632
asbasbasbag55
(g73
g57
Ntp5633
Rp5634
(dp5635
g69
g5610
sg61
(dp5636
sg63
(lp5637
g55
(g79
g57
Ntp5638
Rp5639
(dp5640
g69
g5634
sg61
(dp5641
sg63
(lp5642
g55
(g56
g57
Ntp5643
Rp5644
(dp5645
g69
g5639
sg61
(dp5646
g71
I3
ssg63
(lp5647
g158
asbasbasbag55
(g73
g57
Ntp5648
Rp5649
(dp5650
g69
g5610
sg61
(dp5651
sg63
(lp5652
g55
(g79
g57
Ntp5653
Rp5654
(dp5655
g69
g5649
sg61
(dp5656
sg63
(lp5657
g55
(g56
g57
Ntp5658
Rp5659
(dp5660
g69
g5654
sg61
(dp5661
g71
I3
ssg63
(lp5662
S'/admin/default/design/fragance'
p5663
asbasbasbasbasbasbasbag55
(g73
g57
Ntp5664
Rp5665
(dp5666
g69
g5590
sg61
(dp5667
sg63
(lp5668
g55
(g79
g57
Ntp5669
Rp5670
(dp5671
g69
g5665
sg61
(dp5672
sg63
(lp5673
g55
(g56
g57
Ntp5674
Rp5675
(dp5676
g69
g5670
sg61
(dp5677
g71
I4
ssg63
(lp5678
g55
(g65
g57
Ntp5679
Rp5680
(dp5681
g69
Nsg61
(dp5682
g71
I3
ssg63
(lp5683
g55
(g73
g57
Ntp5684
Rp5685
(dp5686
g69
g5680
sg61
(dp5687
sg63
(lp5688
g55
(g79
g57
Ntp5689
Rp5690
(dp5691
g69
g5685
sg61
(dp5692
sg63
(lp5693
g55
(g56
g57
Ntp5694
Rp5695
(dp5696
g69
g5690
sg61
(dp5697
g71
I3
ssg63
(lp5698
g5629
(S's\x02\x00\x00\x00db'
p5699
tp5700
Rp5701
asbasbasbag55
(g73
g57
Ntp5702
Rp5703
(dp5704
g69
g5680
sg61
(dp5705
sg63
(lp5706
g55
(g79
g57
Ntp5707
Rp5708
(dp5709
g69
g5703
sg61
(dp5710
sg63
(lp5711
g55
(g56
g57
Ntp5712
Rp5713
(dp5714
g69
g5708
sg61
(dp5715
g71
I3
ssg63
(lp5716
g158
asbasbasbag55
(g73
g57
Ntp5717
Rp5718
(dp5719
g69
g5680
sg61
(dp5720
sg63
(lp5721
g55
(g79
g57
Ntp5722
Rp5723
(dp5724
g69
g5718
sg61
(dp5725
sg63
(lp5726
g55
(g56
g57
Ntp5727
Rp5728
(dp5729
g69
g5723
sg61
(dp5730
g71
I3
ssg63
(lp5731
S'/fragance/appadmin/index'
p5732
asbasbasbasbasbasbasbag55
(g73
g57
Ntp5733
Rp5734
(dp5735
g69
g5590
sg61
(dp5736
sg63
(lp5737
g55
(g79
g57
Ntp5738
Rp5739
(dp5740
g69
g5734
sg61
(dp5741
sg63
(lp5742
g55
(g56
g57
Ntp5743
Rp5744
(dp5745
g69
g5739
sg61
(dp5746
g71
I4
ssg63
(lp5747
g55
(g65
g57
Ntp5748
Rp5749
(dp5750
g69
Nsg61
(dp5751
g71
I3
ssg63
(lp5752
g55
(g73
g57
Ntp5753
Rp5754
(dp5755
g69
g5749
sg61
(dp5756
sg63
(lp5757
g55
(g79
g57
Ntp5758
Rp5759
(dp5760
g69
g5754
sg61
(dp5761
sg63
(lp5762
g55
(g56
g57
Ntp5763
Rp5764
(dp5765
g69
g5759
sg61
(dp5766
g71
I3
ssg63
(lp5767
g5629
(S's\x05\x00\x00\x00state'
p5768
tp5769
Rp5770
asbasbasbag55
(g73
g57
Ntp5771
Rp5772
(dp5773
g69
g5749
sg61
(dp5774
sg63
(lp5775
g55
(g79
g57
Ntp5776
Rp5777
(dp5778
g69
g5772
sg61
(dp5779
sg63
(lp5780
g55
(g56
g57
Ntp5781
Rp5782
(dp5783
g69
g5777
sg61
(dp5784
g71
I3
ssg63
(lp5785
g158
asbasbasbag55
(g73
g57
Ntp5786
Rp5787
(dp5788
g69
g5749
sg61
(dp5789
sg63
(lp5790
g55
(g79
g57
Ntp5791
Rp5792
(dp5793
g69
g5787
sg61
(dp5794
sg63
(lp5795
g55
(g56
g57
Ntp5796
Rp5797
(dp5798
g69
g5792
sg61
(dp5799
g71
I3
ssg63
(lp5800
S'/fragance/appadmin/state'
p5801
asbasbasbasbasbasbasbag55
(g73
g57
Ntp5802
Rp5803
(dp5804
g69
g5590
sg61
(dp5805
sg63
(lp5806
g55
(g79
g57
Ntp5807
Rp5808
(dp5809
g69
g5803
sg61
(dp5810
sg63
(lp5811
g55
(g56
g57
Ntp5812
Rp5813
(dp5814
g69
g5808
sg61
(dp5815
g71
I4
ssg63
(lp5816
g55
(g65
g57
Ntp5817
Rp5818
(dp5819
g69
Nsg61
(dp5820
g71
I3
ssg63
(lp5821
g55
(g73
g57
Ntp5822
Rp5823
(dp5824
g69
g5818
sg61
(dp5825
sg63
(lp5826
g55
(g79
g57
Ntp5827
Rp5828
(dp5829
g69
g5823
sg61
(dp5830
sg63
(lp5831
g55
(g56
g57
Ntp5832
Rp5833
(dp5834
g69
g5828
sg61
(dp5835
g71
I3
ssg63
(lp5836
g5629
(S's\x05\x00\x00\x00cache'
p5837
tp5838
Rp5839
asbasbasbag55
(g73
g57
Ntp5840
Rp5841
(dp5842
g69
g5818
sg61
(dp5843
sg63
(lp5844
g55
(g79
g57
Ntp5845
Rp5846
(dp5847
g69
g5841
sg61
(dp5848
sg63
(lp5849
g55
(g56
g57
Ntp5850
Rp5851
(dp5852
g69
g5846
sg61
(dp5853
g71
I3
ssg63
(lp5854
g158
asbasbasbag55
(g73
g57
Ntp5855
Rp5856
(dp5857
g69
g5818
sg61
(dp5858
sg63
(lp5859
g55
(g79
g57
Ntp5860
Rp5861
(dp5862
g69
g5856
sg61
(dp5863
sg63
(lp5864
g55
(g56
g57
Ntp5865
Rp5866
(dp5867
g69
g5861
sg61
(dp5868
g71
I3
ssg63
(lp5869
S'/fragance/appadmin/ccache'
p5870
asbasbasbasbasbasbasbasbasbasbasbag55
(g73
g57
Ntp5871
Rp5872
(dp5873
g69
g4809
sg61
(dp5874
sg63
(lp5875
g55
(g79
g57
Ntp5876
Rp5877
(dp5878
g69
g5872
sg61
(dp5879
g84
g85
ssg63
(lp5880
S'meta'
p5881
asbag55
(g79
g57
Ntp5882
Rp5883
(dp5884
g69
g5872
sg61
(dp5885
g92
g93
ssg63
(lp5886
g95
asbag55
(g79
g57
Ntp5887
Rp5888
(dp5889
g69
g5872
sg61
(dp5890
sg63
(lp5891
g55
(g56
g57
Ntp5892
Rp5893
(dp5894
g69
g5888
sg61
(dp5895
g71
I5
ssg63
(lp5896
g55
(g65
g57
Ntp5897
Rp5898
(dp5899
g69
Nsg61
(dp5900
g71
I4
ssg63
(lp5901
g55
(g73
g57
Ntp5902
Rp5903
(dp5904
g69
g5898
sg61
(dp5905
sg63
(lp5906
g55
(g79
g57
Ntp5907
Rp5908
(dp5909
g69
g5903
sg61
(dp5910
g84
g85
ssg63
(lp5911
S'author'
p5912
asbag55
(g79
g57
Ntp5913
Rp5914
(dp5915
g69
g5903
sg61
(dp5916
g92
g93
ssg63
(lp5917
g95
asbag55
(g79
g57
Ntp5918
Rp5919
(dp5920
g69
g5903
sg61
(dp5921
sg63
(lp5922
g55
(g56
g57
Ntp5923
Rp5924
(dp5925
g69
g5919
sg61
(dp5926
g71
I4
ssg63
(lp5927
S'Your Name <you@example.com>'
p5928
asbasbasbag55
(g73
g57
Ntp5929
Rp5930
(dp5931
g69
g5898
sg61
(dp5932
sg63
(lp5933
g55
(g79
g57
Ntp5934
Rp5935
(dp5936
g69
g5930
sg61
(dp5937
g84
g85
ssg63
(lp5938
S'copyright'
p5939
asbag55
(g79
g57
Ntp5940
Rp5941
(dp5942
g69
g5930
sg61
(dp5943
g92
g93
ssg63
(lp5944
g95
asbag55
(g79
g57
Ntp5945
Rp5946
(dp5947
g69
g5930
sg61
(dp5948
sg63
(lp5949
g55
(g56
g57
Ntp5950
Rp5951
(dp5952
g69
g5946
sg61
(dp5953
g71
I4
ssg63
(lp5954
S'Copyright 2011'
p5955
asbasbasbag55
(g73
g57
Ntp5956
Rp5957
(dp5958
g69
g5898
sg61
(dp5959
sg63
(lp5960
g55
(g79
g57
Ntp5961
Rp5962
(dp5963
g69
g5957
sg61
(dp5964
g84
g85
ssg63
(lp5965
S'description'
p5966
asbag55
(g79
g57
Ntp5967
Rp5968
(dp5969
g69
g5957
sg61
(dp5970
g92
g93
ssg63
(lp5971
g95
asbag55
(g79
g57
Ntp5972
Rp5973
(dp5974
g69
g5957
sg61
(dp5975
sg63
(lp5976
g55
(g56
g57
Ntp5977
Rp5978
(dp5979
g69
g5973
sg61
(dp5980
g71
I4
ssg63
(lp5981
S'a cool new app'
p5982
asbasbasbag55
(g73
g57
Ntp5983
Rp5984
(dp5985
g69
g5898
sg61
(dp5986
sg63
(lp5987
g55
(g79
g57
Ntp5988
Rp5989
(dp5990
g69
g5984
sg61
(dp5991
g84
g85
ssg63
(lp5992
S'generator'
p5993
asbag55
(g79
g57
Ntp5994
Rp5995
(dp5996
g69
g5984
sg61
(dp5997
g92
g93
ssg63
(lp5998
g95
asbag55
(g79
g57
Ntp5999
Rp6000
(dp6001
g69
g5984
sg61
(dp6002
sg63
(lp6003
g55
(g56
g57
Ntp6004
Rp6005
(dp6006
g69
g6000
sg61
(dp6007
g71
I4
ssg63
(lp6008
S'Web2py Web Framework'
p6009
asbasbasbag55
(g73
g57
Ntp6010
Rp6011
(dp6012
g69
g5898
sg61
(dp6013
sg63
(lp6014
g55
(g79
g57
Ntp6015
Rp6016
(dp6017
g69
g6011
sg61
(dp6018
g84
g85
ssg63
(lp6019
S'keywords'
p6020
asbag55
(g79
g57
Ntp6021
Rp6022
(dp6023
g69
g6011
sg61
(dp6024
g92
g93
ssg63
(lp6025
g95
asbag55
(g79
g57
Ntp6026
Rp6027
(dp6028
g69
g6011
sg61
(dp6029
sg63
(lp6030
g55
(g56
g57
Ntp6031
Rp6032
(dp6033
g69
g6027
sg61
(dp6034
g71
I4
ssg63
(lp6035
S'web2py, python, framework'
p6036
asbasbasbasbasbasbasbag55
(g73
g57
Ntp6037
Rp6038
(dp6039
g69
g4809
sg61
(dp6040
sg63
(lp6041
g55
(g79
g57
Ntp6042
Rp6043
(dp6044
g69
g6038
sg61
(dp6045
g84
g85
ssg63
(lp6046
S'postprocessing'
p6047
asbag55
(g79
g57
Ntp6048
Rp6049
(dp6050
g69
g6038
sg61
(dp6051
g92
g93
ssg63
(lp6052
g95
asbag55
(g79
g57
Ntp6053
Rp6054
(dp6055
g69
g6038
sg61
(dp6056
sg63
(lp6057
g55
(g56
g57
Ntp6058
Rp6059
(dp6060
g69
g6054
sg61
(dp6061
g71
I5
ssg63
(lp6062
g55
(g65
g57
Ntp6063
Rp6064
(dp6065
g69
Nsg61
(dp6066
g71
I4
ssg63
(lp6067
sbasbasbasbag55
(g73
g57
Ntp6068
Rp6069
(dp6070
g69
g4809
sg61
(dp6071
sg63
(lp6072
g55
(g79
g57
Ntp6073
Rp6074
(dp6075
g69
g6069
sg61
(dp6076
g84
g85
ssg63
(lp6077
S'session_file'
p6078
asbag55
(g79
g57
Ntp6079
Rp6080
(dp6081
g69
g6069
sg61
(dp6082
g92
g93
ssg63
(lp6083
g95
asbag55
(g79
g57
Ntp6084
Rp6085
(dp6086
g69
g6069
sg61
(dp6087
sg63
(lp6088
g55
(g56
g57
Ntp6089
Rp6090
(dp6091
g69
g6085
sg61
(dp6092
g71
I5
ssg63
(lp6093
S"<open file '/home/marco/projects/milanel/web2py/applications/fragance/sessions/127.0.0.1-4c183531-58d1-419b-bed0-c56856f380cb', mode 'rb+' at 0x000000000a4a9268>"
p6094
asbasbasbag55
(g73
g57
Ntp6095
Rp6096
(dp6097
g69
g4809
sg61
(dp6098
sg63
(lp6099
g55
(g79
g57
Ntp6100
Rp6101
(dp6102
g69
g6096
sg61
(dp6103
g84
g85
ssg63
(lp6104
S'session_filename'
p6105
asbag55
(g79
g57
Ntp6106
Rp6107
(dp6108
g69
g6096
sg61
(dp6109
g92
g93
ssg63
(lp6110
g95
asbag55
(g79
g57
Ntp6111
Rp6112
(dp6113
g69
g6096
sg61
(dp6114
sg63
(lp6115
g55
(g56
g57
Ntp6116
Rp6117
(dp6118
g69
g6112
sg61
(dp6119
g71
I5
ssg63
(lp6120
S'/home/marco/projects/milanel/web2py/applications/fragance/sessions/127.0.0.1-4c183531-58d1-419b-bed0-c56856f380cb'
p6121
asbasbasbag55
(g73
g57
Ntp6122
Rp6123
(dp6124
g69
g4809
sg61
(dp6125
sg63
(lp6126
g55
(g79
g57
Ntp6127
Rp6128
(dp6129
g69
g6123
sg61
(dp6130
g84
g85
ssg63
(lp6131
S'session_id'
p6132
asbag55
(g79
g57
Ntp6133
Rp6134
(dp6135
g69
g6123
sg61
(dp6136
g92
g93
ssg63
(lp6137
g95
asbag55
(g79
g57
Ntp6138
Rp6139
(dp6140
g69
g6123
sg61
(dp6141
sg63
(lp6142
g55
(g56
g57
Ntp6143
Rp6144
(dp6145
g69
g6139
sg61
(dp6146
g71
I5
ssg63
(lp6147
S'127.0.0.1-4c183531-58d1-419b-bed0-c56856f380cb'
p6148
asbasbasbag55
(g73
g57
Ntp6149
Rp6150
(dp6151
g69
g4809
sg61
(dp6152
sg63
(lp6153
g55
(g79
g57
Ntp6154
Rp6155
(dp6156
g69
g6150
sg61
(dp6157
g84
g85
ssg63
(lp6158
S'session_id_name'
p6159
asbag55
(g79
g57
Ntp6160
Rp6161
(dp6162
g69
g6150
sg61
(dp6163
g92
g93
ssg63
(lp6164
g95
asbag55
(g79
g57
Ntp6165
Rp6166
(dp6167
g69
g6150
sg61
(dp6168
sg63
(lp6169
g55
(g56
g57
Ntp6170
Rp6171
(dp6172
g69
g6166
sg61
(dp6173
g71
I5
ssg63
(lp6174
g4879
asbasbasbag55
(g73
g57
Ntp6175
Rp6176
(dp6177
g69
g4809
sg61
(dp6178
sg63
(lp6179
g55
(g79
g57
Ntp6180
Rp6181
(dp6182
g69
g6176
sg61
(dp6183
g84
g85
ssg63
(lp6184
S'session_locked'
p6185
asbag55
(g79
g57
Ntp6186
Rp6187
(dp6188
g69
g6176
sg61
(dp6189
g92
g93
ssg63
(lp6190
g95
asbag55
(g79
g57
Ntp6191
Rp6192
(dp6193
g69
g6176
sg61
(dp6194
sg63
(lp6195
g55
(g56
g57
Ntp6196
Rp6197
(dp6198
g69
g6192
sg61
(dp6199
g71
I5
ssg63
(lp6200
g2488
asbasbasbag55
(g73
g57
Ntp6201
Rp6202
(dp6203
g69
g4809
sg61
(dp6204
sg63
(lp6205
g55
(g79
g57
Ntp6206
Rp6207
(dp6208
g69
g6202
sg61
(dp6209
g84
g85
ssg63
(lp6210
S'session_new'
p6211
asbag55
(g79
g57
Ntp6212
Rp6213
(dp6214
g69
g6202
sg61
(dp6215
g92
g93
ssg63
(lp6216
g95
asbag55
(g79
g57
Ntp6217
Rp6218
(dp6219
g69
g6202
sg61
(dp6220
sg63
(lp6221
g55
(g56
g57
Ntp6222
Rp6223
(dp6224
g69
g6218
sg61
(dp6225
g71
I5
ssg63
(lp6226
g158
asbasbasbag55
(g73
g57
Ntp6227
Rp6228
(dp6229
g69
g4809
sg61
(dp6230
sg63
(lp6231
g55
(g79
g57
Ntp6232
Rp6233
(dp6234
g69
g6228
sg61
(dp6235
g84
g85
ssg63
(lp6236
S'status'
p6237
asbag55
(g79
g57
Ntp6238
Rp6239
(dp6240
g69
g6228
sg61
(dp6241
g92
g93
ssg63
(lp6242
g95
asbag55
(g79
g57
Ntp6243
Rp6244
(dp6245
g69
g6228
sg61
(dp6246
sg63
(lp6247
g55
(g56
g57
Ntp6248
Rp6249
(dp6250
g69
g6244
sg61
(dp6251
g71
I5
ssg63
(lp6252
S'200'
p6253
asbasbasbag55
(g73
g57
Ntp6254
Rp6255
(dp6256
g69
g4809
sg61
(dp6257
sg63
(lp6258
g55
(g79
g57
Ntp6259
Rp6260
(dp6261
g69
g6255
sg61
(dp6262
g84
g85
ssg63
(lp6263
S'subtitle'
p6264
asbag55
(g79
g57
Ntp6265
Rp6266
(dp6267
g69
g6255
sg61
(dp6268
g92
g93
ssg63
(lp6269
g95
asbag55
(g79
g57
Ntp6270
Rp6271
(dp6272
g69
g6255
sg61
(dp6273
sg63
(lp6274
g55
(g56
g57
Ntp6275
Rp6276
(dp6277
g69
g6271
sg61
(dp6278
g71
I5
ssg63
(lp6279
g5629
(S's\r\x00\x00\x00customize me!'
p6280
tp6281
Rp6282
asbasbasbag55
(g73
g57
Ntp6283
Rp6284
(dp6285
g69
g4809
sg61
(dp6286
sg63
(lp6287
g55
(g79
g57
Ntp6288
Rp6289
(dp6290
g69
g6284
sg61
(dp6291
g84
g85
ssg63
(lp6292
S'title'
p6293
asbag55
(g79
g57
Ntp6294
Rp6295
(dp6296
g69
g6284
sg61
(dp6297
g92
g93
ssg63
(lp6298
g95
asbag55
(g79
g57
Ntp6299
Rp6300
(dp6301
g69
g6284
sg61
(dp6302
sg63
(lp6303
g55
(g56
g57
Ntp6304
Rp6305
(dp6306
g69
g6300
sg61
(dp6307
g71
I5
ssg63
(lp6308
S'Fragance'
p6309
asbasbasbag55
(g73
g57
Ntp6310
Rp6311
(dp6312
g69
g4809
sg61
(dp6313
sg63
(lp6314
g55
(g79
g57
Ntp6315
Rp6316
(dp6317
g69
g6311
sg61
(dp6318
g84
g85
ssg63
(lp6319
g3935
asbag55
(g79
g57
Ntp6320
Rp6321
(dp6322
g69
g6311
sg61
(dp6323
g92
g93
ssg63
(lp6324
g95
asbag55
(g79
g57
Ntp6325
Rp6326
(dp6327
g69
g6311
sg61
(dp6328
sg63
(lp6329
g55
(g56
g57
Ntp6330
Rp6331
(dp6332
g69
g6326
sg61
(dp6333
g71
I5
ssg63
(lp6334
g3951
asbasbasbag55
(g73
g57
Ntp6335
Rp6336
(dp6337
g69
g4809
sg61
(dp6338
sg63
(lp6339
g55
(g79
g57
Ntp6340
Rp6341
(dp6342
g69
g6336
sg61
(dp6343
g84
g85
ssg63
(lp6344
S'view'
p6345
asbag55
(g79
g57
Ntp6346
Rp6347
(dp6348
g69
g6336
sg61
(dp6349
g92
g93
ssg63
(lp6350
g95
asbag55
(g79
g57
Ntp6351
Rp6352
(dp6353
g69
g6336
sg61
(dp6354
sg63
(lp6355
g55
(g56
g57
Ntp6356
Rp6357
(dp6358
g69
g6352
sg61
(dp6359
g71
I5
ssg63
(lp6360
S'appadmin.html'
p6361
asbasbasbasbasbsS'frames'
p6362
(lp6363
(dp6364
S'file'
p6365
S'/home/marco/projects/milanel/web2py/gluon/restricted.py'
p6366
sS'call'
p6367
S'(code=r"response.write(\'<!DOCTYPE html>\\n<!-- paulirish....ponse.write(\'\\n</body>\\n</html>\\n\', escape=False)", environment={\'A\': <class \'gluon.html.A\'>, \'Auth\': <class \'gluon.tools.Auth\'>, \'B\': <class \'gluon.html.B\'>, \'BEAUTIFY\': <class \'gluon.html.BEAUTIFY\'>, \'BODY\': <class \'gluon.html.BODY\'>, \'BR\': <class \'gluon.html.BR\'>, \'BUTTON\': <class \'gluon.html.BUTTON\'>, \'CAT\': <class \'gluon.html.CAT\'>, \'CENTER\': <class \'gluon.html.CENTER\'>, \'CLEANUP\': <class \'gluon.validators.CLEANUP\'>, ...}, layer=\'/home/marco/projects/milanel/web2py/applications/fragance/views/appadmin.html\')'
p6368
sS'func'
p6369
S'restricted'
p6370
sS'dump'
p6371
(dp6372
S'environment'
p6373
S"{'A': <class 'gluon.html.A'>, 'Auth': <class 'gluon.tools.Auth'>, 'B': <class 'gluon.html.B'>, 'BEAUTIFY': <class 'gluon.html.BEAUTIFY'>, 'BODY': <class 'gluon.html.BODY'>, 'BR': <class 'gluon.html.BR'>, 'BUTTON': <class 'gluon.html.BUTTON'>, 'CAT': <class 'gluon.html.CAT'>, 'CENTER': <class 'gluon.html.CENTER'>, 'CLEANUP': <class 'gluon.validators.CLEANUP'>, ...}"
p6374
sS'ccode'
p6375
S"<code object <module>, file '/home/marco/project...plications/fragance/views/appadmin.html', line 1>"
p6376
ssS'lnum'
p6377
I205
sS'lines'
p6378
(dp6379
I208
S'    except RestrictedError:'
p6380
sI209
S'        # do not encapsulate (obfuscate) the original RestrictedError'
p6381
sI200
S'    try:'
p6382
sI201
S'        if type(code) == types.CodeType:'
p6383
sI202
S'            ccode = code'
p6384
sI203
S'        else:'
p6385
sI204
S'            ccode = compile2(code,layer)'
p6386
sI205
S'        exec ccode in environment'
p6387
sI206
S'    except HTTP:'
p6388
sI207
S'        raise'
p6389
ssa(dp6390
g6365
S'/home/marco/projects/milanel/web2py/applications/fragance/views/appadmin.html'
p6391
sg6367
S'()'
p6392
sg6369
S'<module>'
p6393
sg6371
(dp6394
S'div'
p6395
S'undefined'
p6396
sS'id'
p6397
g6396
ssg6377
I180
sg6378
(dp6398
I171
S"        response.write(' ]', escape=False)"
p6399
sI172
S'        pass'
p6400
sI173
S"    response.write('    \\n    ', escape=False)"
p6401
sI174
S'    if rows:'
p6402
sI175
S'        response.write(\'\\n       <div style="overflow: auto;" width="80%">\\n       \', escape=False)'
p6403
sI176
S"        linkto=URL('update',args=request.args[0])"
p6404
sI177
S"        response.write('\\n       ', escape=False)"
p6405
sI178
S"        upload=URL('download',args=request.args[0])"
p6406
sI179
S"        response.write('    \\n       ', escape=False)"
p6407
sI180
S"        response.write(SQLTABLE(rows,linkto,upload,orderby=True,_class='sortable'))"
p6408
sI181
S"        response.write('\\n       </div>\\n    ', escape=False)"
p6409
sI182
S'        pass'
p6410
sI183
S"    response.write('\\n    <br/><br/><h3>', escape=False)"
p6411
sI184
S'    response.write(T("Import/Export"))'
p6412
sI185
S'    response.write(\'</h3><br/>\\n    [ <a href="\', escape=False)'
p6413
sI186
S"    response.write(URL('csv',args=request.args[0],vars=dict(query=query)))"
p6414
sI187
S'    response.write(\'">\', escape=False)'
p6415
sI188
S'    response.write(T("export as csv file"))'
p6416
sI189
S"    response.write('</a> ]\\n  ', escape=False)"
p6417
sI190
S'    if table:'
p6418
ssa(dp6419
g6365
S'/home/marco/projects/milanel/web2py/gluon/sqlhtml.py'
p6420
sg6367
S"(self=<gluon.sqlhtml.SQLTABLE object>, sqlrows=<gluon.dal.Rows object>, linkto='/fragance/appadmin/update/db', upload='/fragance/appadmin/download/db', orderby=True, headers={}, truncate=16, columns=['articulo.id', 'articulo.codigo', 'articulo.descripcion', 'articulo.cantidad', 'articulo.plista', 'articulo.proveedor', 'articulo.uingreso'], th_link='', extracolumns=None, selectid=None, renderstyle=False, **attributes={'_class': 'sortable'})"
p6421
sg6369
S'__init__'
p6422
sg6371
(dp6423
S'builtinstr'
p6424
S"<type 'str'>"
p6425
sS'field'
p6426
S'<gluon.dal.Field object>'
p6427
sS'r'
p6428
S"'15/12/2011'"
p6429
sS'field.formatter'
p6430
S'<bound method Field.formatter of <gluon.dal.Field object>>'
p6431
ssg6377
I2218
sg6378
(dp6432
I2213
S'                    elif r:'
p6433
sI2214
S"                        r = 'file'"
p6434
sI2215
S'                    else:'
p6435
sI2216
S"                        r = ''"
p6436
sI2217
S"                elif field.type in ['string','text']:"
p6437
sI2218
S'                    r = str(field.formatter(r))'
p6438
sI2219
S'                    if headers!={}: #new implement dict'
p6439
sI2220
S'                        if isinstance(headers[colname],dict):'
p6440
sI2221
S"                            if isinstance(headers[colname]['truncate'], int):"
p6441
sI2222
S"                                r = truncate_string(r, headers[colname]['truncate'])"
p6442
ssa(dp6443
g6365
S'/home/marco/projects/milanel/web2py/gluon/dal.py'
p6444
sg6367
S"(self=<gluon.dal.Field object>, value='15/12/2011')"
p6445
sg6369
S'formatter'
p6446
sg6371
(dp6447
S'item'
p6448
S'<gluon.validators.IS_DATE object>'
p6449
sS'item.formatter'
p6450
S'<bound method IS_DATE.formatter of <gluon.validators.IS_DATE object>>'
p6451
sS'value'
p6452
S"'15/12/2011'"
p6453
ssg6377
I7424
sg6378
(dp6454
I7424
S'                value = item.formatter(value)'
p6455
sI7425
S'        return value'
p6456
sI7426
S''
p6457
sI7427
S'    def validate(self, value):'
p6458
sI7428
S'        if not self.requires:'
p6459
sI7419
S'        else:'
p6460
sI7420
S'            requires = copy.copy(self.requires)'
p6461
sI7421
S'        requires.reverse()'
p6462
sI7422
S'        for item in requires:'
p6463
sI7423
S"            if hasattr(item, 'formatter'):"
p6464
ssa(dp6465
g6365
S'/home/marco/projects/milanel/web2py/gluon/validators.py'
p6466
sg6367
S"(self=<gluon.validators.IS_DATE object>, value='15/12/2011')"
p6467
sg6369
S'formatter'
p6468
sg6371
(dp6469
S'value.year'
p6470
g6396
sS'value'
p6471
S"'15/12/2011'"
p6472
sS'year'
p6473
g6396
ssg6377
I2127
sg6378
(dp6474
I2128
S"        y = '%.4i' % year"
p6475
sI2129
S"        format = format.replace('%y',y[-2:])"
p6476
sI2130
S"        format = format.replace('%Y',y)"
p6477
sI2131
S'        if year<1900:'
p6478
sI2122
S'        except:'
p6479
sI2123
S'            return (value, translate(self.error_message) % IS_DATETIME.nice(self.format))'
p6480
sI2124
S''
p6481
sI2125
S'    def formatter(self, value):'
p6482
sI2126
S'        format = self.format'
p6483
sI2127
S'        year = value.year'
p6484
ssassS'traceback'
p6485
S'Traceback (most recent call last):\n  File "/home/marco/projects/milanel/web2py/gluon/restricted.py", line 205, in restricted\n    exec ccode in environment\n  File "/home/marco/projects/milanel/web2py/applications/fragance/views/appadmin.html", line 180, in <module>\n    <div class="hidden" id="ram_keys">\n  File "/home/marco/projects/milanel/web2py/gluon/sqlhtml.py", line 2218, in __init__\n    r = str(field.formatter(r))\n  File "/home/marco/projects/milanel/web2py/gluon/dal.py", line 7424, in formatter\n    value = item.formatter(value)\n  File "/home/marco/projects/milanel/web2py/gluon/validators.py", line 2127, in formatter\n    year = value.year\nAttributeError: \'str\' object has no attribute \'year\'\n'
p6486
s.