(dp1
S'output'
p2
S"<type 'exceptions.SyntaxError'> Field: unknown field type: list:db.articulo for articulo"
p3
sS'layer'
p4
S'/home/marco/projects/milanel/web2py/applications/fragance/models/db_interno.py'
p5
sS'code'
p6
S"# coding: utf8\n\ndb.define_table('proveedor',\n    Field('nombre'),\n    Field('telefono','integer'),\n    Field('domicilio'),\n    Field('email','string'),\n    format='%(id)s - %(nombre)s'\n    \n    )\n\ndb.define_table('articulo',\n    Field('codigo'),\n    Field('descripcion','string'),\n    Field('cantidad'),\n    Field('plista'),\n    Field('proveedor',db.proveedor),\n    Field('uingreso','date'),\n    format='%(descripcion)s'\n    )\n\ndb.define_table('cliente',\n    Field('nombre'),\n    Field('rsocial'),\n    Field('domicilio'),\n    Field('telefono'),\n    format='%(id)s - %(nombre)s'\n    )\n\ndb.define_table('venta',\n    Field('cliente',db.cliente),\n    Field('articulo','list:db.articulo'),\n    Field('total','double'),\n    Field('fventa','datetime')\n    )\n\ndb.articulo.uingreso.requires=IS_DATE(format=T('%Y-%m-%d'))\n"
p7
sS'snapshot'
p8
(dp9
S'exception'
p10
(dp11
S'__getslice__'
p12
S"<method-wrapper '__getslice__' of exceptions.SyntaxError object>"
p13
sS'text'
p14
S'None'
p15
sS'__str__'
p16
S"<method-wrapper '__str__' of exceptions.SyntaxError object>"
p17
sS'__reduce__'
p18
S'<built-in method __reduce__ of exceptions.SyntaxError object>'
p19
sS'__dict__'
p20
S'{}'
p21
sS'__sizeof__'
p22
S'<built-in method __sizeof__ of exceptions.SyntaxError object>'
p23
sS'__init__'
p24
S"<method-wrapper '__init__' of exceptions.SyntaxError object>"
p25
sS'__setattr__'
p26
S"<method-wrapper '__setattr__' of exceptions.SyntaxError object>"
p27
sS'__reduce_ex__'
p28
S'<built-in method __reduce_ex__ of exceptions.SyntaxError object>'
p29
sS'__new__'
p30
S'<built-in method __new__ of type object>'
p31
sS'__format__'
p32
S'<built-in method __format__ of exceptions.SyntaxError object>'
p33
sS'__class__'
p34
S"<type 'exceptions.SyntaxError'>"
p35
sS'filename'
p36
S'None'
p37
sS'lineno'
p38
S'None'
p39
sS'msg'
p40
S"'Field: unknown field type: list:db.articulo for articulo'"
p41
sS'__doc__'
p42
S"'Invalid syntax.'"
p43
sS'__getitem__'
p44
S"<method-wrapper '__getitem__' of exceptions.SyntaxError object>"
p45
sS'__setstate__'
p46
S'<built-in method __setstate__ of exceptions.SyntaxError object>'
p47
sS'__getattribute__'
p48
S"<method-wrapper '__getattribute__' of exceptions.SyntaxError object>"
p49
sS'print_file_and_line'
p50
S'None'
p51
sS'args'
p52
S"('Field: unknown field type: list:db.articulo for articulo',)"
p53
sS'__subclasshook__'
p54
S'<built-in method __subclasshook__ of type object>'
p55
sS'offset'
p56
S'None'
p57
sS'__unicode__'
p58
S'<built-in method __unicode__ of exceptions.SyntaxError object>'
p59
sS'__delattr__'
p60
S"<method-wrapper '__delattr__' of exceptions.SyntaxError object>"
p61
sS'__repr__'
p62
S"<method-wrapper '__repr__' of exceptions.SyntaxError object>"
p63
sS'__hash__'
p64
S"<method-wrapper '__hash__' of exceptions.SyntaxError object>"
p65
ssS'evalue'
p66
S'Field: unknown field type: list:db.articulo for articulo'
p67
sS'request'
p68
ccopy_reg
_reconstructor
p69
(cgluon.html
BEAUTIFY
p70
c__builtin__
object
p71
NtRp72
(dp73
S'attributes'
p74
(dp75
sS'components'
p76
(lp77
g69
(cgluon.html
TABLE
p78
g71
NtRp79
(dp80
g74
(dp81
S'level'
p82
I5
ssS'parent'
p83
Nsg76
(lp84
g69
(cgluon.html
TR
p85
g71
NtRp86
(dp87
g74
(dp88
sg83
g79
sg76
(lp89
g69
(cgluon.html
TD
p90
g71
NtRp91
(dp92
g74
(dp93
S'_style'
p94
S'font-weight:bold;vertical-align:top'
p95
ssg83
g86
sg76
(lp96
S'ajax'
p97
asbag69
(g90
g71
NtRp98
(dp99
g74
(dp100
S'_valign'
p101
S'top'
p102
ssg83
g86
sg76
(lp103
S':'
asbag69
(g90
g71
NtRp104
(dp105
g74
(dp106
sg83
g86
sg76
(lp107
g69
(g70
g71
NtRp108
(dp109
g74
(dp110
g82
I5
ssg83
g104
sg76
(lp111
S'False'
p112
asbasbasbag69
(g85
g71
NtRp113
(dp114
g74
(dp115
sg83
g79
sg76
(lp116
g69
(g90
g71
NtRp117
(dp118
g74
(dp119
g94
g95
ssg83
g113
sg76
(lp120
S'application'
p121
asbag69
(g90
g71
NtRp122
(dp123
g74
(dp124
g101
g102
ssg83
g113
sg76
(lp125
S':'
asbag69
(g90
g71
NtRp126
(dp127
g74
(dp128
sg83
g113
sg76
(lp129
g69
(g70
g71
NtRp130
(dp131
g74
(dp132
g82
I5
ssg83
g126
sg76
(lp133
S'fragance'
p134
asbasbasbag69
(g85
g71
NtRp135
(dp136
g74
(dp137
sg83
g79
sg76
(lp138
g69
(g90
g71
NtRp139
(dp140
g74
(dp141
g94
g95
ssg83
g135
sg76
(lp142
g52
asbag69
(g90
g71
NtRp143
(dp144
g74
(dp145
g101
g102
ssg83
g135
sg76
(lp146
S':'
asbag69
(g90
g71
NtRp147
(dp148
g74
(dp149
sg83
g135
sg76
(lp150
g69
(g70
g71
NtRp151
(dp152
g74
(dp153
g82
I5
ssg83
g147
sg76
(lp154
g69
(g78
g71
NtRp155
(dp156
g74
(dp157
g82
I4
ssg83
Nsg76
(lp158
sbasbasbasbag69
(g85
g71
NtRp159
(dp160
g74
(dp161
sg83
g79
sg76
(lp162
g69
(g90
g71
NtRp163
(dp164
g74
(dp165
g94
g95
ssg83
g159
sg76
(lp166
S'body'
p167
asbag69
(g90
g71
NtRp168
(dp169
g74
(dp170
g101
g102
ssg83
g159
sg76
(lp171
S':'
asbag69
(g90
g71
NtRp172
(dp173
g74
(dp174
sg83
g159
sg76
(lp175
g69
(g70
g71
NtRp176
(dp177
g74
(dp178
g82
I5
ssg83
g172
sg76
(lp179
S'<cStringIO.StringO object at 0x25fb538>'
p180
asbasbasbag69
(g85
g71
NtRp181
(dp182
g74
(dp183
sg83
g79
sg76
(lp184
g69
(g90
g71
NtRp185
(dp186
g74
(dp187
g94
g95
ssg83
g181
sg76
(lp188
S'client'
p189
asbag69
(g90
g71
NtRp190
(dp191
g74
(dp192
g101
g102
ssg83
g181
sg76
(lp193
S':'
asbag69
(g90
g71
NtRp194
(dp195
g74
(dp196
sg83
g181
sg76
(lp197
g69
(g70
g71
NtRp198
(dp199
g74
(dp200
g82
I5
ssg83
g194
sg76
(lp201
S'127.0.0.1'
p202
asbasbasbag69
(g85
g71
NtRp203
(dp204
g74
(dp205
sg83
g79
sg76
(lp206
g69
(g90
g71
NtRp207
(dp208
g74
(dp209
g94
g95
ssg83
g203
sg76
(lp210
S'controller'
p211
asbag69
(g90
g71
NtRp212
(dp213
g74
(dp214
g101
g102
ssg83
g203
sg76
(lp215
S':'
asbag69
(g90
g71
NtRp216
(dp217
g74
(dp218
sg83
g203
sg76
(lp219
g69
(g70
g71
NtRp220
(dp221
g74
(dp222
g82
I5
ssg83
g216
sg76
(lp223
S'salidas'
p224
asbasbasbag69
(g85
g71
NtRp225
(dp226
g74
(dp227
sg83
g79
sg76
(lp228
g69
(g90
g71
NtRp229
(dp230
g74
(dp231
g94
g95
ssg83
g225
sg76
(lp232
S'cookies'
p233
asbag69
(g90
g71
NtRp234
(dp235
g74
(dp236
g101
g102
ssg83
g225
sg76
(lp237
S':'
asbag69
(g90
g71
NtRp238
(dp239
g74
(dp240
sg83
g225
sg76
(lp241
g69
(g70
g71
NtRp242
(dp243
g74
(dp244
g82
I5
ssg83
g238
sg76
(lp245
g69
(g78
g71
NtRp246
(dp247
g74
(dp248
g82
I4
ssg83
Nsg76
(lp249
g69
(g85
g71
NtRp250
(dp251
g74
(dp252
sg83
g246
sg76
(lp253
g69
(g90
g71
NtRp254
(dp255
g74
(dp256
g94
g95
ssg83
g250
sg76
(lp257
S'session_id_flisol2012'
p258
asbag69
(g90
g71
NtRp259
(dp260
g74
(dp261
g101
g102
ssg83
g250
sg76
(lp262
S':'
asbag69
(g90
g71
NtRp263
(dp264
g74
(dp265
sg83
g250
sg76
(lp266
g69
(g70
g71
NtRp267
(dp268
g74
(dp269
g82
I4
ssg83
g263
sg76
(lp270
g69
(g78
g71
NtRp271
(dp272
g74
(dp273
g82
I3
ssg83
Nsg76
(lp274
g69
(g85
g71
NtRp275
(dp276
g74
(dp277
sg83
g271
sg76
(lp278
g69
(g90
g71
NtRp279
(dp280
g74
(dp281
g94
g95
ssg83
g275
sg76
(lp282
S'comment'
p283
asbag69
(g90
g71
NtRp284
(dp285
g74
(dp286
g101
g102
ssg83
g275
sg76
(lp287
S':'
asbag69
(g90
g71
NtRp288
(dp289
g74
(dp290
sg83
g275
sg76
(lp291
g69
(g70
g71
NtRp292
(dp293
g74
(dp294
g82
I3
ssg83
g288
sg76
(lp295
S''
asbasbasbag69
(g85
g71
NtRp296
(dp297
g74
(dp298
sg83
g271
sg76
(lp299
g69
(g90
g71
NtRp300
(dp301
g74
(dp302
g94
g95
ssg83
g296
sg76
(lp303
S'domain'
p304
asbag69
(g90
g71
NtRp305
(dp306
g74
(dp307
g101
g102
ssg83
g296
sg76
(lp308
S':'
asbag69
(g90
g71
NtRp309
(dp310
g74
(dp311
sg83
g296
sg76
(lp312
g69
(g70
g71
NtRp313
(dp314
g74
(dp315
g82
I3
ssg83
g309
sg76
(lp316
S''
asbasbasbag69
(g85
g71
NtRp317
(dp318
g74
(dp319
sg83
g271
sg76
(lp320
g69
(g90
g71
NtRp321
(dp322
g74
(dp323
g94
g95
ssg83
g317
sg76
(lp324
S'expires'
p325
asbag69
(g90
g71
NtRp326
(dp327
g74
(dp328
g101
g102
ssg83
g317
sg76
(lp329
S':'
asbag69
(g90
g71
NtRp330
(dp331
g74
(dp332
sg83
g317
sg76
(lp333
g69
(g70
g71
NtRp334
(dp335
g74
(dp336
g82
I3
ssg83
g330
sg76
(lp337
S''
asbasbasbag69
(g85
g71
NtRp338
(dp339
g74
(dp340
sg83
g271
sg76
(lp341
g69
(g90
g71
NtRp342
(dp343
g74
(dp344
g94
g95
ssg83
g338
sg76
(lp345
S'httponly'
p346
asbag69
(g90
g71
NtRp347
(dp348
g74
(dp349
g101
g102
ssg83
g338
sg76
(lp350
S':'
asbag69
(g90
g71
NtRp351
(dp352
g74
(dp353
sg83
g338
sg76
(lp354
g69
(g70
g71
NtRp355
(dp356
g74
(dp357
g82
I3
ssg83
g351
sg76
(lp358
S''
asbasbasbag69
(g85
g71
NtRp359
(dp360
g74
(dp361
sg83
g271
sg76
(lp362
g69
(g90
g71
NtRp363
(dp364
g74
(dp365
g94
g95
ssg83
g359
sg76
(lp366
S'max-age'
p367
asbag69
(g90
g71
NtRp368
(dp369
g74
(dp370
g101
g102
ssg83
g359
sg76
(lp371
S':'
asbag69
(g90
g71
NtRp372
(dp373
g74
(dp374
sg83
g359
sg76
(lp375
g69
(g70
g71
NtRp376
(dp377
g74
(dp378
g82
I3
ssg83
g372
sg76
(lp379
S''
asbasbasbag69
(g85
g71
NtRp380
(dp381
g74
(dp382
sg83
g271
sg76
(lp383
g69
(g90
g71
NtRp384
(dp385
g74
(dp386
g94
g95
ssg83
g380
sg76
(lp387
S'path'
p388
asbag69
(g90
g71
NtRp389
(dp390
g74
(dp391
g101
g102
ssg83
g380
sg76
(lp392
S':'
asbag69
(g90
g71
NtRp393
(dp394
g74
(dp395
sg83
g380
sg76
(lp396
g69
(g70
g71
NtRp397
(dp398
g74
(dp399
g82
I3
ssg83
g393
sg76
(lp400
S''
asbasbasbag69
(g85
g71
NtRp401
(dp402
g74
(dp403
sg83
g271
sg76
(lp404
g69
(g90
g71
NtRp405
(dp406
g74
(dp407
g94
g95
ssg83
g401
sg76
(lp408
S'secure'
p409
asbag69
(g90
g71
NtRp410
(dp411
g74
(dp412
g101
g102
ssg83
g401
sg76
(lp413
S':'
asbag69
(g90
g71
NtRp414
(dp415
g74
(dp416
sg83
g401
sg76
(lp417
g69
(g70
g71
NtRp418
(dp419
g74
(dp420
g82
I3
ssg83
g414
sg76
(lp421
S''
asbasbasbag69
(g85
g71
NtRp422
(dp423
g74
(dp424
sg83
g271
sg76
(lp425
g69
(g90
g71
NtRp426
(dp427
g74
(dp428
g94
g95
ssg83
g422
sg76
(lp429
S'version'
p430
asbag69
(g90
g71
NtRp431
(dp432
g74
(dp433
g101
g102
ssg83
g422
sg76
(lp434
S':'
asbag69
(g90
g71
NtRp435
(dp436
g74
(dp437
sg83
g422
sg76
(lp438
g69
(g70
g71
NtRp439
(dp440
g74
(dp441
g82
I3
ssg83
g435
sg76
(lp442
S''
asbasbasbasbasbasbasbag69
(g85
g71
NtRp443
(dp444
g74
(dp445
sg83
g246
sg76
(lp446
g69
(g90
g71
NtRp447
(dp448
g74
(dp449
g94
g95
ssg83
g443
sg76
(lp450
S'session_id_fragance'
p451
asbag69
(g90
g71
NtRp452
(dp453
g74
(dp454
g101
g102
ssg83
g443
sg76
(lp455
S':'
asbag69
(g90
g71
NtRp456
(dp457
g74
(dp458
sg83
g443
sg76
(lp459
g69
(g70
g71
NtRp460
(dp461
g74
(dp462
g82
I4
ssg83
g456
sg76
(lp463
g69
(g78
g71
NtRp464
(dp465
g74
(dp466
g82
I3
ssg83
Nsg76
(lp467
g69
(g85
g71
NtRp468
(dp469
g74
(dp470
sg83
g464
sg76
(lp471
g69
(g90
g71
NtRp472
(dp473
g74
(dp474
g94
g95
ssg83
g468
sg76
(lp475
g283
asbag69
(g90
g71
NtRp476
(dp477
g74
(dp478
g101
g102
ssg83
g468
sg76
(lp479
S':'
asbag69
(g90
g71
NtRp480
(dp481
g74
(dp482
sg83
g468
sg76
(lp483
g69
(g70
g71
NtRp484
(dp485
g74
(dp486
g82
I3
ssg83
g480
sg76
(lp487
S''
asbasbasbag69
(g85
g71
NtRp488
(dp489
g74
(dp490
sg83
g464
sg76
(lp491
g69
(g90
g71
NtRp492
(dp493
g74
(dp494
g94
g95
ssg83
g488
sg76
(lp495
g304
asbag69
(g90
g71
NtRp496
(dp497
g74
(dp498
g101
g102
ssg83
g488
sg76
(lp499
S':'
asbag69
(g90
g71
NtRp500
(dp501
g74
(dp502
sg83
g488
sg76
(lp503
g69
(g70
g71
NtRp504
(dp505
g74
(dp506
g82
I3
ssg83
g500
sg76
(lp507
S''
asbasbasbag69
(g85
g71
NtRp508
(dp509
g74
(dp510
sg83
g464
sg76
(lp511
g69
(g90
g71
NtRp512
(dp513
g74
(dp514
g94
g95
ssg83
g508
sg76
(lp515
g325
asbag69
(g90
g71
NtRp516
(dp517
g74
(dp518
g101
g102
ssg83
g508
sg76
(lp519
S':'
asbag69
(g90
g71
NtRp520
(dp521
g74
(dp522
sg83
g508
sg76
(lp523
g69
(g70
g71
NtRp524
(dp525
g74
(dp526
g82
I3
ssg83
g520
sg76
(lp527
S''
asbasbasbag69
(g85
g71
NtRp528
(dp529
g74
(dp530
sg83
g464
sg76
(lp531
g69
(g90
g71
NtRp532
(dp533
g74
(dp534
g94
g95
ssg83
g528
sg76
(lp535
g346
asbag69
(g90
g71
NtRp536
(dp537
g74
(dp538
g101
g102
ssg83
g528
sg76
(lp539
S':'
asbag69
(g90
g71
NtRp540
(dp541
g74
(dp542
sg83
g528
sg76
(lp543
g69
(g70
g71
NtRp544
(dp545
g74
(dp546
g82
I3
ssg83
g540
sg76
(lp547
S''
asbasbasbag69
(g85
g71
NtRp548
(dp549
g74
(dp550
sg83
g464
sg76
(lp551
g69
(g90
g71
NtRp552
(dp553
g74
(dp554
g94
g95
ssg83
g548
sg76
(lp555
g367
asbag69
(g90
g71
NtRp556
(dp557
g74
(dp558
g101
g102
ssg83
g548
sg76
(lp559
S':'
asbag69
(g90
g71
NtRp560
(dp561
g74
(dp562
sg83
g548
sg76
(lp563
g69
(g70
g71
NtRp564
(dp565
g74
(dp566
g82
I3
ssg83
g560
sg76
(lp567
S''
asbasbasbag69
(g85
g71
NtRp568
(dp569
g74
(dp570
sg83
g464
sg76
(lp571
g69
(g90
g71
NtRp572
(dp573
g74
(dp574
g94
g95
ssg83
g568
sg76
(lp575
g388
asbag69
(g90
g71
NtRp576
(dp577
g74
(dp578
g101
g102
ssg83
g568
sg76
(lp579
S':'
asbag69
(g90
g71
NtRp580
(dp581
g74
(dp582
sg83
g568
sg76
(lp583
g69
(g70
g71
NtRp584
(dp585
g74
(dp586
g82
I3
ssg83
g580
sg76
(lp587
S''
asbasbasbag69
(g85
g71
NtRp588
(dp589
g74
(dp590
sg83
g464
sg76
(lp591
g69
(g90
g71
NtRp592
(dp593
g74
(dp594
g94
g95
ssg83
g588
sg76
(lp595
g409
asbag69
(g90
g71
NtRp596
(dp597
g74
(dp598
g101
g102
ssg83
g588
sg76
(lp599
S':'
asbag69
(g90
g71
NtRp600
(dp601
g74
(dp602
sg83
g588
sg76
(lp603
g69
(g70
g71
NtRp604
(dp605
g74
(dp606
g82
I3
ssg83
g600
sg76
(lp607
S''
asbasbasbag69
(g85
g71
NtRp608
(dp609
g74
(dp610
sg83
g464
sg76
(lp611
g69
(g90
g71
NtRp612
(dp613
g74
(dp614
g94
g95
ssg83
g608
sg76
(lp615
g430
asbag69
(g90
g71
NtRp616
(dp617
g74
(dp618
g101
g102
ssg83
g608
sg76
(lp619
S':'
asbag69
(g90
g71
NtRp620
(dp621
g74
(dp622
sg83
g608
sg76
(lp623
g69
(g70
g71
NtRp624
(dp625
g74
(dp626
g82
I3
ssg83
g620
sg76
(lp627
S''
asbasbasbasbasbasbasbasbasbasbasbag69
(g85
g71
NtRp628
(dp629
g74
(dp630
sg83
g79
sg76
(lp631
g69
(g90
g71
NtRp632
(dp633
g74
(dp634
g94
g95
ssg83
g628
sg76
(lp635
S'env'
p636
asbag69
(g90
g71
NtRp637
(dp638
g74
(dp639
g101
g102
ssg83
g628
sg76
(lp640
S':'
asbag69
(g90
g71
NtRp641
(dp642
g74
(dp643
sg83
g628
sg76
(lp644
g69
(g70
g71
NtRp645
(dp646
g74
(dp647
g82
I5
ssg83
g641
sg76
(lp648
g69
(g78
g71
NtRp649
(dp650
g74
(dp651
g82
I4
ssg83
Nsg76
(lp652
g69
(g85
g71
NtRp653
(dp654
g74
(dp655
sg83
g649
sg76
(lp656
g69
(g90
g71
NtRp657
(dp658
g74
(dp659
g94
g95
ssg83
g653
sg76
(lp660
S'app_folders'
p661
asbag69
(g90
g71
NtRp662
(dp663
g74
(dp664
g101
g102
ssg83
g653
sg76
(lp665
S':'
asbag69
(g90
g71
NtRp666
(dp667
g74
(dp668
sg83
g653
sg76
(lp669
g69
(g70
g71
NtRp670
(dp671
g74
(dp672
g82
I4
ssg83
g666
sg76
(lp673
S"set(['/home/marco/projects/milanel/web2py/applications/fragance/'])"
p674
asbasbasbag69
(g85
g71
NtRp675
(dp676
g74
(dp677
sg83
g649
sg76
(lp678
g69
(g90
g71
NtRp679
(dp680
g74
(dp681
g94
g95
ssg83
g675
sg76
(lp682
S'applications_parent'
p683
asbag69
(g90
g71
NtRp684
(dp685
g74
(dp686
g101
g102
ssg83
g675
sg76
(lp687
S':'
asbag69
(g90
g71
NtRp688
(dp689
g74
(dp690
sg83
g675
sg76
(lp691
g69
(g70
g71
NtRp692
(dp693
g74
(dp694
g82
I4
ssg83
g688
sg76
(lp695
S'/home/marco/projects/milanel/web2py'
p696
asbasbasbag69
(g85
g71
NtRp697
(dp698
g74
(dp699
sg83
g649
sg76
(lp700
g69
(g90
g71
NtRp701
(dp702
g74
(dp703
g94
g95
ssg83
g697
sg76
(lp704
S'cmd_args'
p705
asbag69
(g90
g71
NtRp706
(dp707
g74
(dp708
g101
g102
ssg83
g697
sg76
(lp709
S':'
asbag69
(g90
g71
NtRp710
(dp711
g74
(dp712
sg83
g697
sg76
(lp713
g69
(g70
g71
NtRp714
(dp715
g74
(dp716
g82
I4
ssg83
g710
sg76
(lp717
g69
(g78
g71
NtRp718
(dp719
g74
(dp720
g82
I3
ssg83
Nsg76
(lp721
sbasbasbasbag69
(g85
g71
NtRp722
(dp723
g74
(dp724
sg83
g649
sg76
(lp725
g69
(g90
g71
NtRp726
(dp727
g74
(dp728
g94
g95
ssg83
g722
sg76
(lp729
S'cmd_options'
p730
asbag69
(g90
g71
NtRp731
(dp732
g74
(dp733
g101
g102
ssg83
g722
sg76
(lp734
S':'
asbag69
(g90
g71
NtRp735
(dp736
g74
(dp737
sg83
g722
sg76
(lp738
g69
(g70
g71
NtRp739
(dp740
g74
(dp741
g82
I4
ssg83
g735
sg76
(lp742
S"<Values at 0x1ea5ab8: {'verbose': False, 'ip': '127.0.0.1', 'shutdown_timeout': 5, 'taskbar': False, 'nocron': False, 'pid_filename': 'httpserver.pid', 'maxthreads': None, 'softcron': False, 'server_name': 'malena', 'bpython': False, 'nogui': False, 'port': 8000, 'extcron': False, 'debuglevel': 30, 'test': None, 'folder': '/home/marco/projects/milanel/web2py', 'config': '', 'import_models': False, 'winservice': '', 'shell': None, 'run': '', 'log_filename': 'httpserver.log', 'args': [''], 'socket_timeout': 5, 'ssl_ca_certificate': None, 'scheduler': None, 'profiler_filename': None, 'ssl_private_key': '', 'password': 'asd', 'request_queue_size': 5, 'ssl_certificate': '', 'cronjob': False, 'numthreads': None, 'quiet': False, 'interfaces': None, 'minthreads': None, 'timeout': 10, 'plain': False, 'nobanner': False}>"
p743
asbasbasbag69
(g85
g71
NtRp744
(dp745
g74
(dp746
sg83
g649
sg76
(lp747
g69
(g90
g71
NtRp748
(dp749
g74
(dp750
g94
g95
ssg83
g744
sg76
(lp751
S'db_sessions'
p752
asbag69
(g90
g71
NtRp753
(dp754
g74
(dp755
g101
g102
ssg83
g744
sg76
(lp756
S':'
asbag69
(g90
g71
NtRp757
(dp758
g74
(dp759
sg83
g744
sg76
(lp760
g69
(g70
g71
NtRp761
(dp762
g74
(dp763
g82
I4
ssg83
g757
sg76
(lp764
S'set([])'
p765
asbasbasbag69
(g85
g71
NtRp766
(dp767
g74
(dp768
sg83
g649
sg76
(lp769
g69
(g90
g71
NtRp770
(dp771
g74
(dp772
g94
g95
ssg83
g766
sg76
(lp773
S'debugging'
p774
asbag69
(g90
g71
NtRp775
(dp776
g74
(dp777
g101
g102
ssg83
g766
sg76
(lp778
S':'
asbag69
(g90
g71
NtRp779
(dp780
g74
(dp781
sg83
g766
sg76
(lp782
g69
(g70
g71
NtRp783
(dp784
g74
(dp785
g82
I4
ssg83
g779
sg76
(lp786
g112
asbasbasbag69
(g85
g71
NtRp787
(dp788
g74
(dp789
sg83
g649
sg76
(lp790
g69
(g90
g71
NtRp791
(dp792
g74
(dp793
g94
g95
ssg83
g787
sg76
(lp794
S'gluon_parent'
p795
asbag69
(g90
g71
NtRp796
(dp797
g74
(dp798
g101
g102
ssg83
g787
sg76
(lp799
S':'
asbag69
(g90
g71
NtRp800
(dp801
g74
(dp802
sg83
g787
sg76
(lp803
g69
(g70
g71
NtRp804
(dp805
g74
(dp806
g82
I4
ssg83
g800
sg76
(lp807
S'/home/marco/projects/milanel/web2py'
p808
asbasbasbag69
(g85
g71
NtRp809
(dp810
g74
(dp811
sg83
g649
sg76
(lp812
g69
(g90
g71
NtRp813
(dp814
g74
(dp815
g94
g95
ssg83
g809
sg76
(lp816
S'http_accept'
p817
asbag69
(g90
g71
NtRp818
(dp819
g74
(dp820
g101
g102
ssg83
g809
sg76
(lp821
S':'
asbag69
(g90
g71
NtRp822
(dp823
g74
(dp824
sg83
g809
sg76
(lp825
g69
(g70
g71
NtRp826
(dp827
g74
(dp828
g82
I4
ssg83
g822
sg76
(lp829
S'text/html,application/xhtml+xml,application/xml;q=0.9,*/*;q=0.8'
p830
asbasbasbag69
(g85
g71
NtRp831
(dp832
g74
(dp833
sg83
g649
sg76
(lp834
g69
(g90
g71
NtRp835
(dp836
g74
(dp837
g94
g95
ssg83
g831
sg76
(lp838
S'http_accept_encoding'
p839
asbag69
(g90
g71
NtRp840
(dp841
g74
(dp842
g101
g102
ssg83
g831
sg76
(lp843
S':'
asbag69
(g90
g71
NtRp844
(dp845
g74
(dp846
sg83
g831
sg76
(lp847
g69
(g70
g71
NtRp848
(dp849
g74
(dp850
g82
I4
ssg83
g844
sg76
(lp851
S'gzip, deflate'
p852
asbasbasbag69
(g85
g71
NtRp853
(dp854
g74
(dp855
sg83
g649
sg76
(lp856
g69
(g90
g71
NtRp857
(dp858
g74
(dp859
g94
g95
ssg83
g853
sg76
(lp860
S'http_accept_language'
p861
asbag69
(g90
g71
NtRp862
(dp863
g74
(dp864
g101
g102
ssg83
g853
sg76
(lp865
S':'
asbag69
(g90
g71
NtRp866
(dp867
g74
(dp868
sg83
g853
sg76
(lp869
g69
(g70
g71
NtRp870
(dp871
g74
(dp872
g82
I4
ssg83
g866
sg76
(lp873
S'es-ar,es;q=0.8,en-us;q=0.5,en;q=0.3'
p874
asbasbasbag69
(g85
g71
NtRp875
(dp876
g74
(dp877
sg83
g649
sg76
(lp878
g69
(g90
g71
NtRp879
(dp880
g74
(dp881
g94
g95
ssg83
g875
sg76
(lp882
S'http_cache_control'
p883
asbag69
(g90
g71
NtRp884
(dp885
g74
(dp886
g101
g102
ssg83
g875
sg76
(lp887
S':'
asbag69
(g90
g71
NtRp888
(dp889
g74
(dp890
sg83
g875
sg76
(lp891
g69
(g70
g71
NtRp892
(dp893
g74
(dp894
g82
I4
ssg83
g888
sg76
(lp895
S'max-age=0'
p896
asbasbasbag69
(g85
g71
NtRp897
(dp898
g74
(dp899
sg83
g649
sg76
(lp900
g69
(g90
g71
NtRp901
(dp902
g74
(dp903
g94
g95
ssg83
g897
sg76
(lp904
S'http_connection'
p905
asbag69
(g90
g71
NtRp906
(dp907
g74
(dp908
g101
g102
ssg83
g897
sg76
(lp909
S':'
asbag69
(g90
g71
NtRp910
(dp911
g74
(dp912
sg83
g897
sg76
(lp913
g69
(g70
g71
NtRp914
(dp915
g74
(dp916
g82
I4
ssg83
g910
sg76
(lp917
S'keep-alive'
p918
asbasbasbag69
(g85
g71
NtRp919
(dp920
g74
(dp921
sg83
g649
sg76
(lp922
g69
(g90
g71
NtRp923
(dp924
g74
(dp925
g94
g95
ssg83
g919
sg76
(lp926
S'http_cookie'
p927
asbag69
(g90
g71
NtRp928
(dp929
g74
(dp930
g101
g102
ssg83
g919
sg76
(lp931
S':'
asbag69
(g90
g71
NtRp932
(dp933
g74
(dp934
sg83
g919
sg76
(lp935
g69
(g70
g71
NtRp936
(dp937
g74
(dp938
g82
I4
ssg83
g932
sg76
(lp939
S'__utma=96992031.1881515701.1331265087.1331778935.1331861747.16; __utmz=96992031.1331265087.1.1.utmcsr=(direct)|utmccn=(direct)|utmcmd=(none); session_id_flisol2012=127.0.0.1-a2c26476-2def-41d1-823b-e270c04f3cc1; __utmc=96992031; session_id_fragance=127.0.0.1-2a880558-8c40-408d-a9a1-542af55b579f'
p940
asbasbasbag69
(g85
g71
NtRp941
(dp942
g74
(dp943
sg83
g649
sg76
(lp944
g69
(g90
g71
NtRp945
(dp946
g74
(dp947
g94
g95
ssg83
g941
sg76
(lp948
S'http_host'
p949
asbag69
(g90
g71
NtRp950
(dp951
g74
(dp952
g101
g102
ssg83
g941
sg76
(lp953
S':'
asbag69
(g90
g71
NtRp954
(dp955
g74
(dp956
sg83
g941
sg76
(lp957
g69
(g70
g71
NtRp958
(dp959
g74
(dp960
g82
I4
ssg83
g954
sg76
(lp961
S'127.0.0.1:8000'
p962
asbasbasbag69
(g85
g71
NtRp963
(dp964
g74
(dp965
sg83
g649
sg76
(lp966
g69
(g90
g71
NtRp967
(dp968
g74
(dp969
g94
g95
ssg83
g963
sg76
(lp970
S'http_user_agent'
p971
asbag69
(g90
g71
NtRp972
(dp973
g74
(dp974
g101
g102
ssg83
g963
sg76
(lp975
S':'
asbag69
(g90
g71
NtRp976
(dp977
g74
(dp978
sg83
g963
sg76
(lp979
g69
(g70
g71
NtRp980
(dp981
g74
(dp982
g82
I4
ssg83
g976
sg76
(lp983
S'Mozilla/5.0 (X11; Linux x86_64; rv:11.0) Gecko/20100101 Firefox/11.0 Iceweasel/11.0'
p984
asbasbasbag69
(g85
g71
NtRp985
(dp986
g74
(dp987
sg83
g649
sg76
(lp988
g69
(g90
g71
NtRp989
(dp990
g74
(dp991
g94
g95
ssg83
g985
sg76
(lp992
S'is_jython'
p993
asbag69
(g90
g71
NtRp994
(dp995
g74
(dp996
g101
g102
ssg83
g985
sg76
(lp997
S':'
asbag69
(g90
g71
NtRp998
(dp999
g74
(dp1000
sg83
g985
sg76
(lp1001
g69
(g70
g71
NtRp1002
(dp1003
g74
(dp1004
g82
I4
ssg83
g998
sg76
(lp1005
g112
asbasbasbag69
(g85
g71
NtRp1006
(dp1007
g74
(dp1008
sg83
g649
sg76
(lp1009
g69
(g90
g71
NtRp1010
(dp1011
g74
(dp1012
g94
g95
ssg83
g1006
sg76
(lp1013
S'is_pypy'
p1014
asbag69
(g90
g71
NtRp1015
(dp1016
g74
(dp1017
g101
g102
ssg83
g1006
sg76
(lp1018
S':'
asbag69
(g90
g71
NtRp1019
(dp1020
g74
(dp1021
sg83
g1006
sg76
(lp1022
g69
(g70
g71
NtRp1023
(dp1024
g74
(dp1025
g82
I4
ssg83
g1019
sg76
(lp1026
g112
asbasbasbag69
(g85
g71
NtRp1027
(dp1028
g74
(dp1029
sg83
g649
sg76
(lp1030
g69
(g90
g71
NtRp1031
(dp1032
g74
(dp1033
g94
g95
ssg83
g1027
sg76
(lp1034
S'path_info'
p1035
asbag69
(g90
g71
NtRp1036
(dp1037
g74
(dp1038
g101
g102
ssg83
g1027
sg76
(lp1039
S':'
asbag69
(g90
g71
NtRp1040
(dp1041
g74
(dp1042
sg83
g1027
sg76
(lp1043
g69
(g70
g71
NtRp1044
(dp1045
g74
(dp1046
g82
I4
ssg83
g1040
sg76
(lp1047
S'/fragance/salidas'
p1048
asbasbasbag69
(g85
g71
NtRp1049
(dp1050
g74
(dp1051
sg83
g649
sg76
(lp1052
g69
(g90
g71
NtRp1053
(dp1054
g74
(dp1055
g94
g95
ssg83
g1049
sg76
(lp1056
S'query_string'
p1057
asbag69
(g90
g71
NtRp1058
(dp1059
g74
(dp1060
g101
g102
ssg83
g1049
sg76
(lp1061
S':'
asbag69
(g90
g71
NtRp1062
(dp1063
g74
(dp1064
sg83
g1049
sg76
(lp1065
g69
(g70
g71
NtRp1066
(dp1067
g74
(dp1068
g82
I4
ssg83
g1062
sg76
(lp1069
S''
asbasbasbag69
(g85
g71
NtRp1070
(dp1071
g74
(dp1072
sg83
g649
sg76
(lp1073
g69
(g90
g71
NtRp1074
(dp1075
g74
(dp1076
g94
g95
ssg83
g1070
sg76
(lp1077
S'remote_addr'
p1078
asbag69
(g90
g71
NtRp1079
(dp1080
g74
(dp1081
g101
g102
ssg83
g1070
sg76
(lp1082
S':'
asbag69
(g90
g71
NtRp1083
(dp1084
g74
(dp1085
sg83
g1070
sg76
(lp1086
g69
(g70
g71
NtRp1087
(dp1088
g74
(dp1089
g82
I4
ssg83
g1083
sg76
(lp1090
g202
asbasbasbag69
(g85
g71
NtRp1091
(dp1092
g74
(dp1093
sg83
g649
sg76
(lp1094
g69
(g90
g71
NtRp1095
(dp1096
g74
(dp1097
g94
g95
ssg83
g1091
sg76
(lp1098
S'remote_port'
p1099
asbag69
(g90
g71
NtRp1100
(dp1101
g74
(dp1102
g101
g102
ssg83
g1091
sg76
(lp1103
S':'
asbag69
(g90
g71
NtRp1104
(dp1105
g74
(dp1106
sg83
g1091
sg76
(lp1107
g69
(g70
g71
NtRp1108
(dp1109
g74
(dp1110
g82
I4
ssg83
g1104
sg76
(lp1111
S'59364'
p1112
asbasbasbag69
(g85
g71
NtRp1113
(dp1114
g74
(dp1115
sg83
g649
sg76
(lp1116
g69
(g90
g71
NtRp1117
(dp1118
g74
(dp1119
g94
g95
ssg83
g1113
sg76
(lp1120
S'request_method'
p1121
asbag69
(g90
g71
NtRp1122
(dp1123
g74
(dp1124
g101
g102
ssg83
g1113
sg76
(lp1125
S':'
asbag69
(g90
g71
NtRp1126
(dp1127
g74
(dp1128
sg83
g1113
sg76
(lp1129
g69
(g70
g71
NtRp1130
(dp1131
g74
(dp1132
g82
I4
ssg83
g1126
sg76
(lp1133
S'GET'
p1134
asbasbasbag69
(g85
g71
NtRp1135
(dp1136
g74
(dp1137
sg83
g649
sg76
(lp1138
g69
(g90
g71
NtRp1139
(dp1140
g74
(dp1141
g94
g95
ssg83
g1135
sg76
(lp1142
S'script_name'
p1143
asbag69
(g90
g71
NtRp1144
(dp1145
g74
(dp1146
g101
g102
ssg83
g1135
sg76
(lp1147
S':'
asbag69
(g90
g71
NtRp1148
(dp1149
g74
(dp1150
sg83
g1135
sg76
(lp1151
g69
(g70
g71
NtRp1152
(dp1153
g74
(dp1154
g82
I4
ssg83
g1148
sg76
(lp1155
S''
asbasbasbag69
(g85
g71
NtRp1156
(dp1157
g74
(dp1158
sg83
g649
sg76
(lp1159
g69
(g90
g71
NtRp1160
(dp1161
g74
(dp1162
g94
g95
ssg83
g1156
sg76
(lp1163
S'server_name'
p1164
asbag69
(g90
g71
NtRp1165
(dp1166
g74
(dp1167
g101
g102
ssg83
g1156
sg76
(lp1168
S':'
asbag69
(g90
g71
NtRp1169
(dp1170
g74
(dp1171
sg83
g1156
sg76
(lp1172
g69
(g70
g71
NtRp1173
(dp1174
g74
(dp1175
g82
I4
ssg83
g1169
sg76
(lp1176
S'malena'
p1177
asbasbasbag69
(g85
g71
NtRp1178
(dp1179
g74
(dp1180
sg83
g649
sg76
(lp1181
g69
(g90
g71
NtRp1182
(dp1183
g74
(dp1184
g94
g95
ssg83
g1178
sg76
(lp1185
S'server_port'
p1186
asbag69
(g90
g71
NtRp1187
(dp1188
g74
(dp1189
g101
g102
ssg83
g1178
sg76
(lp1190
S':'
asbag69
(g90
g71
NtRp1191
(dp1192
g74
(dp1193
sg83
g1178
sg76
(lp1194
g69
(g70
g71
NtRp1195
(dp1196
g74
(dp1197
g82
I4
ssg83
g1191
sg76
(lp1198
S'8000'
p1199
asbasbasbag69
(g85
g71
NtRp1200
(dp1201
g74
(dp1202
sg83
g649
sg76
(lp1203
g69
(g90
g71
NtRp1204
(dp1205
g74
(dp1206
g94
g95
ssg83
g1200
sg76
(lp1207
S'server_protocol'
p1208
asbag69
(g90
g71
NtRp1209
(dp1210
g74
(dp1211
g101
g102
ssg83
g1200
sg76
(lp1212
S':'
asbag69
(g90
g71
NtRp1213
(dp1214
g74
(dp1215
sg83
g1200
sg76
(lp1216
g69
(g70
g71
NtRp1217
(dp1218
g74
(dp1219
g82
I4
ssg83
g1213
sg76
(lp1220
S'HTTP/1.1'
p1221
asbasbasbag69
(g85
g71
NtRp1222
(dp1223
g74
(dp1224
sg83
g649
sg76
(lp1225
g69
(g90
g71
NtRp1226
(dp1227
g74
(dp1228
g94
g95
ssg83
g1222
sg76
(lp1229
S'server_software'
p1230
asbag69
(g90
g71
NtRp1231
(dp1232
g74
(dp1233
g101
g102
ssg83
g1222
sg76
(lp1234
S':'
asbag69
(g90
g71
NtRp1235
(dp1236
g74
(dp1237
sg83
g1222
sg76
(lp1238
g69
(g70
g71
NtRp1239
(dp1240
g74
(dp1241
g82
I4
ssg83
g1235
sg76
(lp1242
S'Rocket 1.2.4'
p1243
asbasbasbag69
(g85
g71
NtRp1244
(dp1245
g74
(dp1246
sg83
g649
sg76
(lp1247
g69
(g90
g71
NtRp1248
(dp1249
g74
(dp1250
g94
g95
ssg83
g1244
sg76
(lp1251
S'web2py_crontype'
p1252
asbag69
(g90
g71
NtRp1253
(dp1254
g74
(dp1255
g101
g102
ssg83
g1244
sg76
(lp1256
S':'
asbag69
(g90
g71
NtRp1257
(dp1258
g74
(dp1259
sg83
g1244
sg76
(lp1260
g69
(g70
g71
NtRp1261
(dp1262
g74
(dp1263
g82
I4
ssg83
g1257
sg76
(lp1264
S'hard'
p1265
asbasbasbag69
(g85
g71
NtRp1266
(dp1267
g74
(dp1268
sg83
g649
sg76
(lp1269
g69
(g90
g71
NtRp1270
(dp1271
g74
(dp1272
g94
g95
ssg83
g1266
sg76
(lp1273
S'web2py_path'
p1274
asbag69
(g90
g71
NtRp1275
(dp1276
g74
(dp1277
g101
g102
ssg83
g1266
sg76
(lp1278
S':'
asbag69
(g90
g71
NtRp1279
(dp1280
g74
(dp1281
sg83
g1266
sg76
(lp1282
g69
(g70
g71
NtRp1283
(dp1284
g74
(dp1285
g82
I4
ssg83
g1279
sg76
(lp1286
g696
asbasbasbag69
(g85
g71
NtRp1287
(dp1288
g74
(dp1289
sg83
g649
sg76
(lp1290
g69
(g90
g71
NtRp1291
(dp1292
g74
(dp1293
g94
g95
ssg83
g1287
sg76
(lp1294
S'web2py_version'
p1295
asbag69
(g90
g71
NtRp1296
(dp1297
g74
(dp1298
g101
g102
ssg83
g1287
sg76
(lp1299
S':'
asbag69
(g90
g71
NtRp1300
(dp1301
g74
(dp1302
sg83
g1287
sg76
(lp1303
g69
(g70
g71
NtRp1304
(dp1305
g74
(dp1306
g82
I4
ssg83
g1300
sg76
(lp1307
g69
(g78
g71
NtRp1308
(dp1309
g74
(dp1310
g82
I3
ssg83
Nsg76
(lp1311
g69
(g85
g71
NtRp1312
(dp1313
g74
(dp1314
sg83
g1308
sg76
(lp1315
g69
(g90
g71
NtRp1316
(dp1317
g74
(dp1318
sg83
g1312
sg76
(lp1319
g69
(g70
g71
NtRp1320
(dp1321
g74
(dp1322
g82
I3
ssg83
g1316
sg76
(lp1323
S'1'
asbasbasbag69
(g85
g71
NtRp1324
(dp1325
g74
(dp1326
sg83
g1308
sg76
(lp1327
g69
(g90
g71
NtRp1328
(dp1329
g74
(dp1330
sg83
g1324
sg76
(lp1331
g69
(g70
g71
NtRp1332
(dp1333
g74
(dp1334
g82
I3
ssg83
g1328
sg76
(lp1335
S'99'
p1336
asbasbasbag69
(g85
g71
NtRp1337
(dp1338
g74
(dp1339
sg83
g1308
sg76
(lp1340
g69
(g90
g71
NtRp1341
(dp1342
g74
(dp1343
sg83
g1337
sg76
(lp1344
g69
(g70
g71
NtRp1345
(dp1346
g74
(dp1347
g82
I3
ssg83
g1341
sg76
(lp1348
S'7'
asbasbasbag69
(g85
g71
NtRp1349
(dp1350
g74
(dp1351
sg83
g1308
sg76
(lp1352
g69
(g90
g71
NtRp1353
(dp1354
g74
(dp1355
sg83
g1349
sg76
(lp1356
g69
(g70
g71
NtRp1357
(dp1358
g74
(dp1359
g82
I3
ssg83
g1353
sg76
(lp1360
S'datetime.datetime(2012, 3, 4, 22, 12, 8)'
p1361
asbasbasbag69
(g85
g71
NtRp1362
(dp1363
g74
(dp1364
sg83
g1308
sg76
(lp1365
g69
(g90
g71
NtRp1366
(dp1367
g74
(dp1368
sg83
g1362
sg76
(lp1369
g69
(g70
g71
NtRp1370
(dp1371
g74
(dp1372
g82
I3
ssg83
g1366
sg76
(lp1373
S'stable'
p1374
asbasbasbasbasbasbasbag69
(g85
g71
NtRp1375
(dp1376
g74
(dp1377
sg83
g649
sg76
(lp1378
g69
(g90
g71
NtRp1379
(dp1380
g74
(dp1381
g94
g95
ssg83
g1375
sg76
(lp1382
S'wsgi_errors'
p1383
asbag69
(g90
g71
NtRp1384
(dp1385
g74
(dp1386
g101
g102
ssg83
g1375
sg76
(lp1387
S':'
asbag69
(g90
g71
NtRp1388
(dp1389
g74
(dp1390
sg83
g1375
sg76
(lp1391
g69
(g70
g71
NtRp1392
(dp1393
g74
(dp1394
g82
I4
ssg83
g1388
sg76
(lp1395
S"<open file '<stderr>', mode 'w' at 0x7f8f17c27270>"
p1396
asbasbasbag69
(g85
g71
NtRp1397
(dp1398
g74
(dp1399
sg83
g649
sg76
(lp1400
g69
(g90
g71
NtRp1401
(dp1402
g74
(dp1403
g94
g95
ssg83
g1397
sg76
(lp1404
S'wsgi_file_wrapper'
p1405
asbag69
(g90
g71
NtRp1406
(dp1407
g74
(dp1408
g101
g102
ssg83
g1397
sg76
(lp1409
S':'
asbag69
(g90
g71
NtRp1410
(dp1411
g74
(dp1412
sg83
g1397
sg76
(lp1413
g69
(g70
g71
NtRp1414
(dp1415
g74
(dp1416
g82
I4
ssg83
g1410
sg76
(lp1417
S'<class wsgiref.util.FileWrapper at 0x24e2668>'
p1418
asbasbasbag69
(g85
g71
NtRp1419
(dp1420
g74
(dp1421
sg83
g649
sg76
(lp1422
g69
(g90
g71
NtRp1423
(dp1424
g74
(dp1425
g94
g95
ssg83
g1419
sg76
(lp1426
S'wsgi_input'
p1427
asbag69
(g90
g71
NtRp1428
(dp1429
g74
(dp1430
g101
g102
ssg83
g1419
sg76
(lp1431
S':'
asbag69
(g90
g71
NtRp1432
(dp1433
g74
(dp1434
sg83
g1419
sg76
(lp1435
g69
(g70
g71
NtRp1436
(dp1437
g74
(dp1438
g82
I4
ssg83
g1432
sg76
(lp1439
S'<socket._fileobject object at 0x2d9b8d0>'
p1440
asbasbasbag69
(g85
g71
NtRp1441
(dp1442
g74
(dp1443
sg83
g649
sg76
(lp1444
g69
(g90
g71
NtRp1445
(dp1446
g74
(dp1447
g94
g95
ssg83
g1441
sg76
(lp1448
S'wsgi_multiprocess'
p1449
asbag69
(g90
g71
NtRp1450
(dp1451
g74
(dp1452
g101
g102
ssg83
g1441
sg76
(lp1453
S':'
asbag69
(g90
g71
NtRp1454
(dp1455
g74
(dp1456
sg83
g1441
sg76
(lp1457
g69
(g70
g71
NtRp1458
(dp1459
g74
(dp1460
g82
I4
ssg83
g1454
sg76
(lp1461
g112
asbasbasbag69
(g85
g71
NtRp1462
(dp1463
g74
(dp1464
sg83
g649
sg76
(lp1465
g69
(g90
g71
NtRp1466
(dp1467
g74
(dp1468
g94
g95
ssg83
g1462
sg76
(lp1469
S'wsgi_multithread'
p1470
asbag69
(g90
g71
NtRp1471
(dp1472
g74
(dp1473
g101
g102
ssg83
g1462
sg76
(lp1474
S':'
asbag69
(g90
g71
NtRp1475
(dp1476
g74
(dp1477
sg83
g1462
sg76
(lp1478
g69
(g70
g71
NtRp1479
(dp1480
g74
(dp1481
g82
I4
ssg83
g1475
sg76
(lp1482
S'True'
p1483
asbasbasbag69
(g85
g71
NtRp1484
(dp1485
g74
(dp1486
sg83
g649
sg76
(lp1487
g69
(g90
g71
NtRp1488
(dp1489
g74
(dp1490
g94
g95
ssg83
g1484
sg76
(lp1491
S'wsgi_run_once'
p1492
asbag69
(g90
g71
NtRp1493
(dp1494
g74
(dp1495
g101
g102
ssg83
g1484
sg76
(lp1496
S':'
asbag69
(g90
g71
NtRp1497
(dp1498
g74
(dp1499
sg83
g1484
sg76
(lp1500
g69
(g70
g71
NtRp1501
(dp1502
g74
(dp1503
g82
I4
ssg83
g1497
sg76
(lp1504
g112
asbasbasbag69
(g85
g71
NtRp1505
(dp1506
g74
(dp1507
sg83
g649
sg76
(lp1508
g69
(g90
g71
NtRp1509
(dp1510
g74
(dp1511
g94
g95
ssg83
g1505
sg76
(lp1512
S'wsgi_url_scheme'
p1513
asbag69
(g90
g71
NtRp1514
(dp1515
g74
(dp1516
g101
g102
ssg83
g1505
sg76
(lp1517
S':'
asbag69
(g90
g71
NtRp1518
(dp1519
g74
(dp1520
sg83
g1505
sg76
(lp1521
g69
(g70
g71
NtRp1522
(dp1523
g74
(dp1524
g82
I4
ssg83
g1518
sg76
(lp1525
S'http'
p1526
asbasbasbag69
(g85
g71
NtRp1527
(dp1528
g74
(dp1529
sg83
g649
sg76
(lp1530
g69
(g90
g71
NtRp1531
(dp1532
g74
(dp1533
g94
g95
ssg83
g1527
sg76
(lp1534
S'wsgi_version'
p1535
asbag69
(g90
g71
NtRp1536
(dp1537
g74
(dp1538
g101
g102
ssg83
g1527
sg76
(lp1539
S':'
asbag69
(g90
g71
NtRp1540
(dp1541
g74
(dp1542
sg83
g1527
sg76
(lp1543
g69
(g70
g71
NtRp1544
(dp1545
g74
(dp1546
g82
I4
ssg83
g1540
sg76
(lp1547
g69
(g78
g71
NtRp1548
(dp1549
g74
(dp1550
g82
I3
ssg83
Nsg76
(lp1551
g69
(g85
g71
NtRp1552
(dp1553
g74
(dp1554
sg83
g1548
sg76
(lp1555
g69
(g90
g71
NtRp1556
(dp1557
g74
(dp1558
sg83
g1552
sg76
(lp1559
g69
(g70
g71
NtRp1560
(dp1561
g74
(dp1562
g82
I3
ssg83
g1556
sg76
(lp1563
S'1'
asbasbasbag69
(g85
g71
NtRp1564
(dp1565
g74
(dp1566
sg83
g1548
sg76
(lp1567
g69
(g90
g71
NtRp1568
(dp1569
g74
(dp1570
sg83
g1564
sg76
(lp1571
g69
(g70
g71
NtRp1572
(dp1573
g74
(dp1574
g82
I3
ssg83
g1568
sg76
(lp1575
S'0'
asbasbasbasbasbasbasbasbasbasbasbag69
(g85
g71
NtRp1576
(dp1577
g74
(dp1578
sg83
g79
sg76
(lp1579
g69
(g90
g71
NtRp1580
(dp1581
g74
(dp1582
g94
g95
ssg83
g1576
sg76
(lp1583
S'extension'
p1584
asbag69
(g90
g71
NtRp1585
(dp1586
g74
(dp1587
g101
g102
ssg83
g1576
sg76
(lp1588
S':'
asbag69
(g90
g71
NtRp1589
(dp1590
g74
(dp1591
sg83
g1576
sg76
(lp1592
g69
(g70
g71
NtRp1593
(dp1594
g74
(dp1595
g82
I5
ssg83
g1589
sg76
(lp1596
S'html'
p1597
asbasbasbag69
(g85
g71
NtRp1598
(dp1599
g74
(dp1600
sg83
g79
sg76
(lp1601
g69
(g90
g71
NtRp1602
(dp1603
g74
(dp1604
g94
g95
ssg83
g1598
sg76
(lp1605
S'folder'
p1606
asbag69
(g90
g71
NtRp1607
(dp1608
g74
(dp1609
g101
g102
ssg83
g1598
sg76
(lp1610
S':'
asbag69
(g90
g71
NtRp1611
(dp1612
g74
(dp1613
sg83
g1598
sg76
(lp1614
g69
(g70
g71
NtRp1615
(dp1616
g74
(dp1617
g82
I5
ssg83
g1611
sg76
(lp1618
S'/home/marco/projects/milanel/web2py/applications/fragance/'
p1619
asbasbasbag69
(g85
g71
NtRp1620
(dp1621
g74
(dp1622
sg83
g79
sg76
(lp1623
g69
(g90
g71
NtRp1624
(dp1625
g74
(dp1626
g94
g95
ssg83
g1620
sg76
(lp1627
S'function'
p1628
asbag69
(g90
g71
NtRp1629
(dp1630
g74
(dp1631
g101
g102
ssg83
g1620
sg76
(lp1632
S':'
asbag69
(g90
g71
NtRp1633
(dp1634
g74
(dp1635
sg83
g1620
sg76
(lp1636
g69
(g70
g71
NtRp1637
(dp1638
g74
(dp1639
g82
I5
ssg83
g1633
sg76
(lp1640
S'index'
p1641
asbasbasbag69
(g85
g71
NtRp1642
(dp1643
g74
(dp1644
sg83
g79
sg76
(lp1645
g69
(g90
g71
NtRp1646
(dp1647
g74
(dp1648
g94
g95
ssg83
g1642
sg76
(lp1649
S'get_vars'
p1650
asbag69
(g90
g71
NtRp1651
(dp1652
g74
(dp1653
g101
g102
ssg83
g1642
sg76
(lp1654
S':'
asbag69
(g90
g71
NtRp1655
(dp1656
g74
(dp1657
sg83
g1642
sg76
(lp1658
g69
(g70
g71
NtRp1659
(dp1660
g74
(dp1661
g82
I5
ssg83
g1655
sg76
(lp1662
g69
(g78
g71
NtRp1663
(dp1664
g74
(dp1665
g82
I4
ssg83
Nsg76
(lp1666
sbasbasbasbag69
(g85
g71
NtRp1667
(dp1668
g74
(dp1669
sg83
g79
sg76
(lp1670
g69
(g90
g71
NtRp1671
(dp1672
g74
(dp1673
g94
g95
ssg83
g1667
sg76
(lp1674
S'global_settings'
p1675
asbag69
(g90
g71
NtRp1676
(dp1677
g74
(dp1678
g101
g102
ssg83
g1667
sg76
(lp1679
S':'
asbag69
(g90
g71
NtRp1680
(dp1681
g74
(dp1682
sg83
g1667
sg76
(lp1683
g69
(g70
g71
NtRp1684
(dp1685
g74
(dp1686
g82
I5
ssg83
g1680
sg76
(lp1687
g69
(g78
g71
NtRp1688
(dp1689
g74
(dp1690
g82
I4
ssg83
Nsg76
(lp1691
g69
(g85
g71
NtRp1692
(dp1693
g74
(dp1694
sg83
g1688
sg76
(lp1695
g69
(g90
g71
NtRp1696
(dp1697
g74
(dp1698
g94
g95
ssg83
g1692
sg76
(lp1699
g661
asbag69
(g90
g71
NtRp1700
(dp1701
g74
(dp1702
g101
g102
ssg83
g1692
sg76
(lp1703
S':'
asbag69
(g90
g71
NtRp1704
(dp1705
g74
(dp1706
sg83
g1692
sg76
(lp1707
g69
(g70
g71
NtRp1708
(dp1709
g74
(dp1710
g82
I4
ssg83
g1704
sg76
(lp1711
S"set(['/home/marco/projects/milanel/web2py/applications/fragance/'])"
p1712
asbasbasbag69
(g85
g71
NtRp1713
(dp1714
g74
(dp1715
sg83
g1688
sg76
(lp1716
g69
(g90
g71
NtRp1717
(dp1718
g74
(dp1719
g94
g95
ssg83
g1713
sg76
(lp1720
g683
asbag69
(g90
g71
NtRp1721
(dp1722
g74
(dp1723
g101
g102
ssg83
g1713
sg76
(lp1724
S':'
asbag69
(g90
g71
NtRp1725
(dp1726
g74
(dp1727
sg83
g1713
sg76
(lp1728
g69
(g70
g71
NtRp1729
(dp1730
g74
(dp1731
g82
I4
ssg83
g1725
sg76
(lp1732
g696
asbasbasbag69
(g85
g71
NtRp1733
(dp1734
g74
(dp1735
sg83
g1688
sg76
(lp1736
g69
(g90
g71
NtRp1737
(dp1738
g74
(dp1739
g94
g95
ssg83
g1733
sg76
(lp1740
g705
asbag69
(g90
g71
NtRp1741
(dp1742
g74
(dp1743
g101
g102
ssg83
g1733
sg76
(lp1744
S':'
asbag69
(g90
g71
NtRp1745
(dp1746
g74
(dp1747
sg83
g1733
sg76
(lp1748
g69
(g70
g71
NtRp1749
(dp1750
g74
(dp1751
g82
I4
ssg83
g1745
sg76
(lp1752
g69
(g78
g71
NtRp1753
(dp1754
g74
(dp1755
g82
I3
ssg83
Nsg76
(lp1756
sbasbasbasbag69
(g85
g71
NtRp1757
(dp1758
g74
(dp1759
sg83
g1688
sg76
(lp1760
g69
(g90
g71
NtRp1761
(dp1762
g74
(dp1763
g94
g95
ssg83
g1757
sg76
(lp1764
g730
asbag69
(g90
g71
NtRp1765
(dp1766
g74
(dp1767
g101
g102
ssg83
g1757
sg76
(lp1768
S':'
asbag69
(g90
g71
NtRp1769
(dp1770
g74
(dp1771
sg83
g1757
sg76
(lp1772
g69
(g70
g71
NtRp1773
(dp1774
g74
(dp1775
g82
I4
ssg83
g1769
sg76
(lp1776
S"<Values at 0x1ea5ab8: {'verbose': False, 'ip': '127.0.0.1', 'shutdown_timeout': 5, 'taskbar': False, 'nocron': False, 'pid_filename': 'httpserver.pid', 'maxthreads': None, 'softcron': False, 'server_name': 'malena', 'bpython': False, 'nogui': False, 'port': 8000, 'extcron': False, 'debuglevel': 30, 'test': None, 'folder': '/home/marco/projects/milanel/web2py', 'config': '', 'import_models': False, 'winservice': '', 'shell': None, 'run': '', 'log_filename': 'httpserver.log', 'args': [''], 'socket_timeout': 5, 'ssl_ca_certificate': None, 'scheduler': None, 'profiler_filename': None, 'ssl_private_key': '', 'password': 'asd', 'request_queue_size': 5, 'ssl_certificate': '', 'cronjob': False, 'numthreads': None, 'quiet': False, 'interfaces': None, 'minthreads': None, 'timeout': 10, 'plain': False, 'nobanner': False}>"
p1777
asbasbasbag69
(g85
g71
NtRp1778
(dp1779
g74
(dp1780
sg83
g1688
sg76
(lp1781
g69
(g90
g71
NtRp1782
(dp1783
g74
(dp1784
g94
g95
ssg83
g1778
sg76
(lp1785
g752
asbag69
(g90
g71
NtRp1786
(dp1787
g74
(dp1788
g101
g102
ssg83
g1778
sg76
(lp1789
S':'
asbag69
(g90
g71
NtRp1790
(dp1791
g74
(dp1792
sg83
g1778
sg76
(lp1793
g69
(g70
g71
NtRp1794
(dp1795
g74
(dp1796
g82
I4
ssg83
g1790
sg76
(lp1797
S'set([])'
p1798
asbasbasbag69
(g85
g71
NtRp1799
(dp1800
g74
(dp1801
sg83
g1688
sg76
(lp1802
g69
(g90
g71
NtRp1803
(dp1804
g74
(dp1805
g94
g95
ssg83
g1799
sg76
(lp1806
g774
asbag69
(g90
g71
NtRp1807
(dp1808
g74
(dp1809
g101
g102
ssg83
g1799
sg76
(lp1810
S':'
asbag69
(g90
g71
NtRp1811
(dp1812
g74
(dp1813
sg83
g1799
sg76
(lp1814
g69
(g70
g71
NtRp1815
(dp1816
g74
(dp1817
g82
I4
ssg83
g1811
sg76
(lp1818
g112
asbasbasbag69
(g85
g71
NtRp1819
(dp1820
g74
(dp1821
sg83
g1688
sg76
(lp1822
g69
(g90
g71
NtRp1823
(dp1824
g74
(dp1825
g94
g95
ssg83
g1819
sg76
(lp1826
g795
asbag69
(g90
g71
NtRp1827
(dp1828
g74
(dp1829
g101
g102
ssg83
g1819
sg76
(lp1830
S':'
asbag69
(g90
g71
NtRp1831
(dp1832
g74
(dp1833
sg83
g1819
sg76
(lp1834
g69
(g70
g71
NtRp1835
(dp1836
g74
(dp1837
g82
I4
ssg83
g1831
sg76
(lp1838
g808
asbasbasbag69
(g85
g71
NtRp1839
(dp1840
g74
(dp1841
sg83
g1688
sg76
(lp1842
g69
(g90
g71
NtRp1843
(dp1844
g74
(dp1845
g94
g95
ssg83
g1839
sg76
(lp1846
g993
asbag69
(g90
g71
NtRp1847
(dp1848
g74
(dp1849
g101
g102
ssg83
g1839
sg76
(lp1850
S':'
asbag69
(g90
g71
NtRp1851
(dp1852
g74
(dp1853
sg83
g1839
sg76
(lp1854
g69
(g70
g71
NtRp1855
(dp1856
g74
(dp1857
g82
I4
ssg83
g1851
sg76
(lp1858
g112
asbasbasbag69
(g85
g71
NtRp1859
(dp1860
g74
(dp1861
sg83
g1688
sg76
(lp1862
g69
(g90
g71
NtRp1863
(dp1864
g74
(dp1865
g94
g95
ssg83
g1859
sg76
(lp1866
g1014
asbag69
(g90
g71
NtRp1867
(dp1868
g74
(dp1869
g101
g102
ssg83
g1859
sg76
(lp1870
S':'
asbag69
(g90
g71
NtRp1871
(dp1872
g74
(dp1873
sg83
g1859
sg76
(lp1874
g69
(g70
g71
NtRp1875
(dp1876
g74
(dp1877
g82
I4
ssg83
g1871
sg76
(lp1878
g112
asbasbasbag69
(g85
g71
NtRp1879
(dp1880
g74
(dp1881
sg83
g1688
sg76
(lp1882
g69
(g90
g71
NtRp1883
(dp1884
g74
(dp1885
g94
g95
ssg83
g1879
sg76
(lp1886
g1252
asbag69
(g90
g71
NtRp1887
(dp1888
g74
(dp1889
g101
g102
ssg83
g1879
sg76
(lp1890
S':'
asbag69
(g90
g71
NtRp1891
(dp1892
g74
(dp1893
sg83
g1879
sg76
(lp1894
g69
(g70
g71
NtRp1895
(dp1896
g74
(dp1897
g82
I4
ssg83
g1891
sg76
(lp1898
g1265
asbasbasbag69
(g85
g71
NtRp1899
(dp1900
g74
(dp1901
sg83
g1688
sg76
(lp1902
g69
(g90
g71
NtRp1903
(dp1904
g74
(dp1905
g94
g95
ssg83
g1899
sg76
(lp1906
g1295
asbag69
(g90
g71
NtRp1907
(dp1908
g74
(dp1909
g101
g102
ssg83
g1899
sg76
(lp1910
S':'
asbag69
(g90
g71
NtRp1911
(dp1912
g74
(dp1913
sg83
g1899
sg76
(lp1914
g69
(g70
g71
NtRp1915
(dp1916
g74
(dp1917
g82
I4
ssg83
g1911
sg76
(lp1918
g69
(g78
g71
NtRp1919
(dp1920
g74
(dp1921
g82
I3
ssg83
Nsg76
(lp1922
g69
(g85
g71
NtRp1923
(dp1924
g74
(dp1925
sg83
g1919
sg76
(lp1926
g69
(g90
g71
NtRp1927
(dp1928
g74
(dp1929
sg83
g1923
sg76
(lp1930
g69
(g70
g71
NtRp1931
(dp1932
g74
(dp1933
g82
I3
ssg83
g1927
sg76
(lp1934
S'1'
asbasbasbag69
(g85
g71
NtRp1935
(dp1936
g74
(dp1937
sg83
g1919
sg76
(lp1938
g69
(g90
g71
NtRp1939
(dp1940
g74
(dp1941
sg83
g1935
sg76
(lp1942
g69
(g70
g71
NtRp1943
(dp1944
g74
(dp1945
g82
I3
ssg83
g1939
sg76
(lp1946
S'99'
p1947
asbasbasbag69
(g85
g71
NtRp1948
(dp1949
g74
(dp1950
sg83
g1919
sg76
(lp1951
g69
(g90
g71
NtRp1952
(dp1953
g74
(dp1954
sg83
g1948
sg76
(lp1955
g69
(g70
g71
NtRp1956
(dp1957
g74
(dp1958
g82
I3
ssg83
g1952
sg76
(lp1959
S'7'
asbasbasbag69
(g85
g71
NtRp1960
(dp1961
g74
(dp1962
sg83
g1919
sg76
(lp1963
g69
(g90
g71
NtRp1964
(dp1965
g74
(dp1966
sg83
g1960
sg76
(lp1967
g69
(g70
g71
NtRp1968
(dp1969
g74
(dp1970
g82
I3
ssg83
g1964
sg76
(lp1971
S'datetime.datetime(2012, 3, 4, 22, 12, 8)'
p1972
asbasbasbag69
(g85
g71
NtRp1973
(dp1974
g74
(dp1975
sg83
g1919
sg76
(lp1976
g69
(g90
g71
NtRp1977
(dp1978
g74
(dp1979
sg83
g1973
sg76
(lp1980
g69
(g70
g71
NtRp1981
(dp1982
g74
(dp1983
g82
I3
ssg83
g1977
sg76
(lp1984
g1374
asbasbasbasbasbasbasbasbasbasbasbag69
(g85
g71
NtRp1985
(dp1986
g74
(dp1987
sg83
g79
sg76
(lp1988
g69
(g90
g71
NtRp1989
(dp1990
g74
(dp1991
g94
g95
ssg83
g1985
sg76
(lp1992
S'is_https'
p1993
asbag69
(g90
g71
NtRp1994
(dp1995
g74
(dp1996
g101
g102
ssg83
g1985
sg76
(lp1997
S':'
asbag69
(g90
g71
NtRp1998
(dp1999
g74
(dp2000
sg83
g1985
sg76
(lp2001
g69
(g70
g71
NtRp2002
(dp2003
g74
(dp2004
g82
I5
ssg83
g1998
sg76
(lp2005
g112
asbasbasbag69
(g85
g71
NtRp2006
(dp2007
g74
(dp2008
sg83
g79
sg76
(lp2009
g69
(g90
g71
NtRp2010
(dp2011
g74
(dp2012
g94
g95
ssg83
g2006
sg76
(lp2013
S'is_local'
p2014
asbag69
(g90
g71
NtRp2015
(dp2016
g74
(dp2017
g101
g102
ssg83
g2006
sg76
(lp2018
S':'
asbag69
(g90
g71
NtRp2019
(dp2020
g74
(dp2021
sg83
g2006
sg76
(lp2022
g69
(g70
g71
NtRp2023
(dp2024
g74
(dp2025
g82
I5
ssg83
g2019
sg76
(lp2026
g1483
asbasbasbag69
(g85
g71
NtRp2027
(dp2028
g74
(dp2029
sg83
g79
sg76
(lp2030
g69
(g90
g71
NtRp2031
(dp2032
g74
(dp2033
g94
g95
ssg83
g2027
sg76
(lp2034
S'is_restful'
p2035
asbag69
(g90
g71
NtRp2036
(dp2037
g74
(dp2038
g101
g102
ssg83
g2027
sg76
(lp2039
S':'
asbag69
(g90
g71
NtRp2040
(dp2041
g74
(dp2042
sg83
g2027
sg76
(lp2043
g69
(g70
g71
NtRp2044
(dp2045
g74
(dp2046
g82
I5
ssg83
g2040
sg76
(lp2047
g112
asbasbasbag69
(g85
g71
NtRp2048
(dp2049
g74
(dp2050
sg83
g79
sg76
(lp2051
g69
(g90
g71
NtRp2052
(dp2053
g74
(dp2054
g94
g95
ssg83
g2048
sg76
(lp2055
S'now'
p2056
asbag69
(g90
g71
NtRp2057
(dp2058
g74
(dp2059
g101
g102
ssg83
g2048
sg76
(lp2060
S':'
asbag69
(g90
g71
NtRp2061
(dp2062
g74
(dp2063
sg83
g2048
sg76
(lp2064
g69
(g70
g71
NtRp2065
(dp2066
g74
(dp2067
g82
I5
ssg83
g2061
sg76
(lp2068
S'datetime.datetime(2012, 3, 18, 13, 8, 56, 393384)'
p2069
asbasbasbag69
(g85
g71
NtRp2070
(dp2071
g74
(dp2072
sg83
g79
sg76
(lp2073
g69
(g90
g71
NtRp2074
(dp2075
g74
(dp2076
g94
g95
ssg83
g2070
sg76
(lp2077
S'post_vars'
p2078
asbag69
(g90
g71
NtRp2079
(dp2080
g74
(dp2081
g101
g102
ssg83
g2070
sg76
(lp2082
S':'
asbag69
(g90
g71
NtRp2083
(dp2084
g74
(dp2085
sg83
g2070
sg76
(lp2086
g69
(g70
g71
NtRp2087
(dp2088
g74
(dp2089
g82
I5
ssg83
g2083
sg76
(lp2090
g69
(g78
g71
NtRp2091
(dp2092
g74
(dp2093
g82
I4
ssg83
Nsg76
(lp2094
sbasbasbasbag69
(g85
g71
NtRp2095
(dp2096
g74
(dp2097
sg83
g79
sg76
(lp2098
g69
(g90
g71
NtRp2099
(dp2100
g74
(dp2101
g94
g95
ssg83
g2095
sg76
(lp2102
S'url'
p2103
asbag69
(g90
g71
NtRp2104
(dp2105
g74
(dp2106
g101
g102
ssg83
g2095
sg76
(lp2107
S':'
asbag69
(g90
g71
NtRp2108
(dp2109
g74
(dp2110
sg83
g2095
sg76
(lp2111
g69
(g70
g71
NtRp2112
(dp2113
g74
(dp2114
g82
I5
ssg83
g2108
sg76
(lp2115
S'/fragance/salidas/index'
p2116
asbasbasbag69
(g85
g71
NtRp2117
(dp2118
g74
(dp2119
sg83
g79
sg76
(lp2120
g69
(g90
g71
NtRp2121
(dp2122
g74
(dp2123
g94
g95
ssg83
g2117
sg76
(lp2124
S'utcnow'
p2125
asbag69
(g90
g71
NtRp2126
(dp2127
g74
(dp2128
g101
g102
ssg83
g2117
sg76
(lp2129
S':'
asbag69
(g90
g71
NtRp2130
(dp2131
g74
(dp2132
sg83
g2117
sg76
(lp2133
g69
(g70
g71
NtRp2134
(dp2135
g74
(dp2136
g82
I5
ssg83
g2130
sg76
(lp2137
S'datetime.datetime(2012, 3, 18, 16, 8, 56, 393425)'
p2138
asbasbasbag69
(g85
g71
NtRp2139
(dp2140
g74
(dp2141
sg83
g79
sg76
(lp2142
g69
(g90
g71
NtRp2143
(dp2144
g74
(dp2145
g94
g95
ssg83
g2139
sg76
(lp2146
S'uuid'
p2147
asbag69
(g90
g71
NtRp2148
(dp2149
g74
(dp2150
g101
g102
ssg83
g2139
sg76
(lp2151
S':'
asbag69
(g90
g71
NtRp2152
(dp2153
g74
(dp2154
sg83
g2139
sg76
(lp2155
g69
(g70
g71
NtRp2156
(dp2157
g74
(dp2158
g82
I5
ssg83
g2152
sg76
(lp2159
S'fragance/127.0.0.1.2012-03-18.13-08-56.073d0a7e-073d-40be-8fd9-32e3e4633cf7'
p2160
asbasbasbag69
(g85
g71
NtRp2161
(dp2162
g74
(dp2163
sg83
g79
sg76
(lp2164
g69
(g90
g71
NtRp2165
(dp2166
g74
(dp2167
g94
g95
ssg83
g2161
sg76
(lp2168
S'vars'
p2169
asbag69
(g90
g71
NtRp2170
(dp2171
g74
(dp2172
g101
g102
ssg83
g2161
sg76
(lp2173
S':'
asbag69
(g90
g71
NtRp2174
(dp2175
g74
(dp2176
sg83
g2161
sg76
(lp2177
g69
(g70
g71
NtRp2178
(dp2179
g74
(dp2180
g82
I5
ssg83
g2174
sg76
(lp2181
g69
(g78
g71
NtRp2182
(dp2183
g74
(dp2184
g82
I4
ssg83
Nsg76
(lp2185
sbasbasbasbag69
(g85
g71
NtRp2186
(dp2187
g74
(dp2188
sg83
g79
sg76
(lp2189
g69
(g90
g71
NtRp2190
(dp2191
g74
(dp2192
g94
g95
ssg83
g2186
sg76
(lp2193
S'wsgi'
p2194
asbag69
(g90
g71
NtRp2195
(dp2196
g74
(dp2197
g101
g102
ssg83
g2186
sg76
(lp2198
S':'
asbag69
(g90
g71
NtRp2199
(dp2200
g74
(dp2201
sg83
g2186
sg76
(lp2202
g69
(g70
g71
NtRp2203
(dp2204
g74
(dp2205
g82
I5
ssg83
g2199
sg76
(lp2206
g69
(g78
g71
NtRp2207
(dp2208
g74
(dp2209
g82
I4
ssg83
Nsg76
(lp2210
g69
(g85
g71
NtRp2211
(dp2212
g74
(dp2213
sg83
g2207
sg76
(lp2214
g69
(g90
g71
NtRp2215
(dp2216
g74
(dp2217
g94
g95
ssg83
g2211
sg76
(lp2218
S'environ'
p2219
asbag69
(g90
g71
NtRp2220
(dp2221
g74
(dp2222
g101
g102
ssg83
g2211
sg76
(lp2223
S':'
asbag69
(g90
g71
NtRp2224
(dp2225
g74
(dp2226
sg83
g2211
sg76
(lp2227
g69
(g70
g71
NtRp2228
(dp2229
g74
(dp2230
g82
I4
ssg83
g2224
sg76
(lp2231
g69
(g78
g71
NtRp2232
(dp2233
g74
(dp2234
g82
I3
ssg83
Nsg76
(lp2235
g69
(g85
g71
NtRp2236
(dp2237
g74
(dp2238
sg83
g2232
sg76
(lp2239
g69
(g90
g71
NtRp2240
(dp2241
g74
(dp2242
g94
g95
ssg83
g2236
sg76
(lp2243
S'HTTP_ACCEPT'
p2244
asbag69
(g90
g71
NtRp2245
(dp2246
g74
(dp2247
g101
g102
ssg83
g2236
sg76
(lp2248
S':'
asbag69
(g90
g71
NtRp2249
(dp2250
g74
(dp2251
sg83
g2236
sg76
(lp2252
g69
(g70
g71
NtRp2253
(dp2254
g74
(dp2255
g82
I3
ssg83
g2249
sg76
(lp2256
g830
asbasbasbag69
(g85
g71
NtRp2257
(dp2258
g74
(dp2259
sg83
g2232
sg76
(lp2260
g69
(g90
g71
NtRp2261
(dp2262
g74
(dp2263
g94
g95
ssg83
g2257
sg76
(lp2264
S'HTTP_ACCEPT_ENCODING'
p2265
asbag69
(g90
g71
NtRp2266
(dp2267
g74
(dp2268
g101
g102
ssg83
g2257
sg76
(lp2269
S':'
asbag69
(g90
g71
NtRp2270
(dp2271
g74
(dp2272
sg83
g2257
sg76
(lp2273
g69
(g70
g71
NtRp2274
(dp2275
g74
(dp2276
g82
I3
ssg83
g2270
sg76
(lp2277
g852
asbasbasbag69
(g85
g71
NtRp2278
(dp2279
g74
(dp2280
sg83
g2232
sg76
(lp2281
g69
(g90
g71
NtRp2282
(dp2283
g74
(dp2284
g94
g95
ssg83
g2278
sg76
(lp2285
S'HTTP_ACCEPT_LANGUAGE'
p2286
asbag69
(g90
g71
NtRp2287
(dp2288
g74
(dp2289
g101
g102
ssg83
g2278
sg76
(lp2290
S':'
asbag69
(g90
g71
NtRp2291
(dp2292
g74
(dp2293
sg83
g2278
sg76
(lp2294
g69
(g70
g71
NtRp2295
(dp2296
g74
(dp2297
g82
I3
ssg83
g2291
sg76
(lp2298
g874
asbasbasbag69
(g85
g71
NtRp2299
(dp2300
g74
(dp2301
sg83
g2232
sg76
(lp2302
g69
(g90
g71
NtRp2303
(dp2304
g74
(dp2305
g94
g95
ssg83
g2299
sg76
(lp2306
S'HTTP_CACHE_CONTROL'
p2307
asbag69
(g90
g71
NtRp2308
(dp2309
g74
(dp2310
g101
g102
ssg83
g2299
sg76
(lp2311
S':'
asbag69
(g90
g71
NtRp2312
(dp2313
g74
(dp2314
sg83
g2299
sg76
(lp2315
g69
(g70
g71
NtRp2316
(dp2317
g74
(dp2318
g82
I3
ssg83
g2312
sg76
(lp2319
g896
asbasbasbag69
(g85
g71
NtRp2320
(dp2321
g74
(dp2322
sg83
g2232
sg76
(lp2323
g69
(g90
g71
NtRp2324
(dp2325
g74
(dp2326
g94
g95
ssg83
g2320
sg76
(lp2327
S'HTTP_CONNECTION'
p2328
asbag69
(g90
g71
NtRp2329
(dp2330
g74
(dp2331
g101
g102
ssg83
g2320
sg76
(lp2332
S':'
asbag69
(g90
g71
NtRp2333
(dp2334
g74
(dp2335
sg83
g2320
sg76
(lp2336
g69
(g70
g71
NtRp2337
(dp2338
g74
(dp2339
g82
I3
ssg83
g2333
sg76
(lp2340
g918
asbasbasbag69
(g85
g71
NtRp2341
(dp2342
g74
(dp2343
sg83
g2232
sg76
(lp2344
g69
(g90
g71
NtRp2345
(dp2346
g74
(dp2347
g94
g95
ssg83
g2341
sg76
(lp2348
S'HTTP_COOKIE'
p2349
asbag69
(g90
g71
NtRp2350
(dp2351
g74
(dp2352
g101
g102
ssg83
g2341
sg76
(lp2353
S':'
asbag69
(g90
g71
NtRp2354
(dp2355
g74
(dp2356
sg83
g2341
sg76
(lp2357
g69
(g70
g71
NtRp2358
(dp2359
g74
(dp2360
g82
I3
ssg83
g2354
sg76
(lp2361
g940
asbasbasbag69
(g85
g71
NtRp2362
(dp2363
g74
(dp2364
sg83
g2232
sg76
(lp2365
g69
(g90
g71
NtRp2366
(dp2367
g74
(dp2368
g94
g95
ssg83
g2362
sg76
(lp2369
S'HTTP_HOST'
p2370
asbag69
(g90
g71
NtRp2371
(dp2372
g74
(dp2373
g101
g102
ssg83
g2362
sg76
(lp2374
S':'
asbag69
(g90
g71
NtRp2375
(dp2376
g74
(dp2377
sg83
g2362
sg76
(lp2378
g69
(g70
g71
NtRp2379
(dp2380
g74
(dp2381
g82
I3
ssg83
g2375
sg76
(lp2382
g962
asbasbasbag69
(g85
g71
NtRp2383
(dp2384
g74
(dp2385
sg83
g2232
sg76
(lp2386
g69
(g90
g71
NtRp2387
(dp2388
g74
(dp2389
g94
g95
ssg83
g2383
sg76
(lp2390
S'HTTP_USER_AGENT'
p2391
asbag69
(g90
g71
NtRp2392
(dp2393
g74
(dp2394
g101
g102
ssg83
g2383
sg76
(lp2395
S':'
asbag69
(g90
g71
NtRp2396
(dp2397
g74
(dp2398
sg83
g2383
sg76
(lp2399
g69
(g70
g71
NtRp2400
(dp2401
g74
(dp2402
g82
I3
ssg83
g2396
sg76
(lp2403
g984
asbasbasbag69
(g85
g71
NtRp2404
(dp2405
g74
(dp2406
sg83
g2232
sg76
(lp2407
g69
(g90
g71
NtRp2408
(dp2409
g74
(dp2410
g94
g95
ssg83
g2404
sg76
(lp2411
S'PATH_INFO'
p2412
asbag69
(g90
g71
NtRp2413
(dp2414
g74
(dp2415
g101
g102
ssg83
g2404
sg76
(lp2416
S':'
asbag69
(g90
g71
NtRp2417
(dp2418
g74
(dp2419
sg83
g2404
sg76
(lp2420
g69
(g70
g71
NtRp2421
(dp2422
g74
(dp2423
g82
I3
ssg83
g2417
sg76
(lp2424
g1048
asbasbasbag69
(g85
g71
NtRp2425
(dp2426
g74
(dp2427
sg83
g2232
sg76
(lp2428
g69
(g90
g71
NtRp2429
(dp2430
g74
(dp2431
g94
g95
ssg83
g2425
sg76
(lp2432
S'QUERY_STRING'
p2433
asbag69
(g90
g71
NtRp2434
(dp2435
g74
(dp2436
g101
g102
ssg83
g2425
sg76
(lp2437
S':'
asbag69
(g90
g71
NtRp2438
(dp2439
g74
(dp2440
sg83
g2425
sg76
(lp2441
g69
(g70
g71
NtRp2442
(dp2443
g74
(dp2444
g82
I3
ssg83
g2438
sg76
(lp2445
S''
asbasbasbag69
(g85
g71
NtRp2446
(dp2447
g74
(dp2448
sg83
g2232
sg76
(lp2449
g69
(g90
g71
NtRp2450
(dp2451
g74
(dp2452
g94
g95
ssg83
g2446
sg76
(lp2453
S'REMOTE_ADDR'
p2454
asbag69
(g90
g71
NtRp2455
(dp2456
g74
(dp2457
g101
g102
ssg83
g2446
sg76
(lp2458
S':'
asbag69
(g90
g71
NtRp2459
(dp2460
g74
(dp2461
sg83
g2446
sg76
(lp2462
g69
(g70
g71
NtRp2463
(dp2464
g74
(dp2465
g82
I3
ssg83
g2459
sg76
(lp2466
g202
asbasbasbag69
(g85
g71
NtRp2467
(dp2468
g74
(dp2469
sg83
g2232
sg76
(lp2470
g69
(g90
g71
NtRp2471
(dp2472
g74
(dp2473
g94
g95
ssg83
g2467
sg76
(lp2474
S'REMOTE_PORT'
p2475
asbag69
(g90
g71
NtRp2476
(dp2477
g74
(dp2478
g101
g102
ssg83
g2467
sg76
(lp2479
S':'
asbag69
(g90
g71
NtRp2480
(dp2481
g74
(dp2482
sg83
g2467
sg76
(lp2483
g69
(g70
g71
NtRp2484
(dp2485
g74
(dp2486
g82
I3
ssg83
g2480
sg76
(lp2487
g1112
asbasbasbag69
(g85
g71
NtRp2488
(dp2489
g74
(dp2490
sg83
g2232
sg76
(lp2491
g69
(g90
g71
NtRp2492
(dp2493
g74
(dp2494
g94
g95
ssg83
g2488
sg76
(lp2495
S'REQUEST_METHOD'
p2496
asbag69
(g90
g71
NtRp2497
(dp2498
g74
(dp2499
g101
g102
ssg83
g2488
sg76
(lp2500
S':'
asbag69
(g90
g71
NtRp2501
(dp2502
g74
(dp2503
sg83
g2488
sg76
(lp2504
g69
(g70
g71
NtRp2505
(dp2506
g74
(dp2507
g82
I3
ssg83
g2501
sg76
(lp2508
g1134
asbasbasbag69
(g85
g71
NtRp2509
(dp2510
g74
(dp2511
sg83
g2232
sg76
(lp2512
g69
(g90
g71
NtRp2513
(dp2514
g74
(dp2515
g94
g95
ssg83
g2509
sg76
(lp2516
S'SCRIPT_NAME'
p2517
asbag69
(g90
g71
NtRp2518
(dp2519
g74
(dp2520
g101
g102
ssg83
g2509
sg76
(lp2521
S':'
asbag69
(g90
g71
NtRp2522
(dp2523
g74
(dp2524
sg83
g2509
sg76
(lp2525
g69
(g70
g71
NtRp2526
(dp2527
g74
(dp2528
g82
I3
ssg83
g2522
sg76
(lp2529
S''
asbasbasbag69
(g85
g71
NtRp2530
(dp2531
g74
(dp2532
sg83
g2232
sg76
(lp2533
g69
(g90
g71
NtRp2534
(dp2535
g74
(dp2536
g94
g95
ssg83
g2530
sg76
(lp2537
S'SERVER_NAME'
p2538
asbag69
(g90
g71
NtRp2539
(dp2540
g74
(dp2541
g101
g102
ssg83
g2530
sg76
(lp2542
S':'
asbag69
(g90
g71
NtRp2543
(dp2544
g74
(dp2545
sg83
g2530
sg76
(lp2546
g69
(g70
g71
NtRp2547
(dp2548
g74
(dp2549
g82
I3
ssg83
g2543
sg76
(lp2550
g1177
asbasbasbag69
(g85
g71
NtRp2551
(dp2552
g74
(dp2553
sg83
g2232
sg76
(lp2554
g69
(g90
g71
NtRp2555
(dp2556
g74
(dp2557
g94
g95
ssg83
g2551
sg76
(lp2558
S'SERVER_PORT'
p2559
asbag69
(g90
g71
NtRp2560
(dp2561
g74
(dp2562
g101
g102
ssg83
g2551
sg76
(lp2563
S':'
asbag69
(g90
g71
NtRp2564
(dp2565
g74
(dp2566
sg83
g2551
sg76
(lp2567
g69
(g70
g71
NtRp2568
(dp2569
g74
(dp2570
g82
I3
ssg83
g2564
sg76
(lp2571
g1199
asbasbasbag69
(g85
g71
NtRp2572
(dp2573
g74
(dp2574
sg83
g2232
sg76
(lp2575
g69
(g90
g71
NtRp2576
(dp2577
g74
(dp2578
g94
g95
ssg83
g2572
sg76
(lp2579
S'SERVER_PROTOCOL'
p2580
asbag69
(g90
g71
NtRp2581
(dp2582
g74
(dp2583
g101
g102
ssg83
g2572
sg76
(lp2584
S':'
asbag69
(g90
g71
NtRp2585
(dp2586
g74
(dp2587
sg83
g2572
sg76
(lp2588
g69
(g70
g71
NtRp2589
(dp2590
g74
(dp2591
g82
I3
ssg83
g2585
sg76
(lp2592
g1221
asbasbasbag69
(g85
g71
NtRp2593
(dp2594
g74
(dp2595
sg83
g2232
sg76
(lp2596
g69
(g90
g71
NtRp2597
(dp2598
g74
(dp2599
g94
g95
ssg83
g2593
sg76
(lp2600
S'SERVER_SOFTWARE'
p2601
asbag69
(g90
g71
NtRp2602
(dp2603
g74
(dp2604
g101
g102
ssg83
g2593
sg76
(lp2605
S':'
asbag69
(g90
g71
NtRp2606
(dp2607
g74
(dp2608
sg83
g2593
sg76
(lp2609
g69
(g70
g71
NtRp2610
(dp2611
g74
(dp2612
g82
I3
ssg83
g2606
sg76
(lp2613
g1243
asbasbasbag69
(g85
g71
NtRp2614
(dp2615
g74
(dp2616
sg83
g2232
sg76
(lp2617
g69
(g90
g71
NtRp2618
(dp2619
g74
(dp2620
g94
g95
ssg83
g2614
sg76
(lp2621
S'wsgi.errors'
p2622
asbag69
(g90
g71
NtRp2623
(dp2624
g74
(dp2625
g101
g102
ssg83
g2614
sg76
(lp2626
S':'
asbag69
(g90
g71
NtRp2627
(dp2628
g74
(dp2629
sg83
g2614
sg76
(lp2630
g69
(g70
g71
NtRp2631
(dp2632
g74
(dp2633
g82
I3
ssg83
g2627
sg76
(lp2634
S"<open file '<stderr>', mode 'w' at 0x7f8f17c27270>"
p2635
asbasbasbag69
(g85
g71
NtRp2636
(dp2637
g74
(dp2638
sg83
g2232
sg76
(lp2639
g69
(g90
g71
NtRp2640
(dp2641
g74
(dp2642
g94
g95
ssg83
g2636
sg76
(lp2643
S'wsgi.file_wrapper'
p2644
asbag69
(g90
g71
NtRp2645
(dp2646
g74
(dp2647
g101
g102
ssg83
g2636
sg76
(lp2648
S':'
asbag69
(g90
g71
NtRp2649
(dp2650
g74
(dp2651
sg83
g2636
sg76
(lp2652
g69
(g70
g71
NtRp2653
(dp2654
g74
(dp2655
g82
I3
ssg83
g2649
sg76
(lp2656
S'<class wsgiref.util.FileWrapper at 0x24e2668>'
p2657
asbasbasbag69
(g85
g71
NtRp2658
(dp2659
g74
(dp2660
sg83
g2232
sg76
(lp2661
g69
(g90
g71
NtRp2662
(dp2663
g74
(dp2664
g94
g95
ssg83
g2658
sg76
(lp2665
S'wsgi.input'
p2666
asbag69
(g90
g71
NtRp2667
(dp2668
g74
(dp2669
g101
g102
ssg83
g2658
sg76
(lp2670
S':'
asbag69
(g90
g71
NtRp2671
(dp2672
g74
(dp2673
sg83
g2658
sg76
(lp2674
g69
(g70
g71
NtRp2675
(dp2676
g74
(dp2677
g82
I3
ssg83
g2671
sg76
(lp2678
S'<cStringIO.StringO object at 0x25fb538>'
p2679
asbasbasbag69
(g85
g71
NtRp2680
(dp2681
g74
(dp2682
sg83
g2232
sg76
(lp2683
g69
(g90
g71
NtRp2684
(dp2685
g74
(dp2686
g94
g95
ssg83
g2680
sg76
(lp2687
S'wsgi.multiprocess'
p2688
asbag69
(g90
g71
NtRp2689
(dp2690
g74
(dp2691
g101
g102
ssg83
g2680
sg76
(lp2692
S':'
asbag69
(g90
g71
NtRp2693
(dp2694
g74
(dp2695
sg83
g2680
sg76
(lp2696
g69
(g70
g71
NtRp2697
(dp2698
g74
(dp2699
g82
I3
ssg83
g2693
sg76
(lp2700
g112
asbasbasbag69
(g85
g71
NtRp2701
(dp2702
g74
(dp2703
sg83
g2232
sg76
(lp2704
g69
(g90
g71
NtRp2705
(dp2706
g74
(dp2707
g94
g95
ssg83
g2701
sg76
(lp2708
S'wsgi.multithread'
p2709
asbag69
(g90
g71
NtRp2710
(dp2711
g74
(dp2712
g101
g102
ssg83
g2701
sg76
(lp2713
S':'
asbag69
(g90
g71
NtRp2714
(dp2715
g74
(dp2716
sg83
g2701
sg76
(lp2717
g69
(g70
g71
NtRp2718
(dp2719
g74
(dp2720
g82
I3
ssg83
g2714
sg76
(lp2721
g1483
asbasbasbag69
(g85
g71
NtRp2722
(dp2723
g74
(dp2724
sg83
g2232
sg76
(lp2725
g69
(g90
g71
NtRp2726
(dp2727
g74
(dp2728
g94
g95
ssg83
g2722
sg76
(lp2729
S'wsgi.run_once'
p2730
asbag69
(g90
g71
NtRp2731
(dp2732
g74
(dp2733
g101
g102
ssg83
g2722
sg76
(lp2734
S':'
asbag69
(g90
g71
NtRp2735
(dp2736
g74
(dp2737
sg83
g2722
sg76
(lp2738
g69
(g70
g71
NtRp2739
(dp2740
g74
(dp2741
g82
I3
ssg83
g2735
sg76
(lp2742
g112
asbasbasbag69
(g85
g71
NtRp2743
(dp2744
g74
(dp2745
sg83
g2232
sg76
(lp2746
g69
(g90
g71
NtRp2747
(dp2748
g74
(dp2749
g94
g95
ssg83
g2743
sg76
(lp2750
S'wsgi.url_scheme'
p2751
asbag69
(g90
g71
NtRp2752
(dp2753
g74
(dp2754
g101
g102
ssg83
g2743
sg76
(lp2755
S':'
asbag69
(g90
g71
NtRp2756
(dp2757
g74
(dp2758
sg83
g2743
sg76
(lp2759
g69
(g70
g71
NtRp2760
(dp2761
g74
(dp2762
g82
I3
ssg83
g2756
sg76
(lp2763
g1526
asbasbasbag69
(g85
g71
NtRp2764
(dp2765
g74
(dp2766
sg83
g2232
sg76
(lp2767
g69
(g90
g71
NtRp2768
(dp2769
g74
(dp2770
g94
g95
ssg83
g2764
sg76
(lp2771
S'wsgi.version'
p2772
asbag69
(g90
g71
NtRp2773
(dp2774
g74
(dp2775
g101
g102
ssg83
g2764
sg76
(lp2776
S':'
asbag69
(g90
g71
NtRp2777
(dp2778
g74
(dp2779
sg83
g2764
sg76
(lp2780
g69
(g70
g71
NtRp2781
(dp2782
g74
(dp2783
g82
I3
ssg83
g2777
sg76
(lp2784
S'1'
asbasbasbasbasbasbasbasbasbasbasbasbasbsS'frames'
p2785
(lp2786
(dp2787
S'file'
p2788
S'/home/marco/projects/milanel/web2py/gluon/restricted.py'
p2789
sS'dump'
p2790
(dp2791
S'environment'
p2792
S"{'A': <class 'gluon.html.A'>, 'Auth': <class 'gluon.tools.Auth'>, 'B': <class 'gluon.html.B'>, 'BEAUTIFY': <class 'gluon.html.BEAUTIFY'>, 'BODY': <class 'gluon.html.BODY'>, 'BR': <class 'gluon.html.BR'>, 'BUTTON': <class 'gluon.html.BUTTON'>, 'CAT': <class 'gluon.html.CAT'>, 'CENTER': <class 'gluon.html.CENTER'>, 'CLEANUP': <class 'gluon.validators.CLEANUP'>, ...}"
p2793
sS'ccode'
p2794
S'<code object <module> at 0x2d9b0b0, file "/home/...lications/fragance/models/db_interno.py", line 3>'
p2795
ssS'lnum'
p2796
I205
sS'lines'
p2797
(dp2798
I200
S'    try:'
p2799
sI201
S'        if type(code) == types.CodeType:'
p2800
sI202
S'            ccode = code'
p2801
sI203
S'        else:'
p2802
sI204
S'            ccode = compile2(code,layer)'
p2803
sI205
S'        exec ccode in environment'
p2804
sI206
S'    except HTTP:'
p2805
sI207
S'        raise'
p2806
sI208
S'    except RestrictedError:'
p2807
sI209
S'        # do not encapsulate (obfuscate) the original RestrictedError'
p2808
ssS'call'
p2809
S'(code="# coding: utf8\\n\\ndb.define_table(\'proveedor\',\\n   ....uingreso.requires=IS_DATE(format=T(\'%Y-%m-%d\'))\\n", environment={\'A\': <class \'gluon.html.A\'>, \'Auth\': <class \'gluon.tools.Auth\'>, \'B\': <class \'gluon.html.B\'>, \'BEAUTIFY\': <class \'gluon.html.BEAUTIFY\'>, \'BODY\': <class \'gluon.html.BODY\'>, \'BR\': <class \'gluon.html.BR\'>, \'BUTTON\': <class \'gluon.html.BUTTON\'>, \'CAT\': <class \'gluon.html.CAT\'>, \'CENTER\': <class \'gluon.html.CENTER\'>, \'CLEANUP\': <class \'gluon.validators.CLEANUP\'>, ...}, layer=\'/home/marco/projects/milanel/web2py/applications/fragance/models/db_interno.py\')'
p2810
sS'func'
p2811
S'restricted'
p2812
sa(dp2813
g2788
S'/home/marco/projects/milanel/web2py/applications/fragance/models/db_interno.py'
p2814
sg2790
(dp2815
S'Field'
p2816
S"<class 'gluon.dal.Field'>"
p2817
ssg2796
I34
sg2797
(dp2818
I32
S"    Field('articulo','list:db.articulo'),"
p2819
sI33
S"    Field('total','double'),"
p2820
sI34
S"    Field('fventa','datetime')"
p2821
sI35
S'    )'
p2822
sI36
S''
sI37
S"db.articulo.uingreso.requires=IS_DATE(format=T('%Y-%m-%d'))"
p2823
sI28
S'    )'
p2824
sI29
S''
sI30
S"db.define_table('venta',"
p2825
sI31
S"    Field('cliente',db.cliente),"
p2826
ssg2809
S'()'
p2827
sg2811
S'<module>'
p2828
sa(dp2829
g2788
S'/home/marco/projects/milanel/web2py/gluon/dal.py'
p2830
sg2790
(dp2831
S'polymodel'
p2832
S'None'
p2833
ssg2796
I6320
sg2797
(dp2834
I6315
S"        if migrate or self._adapter.dbengine=='google:datastore':"
p2835
sI6316
S'            try:'
p2836
sI6317
S'                sql_locker.acquire()'
p2837
sI6318
S'                self._adapter.create_table(t,migrate=migrate,'
p2838
sI6319
S'                                           fake_migrate=fake_migrate,'
p2839
sI6320
S'                                           polymodel=polymodel)'
p2840
sI6321
S'            finally:'
p2841
sI6322
S'                sql_locker.release()'
p2842
sI6323
S'        else:'
p2843
sI6324
S'            t._dbt = None'
p2844
ssg2809
S"(self=<DAL {'auth_event': <Table {'origin': <gluon.dal...cilio': <gluon.dal.Field object at 0x2509110>}>}>, tablename='venta', *fields=(<gluon.dal.Field object>, <gluon.dal.Field object>, <gluon.dal.Field object>, <gluon.dal.Field object>), **args={})"
p2845
sg2811
S'define_table'
p2846
sa(dp2847
g2788
S'/home/marco/projects/milanel/web2py/gluon/dal.py'
p2848
sg2790
(dp2849
S'field.type'
p2850
S"'list:db.articulo'"
p2851
sS'field'
p2852
S'<gluon.dal.Field object>'
p2853
sS'field.name'
p2854
S"'articulo'"
p2855
ssg2796
I638
sg2797
(dp2856
I640
S'                ftype = self.types[field.type]\\'
p2857
sI641
S'                     % dict(length=field.length)'
p2858
sI642
S"            if not field.type.startswith('id') and not field.type.startswith('reference'):"
p2859
sI633
S"                precision, scale = map(int,field.type[8:-1].split(','))"
p2860
sI634
S'                ftype = self.types[field.type[:7]] % \\'
p2861
sI635
S'                    dict(precision=precision,scale=scale)'
p2862
sI636
S'            elif not field.type in self.types:'
p2863
sI637
S"                raise SyntaxError, 'Field: unknown field type: %s for %s' % \\"
p2864
sI638
S'                    (field.type, field.name)'
p2865
sI639
S'            else:'
p2866
ssg2809
S"(self=<gluon.dal.SQLiteAdapter object>, table=<Table {'total': <gluon.dal.Field object at 0x25...0>, 'id': <gluon.dal.Field object at 0x2509410>}>, migrate=True, fake_migrate=False, polymodel=None)"
p2867
sg2811
S'create_table'
p2868
sasS'pyver'
p2869
S'Python 2.7.3rc1: /usr/bin/python'
p2870
sS'session'
p2871
g69
(g70
g71
NtRp2872
(dp2873
g74
(dp2874
sg76
(lp2875
g69
(g78
g71
NtRp2876
(dp2877
g74
(dp2878
g82
I5
ssg83
Nsg76
(lp2879
sbasbsS'etype'
p2880
S"<type 'exceptions.SyntaxError'>"
p2881
sS'date'
p2882
S'Sun Mar 18 13:08:56 2012'
p2883
sS'response'
p2884
g69
(g70
g71
NtRp2885
(dp2886
g74
(dp2887
sg76
(lp2888
g69
(g78
g71
NtRp2889
(dp2890
g74
(dp2891
g82
I5
ssg83
Nsg76
(lp2892
g69
(g85
g71
NtRp2893
(dp2894
g74
(dp2895
sg83
g2889
sg76
(lp2896
g69
(g90
g71
NtRp2897
(dp2898
g74
(dp2899
g94
g95
ssg83
g2893
sg76
(lp2900
g167
asbag69
(g90
g71
NtRp2901
(dp2902
g74
(dp2903
g101
g102
ssg83
g2893
sg76
(lp2904
S':'
asbag69
(g90
g71
NtRp2905
(dp2906
g74
(dp2907
sg83
g2893
sg76
(lp2908
g69
(g70
g71
NtRp2909
(dp2910
g74
(dp2911
g82
I5
ssg83
g2905
sg76
(lp2912
S'<cStringIO.StringO object at 0x20e05e0>'
p2913
asbasbasbag69
(g85
g71
NtRp2914
(dp2915
g74
(dp2916
sg83
g2889
sg76
(lp2917
g69
(g90
g71
NtRp2918
(dp2919
g74
(dp2920
g94
g95
ssg83
g2914
sg76
(lp2921
g233
asbag69
(g90
g71
NtRp2922
(dp2923
g74
(dp2924
g101
g102
ssg83
g2914
sg76
(lp2925
S':'
asbag69
(g90
g71
NtRp2926
(dp2927
g74
(dp2928
sg83
g2914
sg76
(lp2929
g69
(g70
g71
NtRp2930
(dp2931
g74
(dp2932
g82
I5
ssg83
g2926
sg76
(lp2933
g69
(g78
g71
NtRp2934
(dp2935
g74
(dp2936
g82
I4
ssg83
Nsg76
(lp2937
g69
(g85
g71
NtRp2938
(dp2939
g74
(dp2940
sg83
g2934
sg76
(lp2941
g69
(g90
g71
NtRp2942
(dp2943
g74
(dp2944
g94
g95
ssg83
g2938
sg76
(lp2945
S'session_id_fragance'
p2946
asbag69
(g90
g71
NtRp2947
(dp2948
g74
(dp2949
g101
g102
ssg83
g2938
sg76
(lp2950
S':'
asbag69
(g90
g71
NtRp2951
(dp2952
g74
(dp2953
sg83
g2938
sg76
(lp2954
g69
(g70
g71
NtRp2955
(dp2956
g74
(dp2957
g82
I4
ssg83
g2951
sg76
(lp2958
g69
(g78
g71
NtRp2959
(dp2960
g74
(dp2961
g82
I3
ssg83
Nsg76
(lp2962
g69
(g85
g71
NtRp2963
(dp2964
g74
(dp2965
sg83
g2959
sg76
(lp2966
g69
(g90
g71
NtRp2967
(dp2968
g74
(dp2969
g94
g95
ssg83
g2963
sg76
(lp2970
g283
asbag69
(g90
g71
NtRp2971
(dp2972
g74
(dp2973
g101
g102
ssg83
g2963
sg76
(lp2974
S':'
asbag69
(g90
g71
NtRp2975
(dp2976
g74
(dp2977
sg83
g2963
sg76
(lp2978
g69
(g70
g71
NtRp2979
(dp2980
g74
(dp2981
g82
I3
ssg83
g2975
sg76
(lp2982
S''
asbasbasbag69
(g85
g71
NtRp2983
(dp2984
g74
(dp2985
sg83
g2959
sg76
(lp2986
g69
(g90
g71
NtRp2987
(dp2988
g74
(dp2989
g94
g95
ssg83
g2983
sg76
(lp2990
g304
asbag69
(g90
g71
NtRp2991
(dp2992
g74
(dp2993
g101
g102
ssg83
g2983
sg76
(lp2994
S':'
asbag69
(g90
g71
NtRp2995
(dp2996
g74
(dp2997
sg83
g2983
sg76
(lp2998
g69
(g70
g71
NtRp2999
(dp3000
g74
(dp3001
g82
I3
ssg83
g2995
sg76
(lp3002
S''
asbasbasbag69
(g85
g71
NtRp3003
(dp3004
g74
(dp3005
sg83
g2959
sg76
(lp3006
g69
(g90
g71
NtRp3007
(dp3008
g74
(dp3009
g94
g95
ssg83
g3003
sg76
(lp3010
g325
asbag69
(g90
g71
NtRp3011
(dp3012
g74
(dp3013
g101
g102
ssg83
g3003
sg76
(lp3014
S':'
asbag69
(g90
g71
NtRp3015
(dp3016
g74
(dp3017
sg83
g3003
sg76
(lp3018
g69
(g70
g71
NtRp3019
(dp3020
g74
(dp3021
g82
I3
ssg83
g3015
sg76
(lp3022
S''
asbasbasbag69
(g85
g71
NtRp3023
(dp3024
g74
(dp3025
sg83
g2959
sg76
(lp3026
g69
(g90
g71
NtRp3027
(dp3028
g74
(dp3029
g94
g95
ssg83
g3023
sg76
(lp3030
g346
asbag69
(g90
g71
NtRp3031
(dp3032
g74
(dp3033
g101
g102
ssg83
g3023
sg76
(lp3034
S':'
asbag69
(g90
g71
NtRp3035
(dp3036
g74
(dp3037
sg83
g3023
sg76
(lp3038
g69
(g70
g71
NtRp3039
(dp3040
g74
(dp3041
g82
I3
ssg83
g3035
sg76
(lp3042
S''
asbasbasbag69
(g85
g71
NtRp3043
(dp3044
g74
(dp3045
sg83
g2959
sg76
(lp3046
g69
(g90
g71
NtRp3047
(dp3048
g74
(dp3049
g94
g95
ssg83
g3043
sg76
(lp3050
g367
asbag69
(g90
g71
NtRp3051
(dp3052
g74
(dp3053
g101
g102
ssg83
g3043
sg76
(lp3054
S':'
asbag69
(g90
g71
NtRp3055
(dp3056
g74
(dp3057
sg83
g3043
sg76
(lp3058
g69
(g70
g71
NtRp3059
(dp3060
g74
(dp3061
g82
I3
ssg83
g3055
sg76
(lp3062
S''
asbasbasbag69
(g85
g71
NtRp3063
(dp3064
g74
(dp3065
sg83
g2959
sg76
(lp3066
g69
(g90
g71
NtRp3067
(dp3068
g74
(dp3069
g94
g95
ssg83
g3063
sg76
(lp3070
g388
asbag69
(g90
g71
NtRp3071
(dp3072
g74
(dp3073
g101
g102
ssg83
g3063
sg76
(lp3074
S':'
asbag69
(g90
g71
NtRp3075
(dp3076
g74
(dp3077
sg83
g3063
sg76
(lp3078
g69
(g70
g71
NtRp3079
(dp3080
g74
(dp3081
g82
I3
ssg83
g3075
sg76
(lp3082
S'/'
asbasbasbag69
(g85
g71
NtRp3083
(dp3084
g74
(dp3085
sg83
g2959
sg76
(lp3086
g69
(g90
g71
NtRp3087
(dp3088
g74
(dp3089
g94
g95
ssg83
g3083
sg76
(lp3090
g409
asbag69
(g90
g71
NtRp3091
(dp3092
g74
(dp3093
g101
g102
ssg83
g3083
sg76
(lp3094
S':'
asbag69
(g90
g71
NtRp3095
(dp3096
g74
(dp3097
sg83
g3083
sg76
(lp3098
g69
(g70
g71
NtRp3099
(dp3100
g74
(dp3101
g82
I3
ssg83
g3095
sg76
(lp3102
S''
asbasbasbag69
(g85
g71
NtRp3103
(dp3104
g74
(dp3105
sg83
g2959
sg76
(lp3106
g69
(g90
g71
NtRp3107
(dp3108
g74
(dp3109
g94
g95
ssg83
g3103
sg76
(lp3110
g430
asbag69
(g90
g71
NtRp3111
(dp3112
g74
(dp3113
g101
g102
ssg83
g3103
sg76
(lp3114
S':'
asbag69
(g90
g71
NtRp3115
(dp3116
g74
(dp3117
sg83
g3103
sg76
(lp3118
g69
(g70
g71
NtRp3119
(dp3120
g74
(dp3121
g82
I3
ssg83
g3115
sg76
(lp3122
S''
asbasbasbasbasbasbasbasbasbasbasbag69
(g85
g71
NtRp3123
(dp3124
g74
(dp3125
sg83
g2889
sg76
(lp3126
g69
(g90
g71
NtRp3127
(dp3128
g74
(dp3129
g94
g95
ssg83
g3123
sg76
(lp3130
S'delimiters'
p3131
asbag69
(g90
g71
NtRp3132
(dp3133
g74
(dp3134
g101
g102
ssg83
g3123
sg76
(lp3135
S':'
asbag69
(g90
g71
NtRp3136
(dp3137
g74
(dp3138
sg83
g3123
sg76
(lp3139
g69
(g70
g71
NtRp3140
(dp3141
g74
(dp3142
g82
I5
ssg83
g3136
sg76
(lp3143
g69
(g78
g71
NtRp3144
(dp3145
g74
(dp3146
g82
I4
ssg83
Nsg76
(lp3147
g69
(g85
g71
NtRp3148
(dp3149
g74
(dp3150
sg83
g3144
sg76
(lp3151
g69
(g90
g71
NtRp3152
(dp3153
g74
(dp3154
sg83
g3148
sg76
(lp3155
g69
(g70
g71
NtRp3156
(dp3157
g74
(dp3158
g82
I4
ssg83
g3152
sg76
(lp3159
S'{{'
p3160
asbasbasbag69
(g85
g71
NtRp3161
(dp3162
g74
(dp3163
sg83
g3144
sg76
(lp3164
g69
(g90
g71
NtRp3165
(dp3166
g74
(dp3167
sg83
g3161
sg76
(lp3168
g69
(g70
g71
NtRp3169
(dp3170
g74
(dp3171
g82
I4
ssg83
g3165
sg76
(lp3172
S'}}'
p3173
asbasbasbasbasbasbasbag69
(g85
g71
NtRp3174
(dp3175
g74
(dp3176
sg83
g2889
sg76
(lp3177
g69
(g90
g71
NtRp3178
(dp3179
g74
(dp3180
g94
g95
ssg83
g3174
sg76
(lp3181
S'files'
p3182
asbag69
(g90
g71
NtRp3183
(dp3184
g74
(dp3185
g101
g102
ssg83
g3174
sg76
(lp3186
S':'
asbag69
(g90
g71
NtRp3187
(dp3188
g74
(dp3189
sg83
g3174
sg76
(lp3190
g69
(g70
g71
NtRp3191
(dp3192
g74
(dp3193
g82
I5
ssg83
g3187
sg76
(lp3194
g69
(g78
g71
NtRp3195
(dp3196
g74
(dp3197
g82
I4
ssg83
Nsg76
(lp3198
sbasbasbasbag69
(g85
g71
NtRp3199
(dp3200
g74
(dp3201
sg83
g2889
sg76
(lp3202
g69
(g90
g71
NtRp3203
(dp3204
g74
(dp3205
g94
g95
ssg83
g3199
sg76
(lp3206
S'flash'
p3207
asbag69
(g90
g71
NtRp3208
(dp3209
g74
(dp3210
g101
g102
ssg83
g3199
sg76
(lp3211
S':'
asbag69
(g90
g71
NtRp3212
(dp3213
g74
(dp3214
sg83
g3199
sg76
(lp3215
g69
(g70
g71
NtRp3216
(dp3217
g74
(dp3218
g82
I5
ssg83
g3212
sg76
(lp3219
S''
asbasbasbag69
(g85
g71
NtRp3220
(dp3221
g74
(dp3222
sg83
g2889
sg76
(lp3223
g69
(g90
g71
NtRp3224
(dp3225
g74
(dp3226
g94
g95
ssg83
g3220
sg76
(lp3227
S'generic_patterns'
p3228
asbag69
(g90
g71
NtRp3229
(dp3230
g74
(dp3231
g101
g102
ssg83
g3220
sg76
(lp3232
S':'
asbag69
(g90
g71
NtRp3233
(dp3234
g74
(dp3235
sg83
g3220
sg76
(lp3236
g69
(g70
g71
NtRp3237
(dp3238
g74
(dp3239
g82
I5
ssg83
g3233
sg76
(lp3240
g69
(g78
g71
NtRp3241
(dp3242
g74
(dp3243
g82
I4
ssg83
Nsg76
(lp3244
g69
(g85
g71
NtRp3245
(dp3246
g74
(dp3247
sg83
g3241
sg76
(lp3248
g69
(g90
g71
NtRp3249
(dp3250
g74
(dp3251
sg83
g3245
sg76
(lp3252
g69
(g70
g71
NtRp3253
(dp3254
g74
(dp3255
g82
I4
ssg83
g3249
sg76
(lp3256
S'*'
asbasbasbasbasbasbasbag69
(g85
g71
NtRp3257
(dp3258
g74
(dp3259
sg83
g2889
sg76
(lp3260
g69
(g90
g71
NtRp3261
(dp3262
g74
(dp3263
g94
g95
ssg83
g3257
sg76
(lp3264
S'headers'
p3265
asbag69
(g90
g71
NtRp3266
(dp3267
g74
(dp3268
g101
g102
ssg83
g3257
sg76
(lp3269
S':'
asbag69
(g90
g71
NtRp3270
(dp3271
g74
(dp3272
sg83
g3257
sg76
(lp3273
g69
(g70
g71
NtRp3274
(dp3275
g74
(dp3276
g82
I5
ssg83
g3270
sg76
(lp3277
g69
(g78
g71
NtRp3278
(dp3279
g74
(dp3280
g82
I4
ssg83
Nsg76
(lp3281
g69
(g85
g71
NtRp3282
(dp3283
g74
(dp3284
sg83
g3278
sg76
(lp3285
g69
(g90
g71
NtRp3286
(dp3287
g74
(dp3288
g94
g95
ssg83
g3282
sg76
(lp3289
S'Cache-Control'
p3290
asbag69
(g90
g71
NtRp3291
(dp3292
g74
(dp3293
g101
g102
ssg83
g3282
sg76
(lp3294
S':'
asbag69
(g90
g71
NtRp3295
(dp3296
g74
(dp3297
sg83
g3282
sg76
(lp3298
g69
(g70
g71
NtRp3299
(dp3300
g74
(dp3301
g82
I4
ssg83
g3295
sg76
(lp3302
S'no-store, no-cache, must-revalidate, post-check=0, pre-check=0'
p3303
asbasbasbag69
(g85
g71
NtRp3304
(dp3305
g74
(dp3306
sg83
g3278
sg76
(lp3307
g69
(g90
g71
NtRp3308
(dp3309
g74
(dp3310
g94
g95
ssg83
g3304
sg76
(lp3311
S'Content-Type'
p3312
asbag69
(g90
g71
NtRp3313
(dp3314
g74
(dp3315
g101
g102
ssg83
g3304
sg76
(lp3316
S':'
asbag69
(g90
g71
NtRp3317
(dp3318
g74
(dp3319
sg83
g3304
sg76
(lp3320
g69
(g70
g71
NtRp3321
(dp3322
g74
(dp3323
g82
I4
ssg83
g3317
sg76
(lp3324
S'text/html; charset=utf-8'
p3325
asbasbasbag69
(g85
g71
NtRp3326
(dp3327
g74
(dp3328
sg83
g3278
sg76
(lp3329
g69
(g90
g71
NtRp3330
(dp3331
g74
(dp3332
g94
g95
ssg83
g3326
sg76
(lp3333
S'Expires'
p3334
asbag69
(g90
g71
NtRp3335
(dp3336
g74
(dp3337
g101
g102
ssg83
g3326
sg76
(lp3338
S':'
asbag69
(g90
g71
NtRp3339
(dp3340
g74
(dp3341
sg83
g3326
sg76
(lp3342
g69
(g70
g71
NtRp3343
(dp3344
g74
(dp3345
g82
I4
ssg83
g3339
sg76
(lp3346
S'Sun, 18 Mar 2012 16:08:56 GMT'
p3347
asbasbasbag69
(g85
g71
NtRp3348
(dp3349
g74
(dp3350
sg83
g3278
sg76
(lp3351
g69
(g90
g71
NtRp3352
(dp3353
g74
(dp3354
g94
g95
ssg83
g3348
sg76
(lp3355
S'Pragma'
p3356
asbag69
(g90
g71
NtRp3357
(dp3358
g74
(dp3359
g101
g102
ssg83
g3348
sg76
(lp3360
S':'
asbag69
(g90
g71
NtRp3361
(dp3362
g74
(dp3363
sg83
g3348
sg76
(lp3364
g69
(g70
g71
NtRp3365
(dp3366
g74
(dp3367
g82
I4
ssg83
g3361
sg76
(lp3368
S'no-cache'
p3369
asbasbasbag69
(g85
g71
NtRp3370
(dp3371
g74
(dp3372
sg83
g3278
sg76
(lp3373
g69
(g90
g71
NtRp3374
(dp3375
g74
(dp3376
g94
g95
ssg83
g3370
sg76
(lp3377
S'X-Powered-By'
p3378
asbag69
(g90
g71
NtRp3379
(dp3380
g74
(dp3381
g101
g102
ssg83
g3370
sg76
(lp3382
S':'
asbag69
(g90
g71
NtRp3383
(dp3384
g74
(dp3385
sg83
g3370
sg76
(lp3386
g69
(g70
g71
NtRp3387
(dp3388
g74
(dp3389
g82
I4
ssg83
g3383
sg76
(lp3390
S'web2py'
p3391
asbasbasbasbasbasbasbag69
(g85
g71
NtRp3392
(dp3393
g74
(dp3394
sg83
g2889
sg76
(lp3395
g69
(g90
g71
NtRp3396
(dp3397
g74
(dp3398
g94
g95
ssg83
g3392
sg76
(lp3399
S'menu'
p3400
asbag69
(g90
g71
NtRp3401
(dp3402
g74
(dp3403
g101
g102
ssg83
g3392
sg76
(lp3404
S':'
asbag69
(g90
g71
NtRp3405
(dp3406
g74
(dp3407
sg83
g3392
sg76
(lp3408
g69
(g70
g71
NtRp3409
(dp3410
g74
(dp3411
g82
I5
ssg83
g3405
sg76
(lp3412
g69
(g78
g71
NtRp3413
(dp3414
g74
(dp3415
g82
I4
ssg83
Nsg76
(lp3416
sbasbasbasbag69
(g85
g71
NtRp3417
(dp3418
g74
(dp3419
sg83
g2889
sg76
(lp3420
g69
(g90
g71
NtRp3421
(dp3422
g74
(dp3423
g94
g95
ssg83
g3417
sg76
(lp3424
S'meta'
p3425
asbag69
(g90
g71
NtRp3426
(dp3427
g74
(dp3428
g101
g102
ssg83
g3417
sg76
(lp3429
S':'
asbag69
(g90
g71
NtRp3430
(dp3431
g74
(dp3432
sg83
g3417
sg76
(lp3433
g69
(g70
g71
NtRp3434
(dp3435
g74
(dp3436
g82
I5
ssg83
g3430
sg76
(lp3437
g69
(g78
g71
NtRp3438
(dp3439
g74
(dp3440
g82
I4
ssg83
Nsg76
(lp3441
sbasbasbasbag69
(g85
g71
NtRp3442
(dp3443
g74
(dp3444
sg83
g2889
sg76
(lp3445
g69
(g90
g71
NtRp3446
(dp3447
g74
(dp3448
g94
g95
ssg83
g3442
sg76
(lp3449
S'postprocessing'
p3450
asbag69
(g90
g71
NtRp3451
(dp3452
g74
(dp3453
g101
g102
ssg83
g3442
sg76
(lp3454
S':'
asbag69
(g90
g71
NtRp3455
(dp3456
g74
(dp3457
sg83
g3442
sg76
(lp3458
g69
(g70
g71
NtRp3459
(dp3460
g74
(dp3461
g82
I5
ssg83
g3455
sg76
(lp3462
g69
(g78
g71
NtRp3463
(dp3464
g74
(dp3465
g82
I4
ssg83
Nsg76
(lp3466
sbasbasbasbag69
(g85
g71
NtRp3467
(dp3468
g74
(dp3469
sg83
g2889
sg76
(lp3470
g69
(g90
g71
NtRp3471
(dp3472
g74
(dp3473
g94
g95
ssg83
g3467
sg76
(lp3474
S'session_file'
p3475
asbag69
(g90
g71
NtRp3476
(dp3477
g74
(dp3478
g101
g102
ssg83
g3467
sg76
(lp3479
S':'
asbag69
(g90
g71
NtRp3480
(dp3481
g74
(dp3482
sg83
g3467
sg76
(lp3483
g69
(g70
g71
NtRp3484
(dp3485
g74
(dp3486
g82
I5
ssg83
g3480
sg76
(lp3487
S"<open file '/home/marco/projects/milanel/web2py/applications/fragance/sessions/127.0.0.1-2a880558-8c40-408d-a9a1-542af55b579f', mode 'rb+' at 0x20a5db0>"
p3488
asbasbasbag69
(g85
g71
NtRp3489
(dp3490
g74
(dp3491
sg83
g2889
sg76
(lp3492
g69
(g90
g71
NtRp3493
(dp3494
g74
(dp3495
g94
g95
ssg83
g3489
sg76
(lp3496
S'session_filename'
p3497
asbag69
(g90
g71
NtRp3498
(dp3499
g74
(dp3500
g101
g102
ssg83
g3489
sg76
(lp3501
S':'
asbag69
(g90
g71
NtRp3502
(dp3503
g74
(dp3504
sg83
g3489
sg76
(lp3505
g69
(g70
g71
NtRp3506
(dp3507
g74
(dp3508
g82
I5
ssg83
g3502
sg76
(lp3509
S'/home/marco/projects/milanel/web2py/applications/fragance/sessions/127.0.0.1-2a880558-8c40-408d-a9a1-542af55b579f'
p3510
asbasbasbag69
(g85
g71
NtRp3511
(dp3512
g74
(dp3513
sg83
g2889
sg76
(lp3514
g69
(g90
g71
NtRp3515
(dp3516
g74
(dp3517
g94
g95
ssg83
g3511
sg76
(lp3518
S'session_id'
p3519
asbag69
(g90
g71
NtRp3520
(dp3521
g74
(dp3522
g101
g102
ssg83
g3511
sg76
(lp3523
S':'
asbag69
(g90
g71
NtRp3524
(dp3525
g74
(dp3526
sg83
g3511
sg76
(lp3527
g69
(g70
g71
NtRp3528
(dp3529
g74
(dp3530
g82
I5
ssg83
g3524
sg76
(lp3531
S'127.0.0.1-2a880558-8c40-408d-a9a1-542af55b579f'
p3532
asbasbasbag69
(g85
g71
NtRp3533
(dp3534
g74
(dp3535
sg83
g2889
sg76
(lp3536
g69
(g90
g71
NtRp3537
(dp3538
g74
(dp3539
g94
g95
ssg83
g3533
sg76
(lp3540
S'session_id_name'
p3541
asbag69
(g90
g71
NtRp3542
(dp3543
g74
(dp3544
g101
g102
ssg83
g3533
sg76
(lp3545
S':'
asbag69
(g90
g71
NtRp3546
(dp3547
g74
(dp3548
sg83
g3533
sg76
(lp3549
g69
(g70
g71
NtRp3550
(dp3551
g74
(dp3552
g82
I5
ssg83
g3546
sg76
(lp3553
g2946
asbasbasbag69
(g85
g71
NtRp3554
(dp3555
g74
(dp3556
sg83
g2889
sg76
(lp3557
g69
(g90
g71
NtRp3558
(dp3559
g74
(dp3560
g94
g95
ssg83
g3554
sg76
(lp3561
S'session_locked'
p3562
asbag69
(g90
g71
NtRp3563
(dp3564
g74
(dp3565
g101
g102
ssg83
g3554
sg76
(lp3566
S':'
asbag69
(g90
g71
NtRp3567
(dp3568
g74
(dp3569
sg83
g3554
sg76
(lp3570
g69
(g70
g71
NtRp3571
(dp3572
g74
(dp3573
g82
I5
ssg83
g3567
sg76
(lp3574
g1483
asbasbasbag69
(g85
g71
NtRp3575
(dp3576
g74
(dp3577
sg83
g2889
sg76
(lp3578
g69
(g90
g71
NtRp3579
(dp3580
g74
(dp3581
g94
g95
ssg83
g3575
sg76
(lp3582
S'session_new'
p3583
asbag69
(g90
g71
NtRp3584
(dp3585
g74
(dp3586
g101
g102
ssg83
g3575
sg76
(lp3587
S':'
asbag69
(g90
g71
NtRp3588
(dp3589
g74
(dp3590
sg83
g3575
sg76
(lp3591
g69
(g70
g71
NtRp3592
(dp3593
g74
(dp3594
g82
I5
ssg83
g3588
sg76
(lp3595
g112
asbasbasbag69
(g85
g71
NtRp3596
(dp3597
g74
(dp3598
sg83
g2889
sg76
(lp3599
g69
(g90
g71
NtRp3600
(dp3601
g74
(dp3602
g94
g95
ssg83
g3596
sg76
(lp3603
S'status'
p3604
asbag69
(g90
g71
NtRp3605
(dp3606
g74
(dp3607
g101
g102
ssg83
g3596
sg76
(lp3608
S':'
asbag69
(g90
g71
NtRp3609
(dp3610
g74
(dp3611
sg83
g3596
sg76
(lp3612
g69
(g70
g71
NtRp3613
(dp3614
g74
(dp3615
g82
I5
ssg83
g3609
sg76
(lp3616
S'200'
p3617
asbasbasbag69
(g85
g71
NtRp3618
(dp3619
g74
(dp3620
sg83
g2889
sg76
(lp3621
g69
(g90
g71
NtRp3622
(dp3623
g74
(dp3624
g94
g95
ssg83
g3618
sg76
(lp3625
g2147
asbag69
(g90
g71
NtRp3626
(dp3627
g74
(dp3628
g101
g102
ssg83
g3618
sg76
(lp3629
S':'
asbag69
(g90
g71
NtRp3630
(dp3631
g74
(dp3632
sg83
g3618
sg76
(lp3633
g69
(g70
g71
NtRp3634
(dp3635
g74
(dp3636
g82
I5
ssg83
g3630
sg76
(lp3637
g2160
asbasbasbag69
(g85
g71
NtRp3638
(dp3639
g74
(dp3640
sg83
g2889
sg76
(lp3641
g69
(g90
g71
NtRp3642
(dp3643
g74
(dp3644
g94
g95
ssg83
g3638
sg76
(lp3645
S'view'
p3646
asbag69
(g90
g71
NtRp3647
(dp3648
g74
(dp3649
g101
g102
ssg83
g3638
sg76
(lp3650
S':'
asbag69
(g90
g71
NtRp3651
(dp3652
g74
(dp3653
sg83
g3638
sg76
(lp3654
g69
(g70
g71
NtRp3655
(dp3656
g74
(dp3657
g82
I5
ssg83
g3651
sg76
(lp3658
S'salidas/index.html'
p3659
asbasbasbasbasbsS'locals'
p3660
(dp3661
S'polymodel'
p3662
S'None'
p3663
sS'referenced'
p3664
S"'cliente'"
p3665
sS'sortable'
p3666
S'3'
sS'sql_fields_aux'
p3667
S"{'cliente': {'sql': 'INTEGER REFERENCES cliente(id) ON DELETE CASCADE'}, 'id': {'sql': 'INTEGER PRIMARY KEY AUTOINCREMENT'}}"
p3668
sS'TFK'
p3669
g21
sS'migrate'
p3670
g1483
sS'fields'
p3671
S"['id INTEGER PRIMARY KEY AUTOINCREMENT', 'cliente INTEGER REFERENCES cliente(id) ON DELETE CASCADE']"
p3672
sS'k'
S"'articulo'"
p3673
sS'tablename'
p3674
S"'venta'"
p3675
sS'fake_migrate'
p3676
g112
sS'field'
p3677
S'<gluon.dal.Field object>'
p3678
sS'ftype'
p3679
S"'INTEGER REFERENCES cliente(id) ON DELETE CASCADE'"
p3680
sS'constraint_name'
p3681
S"'venta_cliente__constraint'"
p3682
sS'table'
p3683
S"<Table {'total': <gluon.dal.Field object at 0x25...0>, 'id': <gluon.dal.Field object at 0x2509410>}>"
p3684
sS'sql_fields'
p3685
S"{'cliente': {'sortable': 2, 'sql': 'INTEGER REFERENCES cliente(id) ON DELETE CASCADE', 'type': 'reference cliente'}, 'id': {'sortable': 1, 'sql': 'INTEGER PRIMARY KEY AUTOINCREMENT', 'type': 'id'}}"
p3686
sS'self'
p3687
S'<gluon.dal.SQLiteAdapter object>'
p3688
sS'id_fieldname'
p3689
S"'id'"
p3690
sssS'traceback'
p3691
S'Traceback (most recent call last):\n  File "/home/marco/projects/milanel/web2py/gluon/restricted.py", line 205, in restricted\n    exec ccode in environment\n  File "/home/marco/projects/milanel/web2py/applications/fragance/models/db_interno.py", line 34, in <module>\n    Field(\'fventa\',\'datetime\')\n  File "/home/marco/projects/milanel/web2py/gluon/dal.py", line 6320, in define_table\n    polymodel=polymodel)\n  File "/home/marco/projects/milanel/web2py/gluon/dal.py", line 638, in create_table\n    (field.type, field.name)\nSyntaxError: Field: unknown field type: list:db.articulo for articulo\n'
p3692
s.