(dp1
S'output'
p2
S"<type 'exceptions.SyntaxError'> invalid syntax (db_interno.py, line 25)"
p3
sS'layer'
p4
S'/home/marco/projects/milanel/web2py/applications/fragance/models/db_interno.py'
p5
sS'code'
p6
S"# coding: utf8\n\ndb.define_table('proveedor',\n    Field('nombre'),\n    Field('telefono','integer'),\n    Field('domicilio'),\n    Field('email','string'),\n    format='%(id)s - %(nombre)s'\n    \n    )\n\ndb.define_table('articulo',\n    Field('codigo','integer'),\n    Field('descripcion','string'),\n    Field('cantidad','integer'),\n    Field('plista','double'),\n    Field('proveedor',db.proveedor),\n    Field('uingreso','date'),\n    format='%(descripcion)s'\n    )\n\ndb.define_table('cliente',\n    Field('nombre'),\n    Field('rsocial')\n    Field('domicilio'),\n    Field('telefono','integer'),\n    Field('color'),\n    format='%(id)s - %(nombre)s'\n    )\n\ndb.define_table('venta',\n    Field('cliente',db.cliente),\n    Field('articulo','list:integer'),\n    Field('total','double'),\n    Field('fventa','datetime')\n    )\n"
p7
sS'snapshot'
p8
(dp9
S'pyver'
p10
S'Python 2.7.2: /usr/bin/pypy'
p11
sS'exception'
p12
(dp13
S'__module__'
p14
S"'exceptions'"
p15
sS'__getitem__'
p16
S'<bound method SyntaxError.__getitem__ of SyntaxE...rno.py\', 25, 4, "    Field(\'domicilio\'),\\n", 0))>'
p17
sS'__setstate__'
p18
S'<bound method SyntaxError.__setstate__ of Syntax...rno.py\', 25, 4, "    Field(\'domicilio\'),\\n", 0))>'
p19
sS'__getattribute__'
p20
S'<bound method SyntaxError.__getattribute__ of Sy...rno.py\', 25, 4, "    Field(\'domicilio\'),\\n", 0))>'
p21
sS'__str__'
p22
S'<bound method SyntaxError.__str__ of SyntaxError...rno.py\', 25, 4, "    Field(\'domicilio\'),\\n", 0))>'
p23
sS'args'
p24
S'(\'invalid syntax\', (\'/home/marco/projects/milanel/web2py/applications/fragance/models/db_interno.py\', 25, 4, "    Field(\'domicilio\'),\\n"))'
p25
sS'__reduce__'
p26
S'<bound method SyntaxError.__reduce__ of SyntaxEr...rno.py\', 25, 4, "    Field(\'domicilio\'),\\n", 0))>'
p27
sS'msg'
p28
S"'invalid syntax'"
p29
sS'__subclasshook__'
p30
S"<bound method type.__subclasshook__ of <type 'exceptions.SyntaxError'>>"
p31
sS'offset'
p32
S'4'
p33
sS'__dict__'
p34
S'{}'
p35
sS'lastlineno'
p36
S'0'
p37
sS'__unicode__'
p38
S'<bound method SyntaxError.__unicode__ of SyntaxE...rno.py\', 25, 4, "    Field(\'domicilio\'),\\n", 0))>'
p39
sS'__setattr__'
p40
S'<bound method SyntaxError.__setattr__ of SyntaxE...rno.py\', 25, 4, "    Field(\'domicilio\'),\\n", 0))>'
p41
sS'__reduce_ex__'
p42
S'<bound method SyntaxError.__reduce_ex__ of Synta...rno.py\', 25, 4, "    Field(\'domicilio\'),\\n", 0))>'
p43
sS'print_file_and_line'
p44
S'None'
p45
sS'__new__'
p46
S'<function __new__>'
p47
sS'__format__'
p48
S'<bound method SyntaxError.__format__ of SyntaxEr...rno.py\', 25, 4, "    Field(\'domicilio\'),\\n", 0))>'
p49
sS'__class__'
p50
S"<type 'exceptions.SyntaxError'>"
p51
sS'filename'
p52
S"'/home/marco/projects/milanel/web2py/applications/fragance/models/db_interno.py'"
p53
sS'__delattr__'
p54
S'<bound method SyntaxError.__delattr__ of SyntaxE...rno.py\', 25, 4, "    Field(\'domicilio\'),\\n", 0))>'
p55
sS'__repr__'
p56
S'<bound method SyntaxError.__repr__ of SyntaxErro...rno.py\', 25, 4, "    Field(\'domicilio\'),\\n", 0))>'
p57
sS'__init__'
p58
S'<bound method SyntaxError.__init__ of SyntaxErro...rno.py\', 25, 4, "    Field(\'domicilio\'),\\n", 0))>'
p59
sS'text'
p60
S'"    Field(\'domicilio\'),\\n"'
p61
sS'__hash__'
p62
S'<bound method SyntaxError.__hash__ of SyntaxErro...rno.py\', 25, 4, "    Field(\'domicilio\'),\\n", 0))>'
p63
sS'__doc__'
p64
S"'Invalid syntax.'"
p65
sS'lineno'
p66
S'25'
p67
ssS'session'
p68
ccopy_reg
_reconstructor
p69
(cgluon.html
BEAUTIFY
p70
c__builtin__
object
p71
Ntp72
Rp73
(dp74
S'attributes'
p75
(dp76
sS'components'
p77
(lp78
g69
(cgluon.html
TABLE
p79
g71
Ntp80
Rp81
(dp82
S'parent'
p83
Nsg75
(dp84
S'level'
p85
I5
ssg77
(lp86
g69
(cgluon.html
TR
p87
g71
Ntp88
Rp89
(dp90
g83
g81
sg75
(dp91
sg77
(lp92
g69
(cgluon.html
TD
p93
g71
Ntp94
Rp95
(dp96
g83
g89
sg75
(dp97
S'_style'
p98
S'font-weight:bold;vertical-align:top'
p99
ssg77
(lp100
S'last_query'
p101
asbag69
(g93
g71
Ntp102
Rp103
(dp104
g83
g89
sg75
(dp105
S'_valign'
p106
S'top'
p107
ssg77
(lp108
S':'
p109
asbag69
(g93
g71
Ntp110
Rp111
(dp112
g83
g89
sg75
(dp113
sg77
(lp114
g69
(g70
g71
Ntp115
Rp116
(dp117
g83
g111
sg75
(dp118
g85
I5
ssg77
(lp119
S'db.articulo.id>0'
p120
asbasbasbasbasbsS'locals'
p121
(dp122
S'layer'
p123
S"'/home/marco/projects/milanel/web2py/applications/fragance/models/db_interno.py'"
p124
sS'code'
p125
S'"# coding: utf8\\n\\ndb.define_table(\'proveedor\',\\n   ...,\'double\'),\\n    Field(\'fventa\',\'datetime\')\\n    )\\n"'
p126
ssS'etype'
p127
S"<type 'exceptions.SyntaxError'>"
p128
sS'date'
p129
S'Wed Mar 14 01:43:20 2012'
p130
sS'evalue'
p131
S'invalid syntax (db_interno.py, line 25)'
p132
sS'request'
p133
g69
(g70
g71
Ntp134
Rp135
(dp136
g75
(dp137
sg77
(lp138
g69
(g79
g71
Ntp139
Rp140
(dp141
g83
Nsg75
(dp142
g85
I5
ssg77
(lp143
g69
(g87
g71
Ntp144
Rp145
(dp146
g83
g140
sg75
(dp147
sg77
(lp148
g69
(g93
g71
Ntp149
Rp150
(dp151
g83
g145
sg75
(dp152
g98
g99
ssg77
(lp153
S'ajax'
p154
asbag69
(g93
g71
Ntp155
Rp156
(dp157
g83
g145
sg75
(dp158
g106
g107
ssg77
(lp159
g109
asbag69
(g93
g71
Ntp160
Rp161
(dp162
g83
g145
sg75
(dp163
sg77
(lp164
g69
(g70
g71
Ntp165
Rp166
(dp167
g83
g161
sg75
(dp168
g85
I5
ssg77
(lp169
S'False'
p170
asbasbasbag69
(g87
g71
Ntp171
Rp172
(dp173
g83
g140
sg75
(dp174
sg77
(lp175
g69
(g93
g71
Ntp176
Rp177
(dp178
g83
g172
sg75
(dp179
g98
g99
ssg77
(lp180
S'application'
p181
asbag69
(g93
g71
Ntp182
Rp183
(dp184
g83
g172
sg75
(dp185
g106
g107
ssg77
(lp186
g109
asbag69
(g93
g71
Ntp187
Rp188
(dp189
g83
g172
sg75
(dp190
sg77
(lp191
g69
(g70
g71
Ntp192
Rp193
(dp194
g83
g188
sg75
(dp195
g85
I5
ssg77
(lp196
S'fragance'
p197
asbasbasbag69
(g87
g71
Ntp198
Rp199
(dp200
g83
g140
sg75
(dp201
sg77
(lp202
g69
(g93
g71
Ntp203
Rp204
(dp205
g83
g199
sg75
(dp206
g98
g99
ssg77
(lp207
g24
asbag69
(g93
g71
Ntp208
Rp209
(dp210
g83
g199
sg75
(dp211
g106
g107
ssg77
(lp212
g109
asbag69
(g93
g71
Ntp213
Rp214
(dp215
g83
g199
sg75
(dp216
sg77
(lp217
g69
(g70
g71
Ntp218
Rp219
(dp220
g83
g214
sg75
(dp221
g85
I5
ssg77
(lp222
g69
(g79
g71
Ntp223
Rp224
(dp225
g83
Nsg75
(dp226
g85
I4
ssg77
(lp227
sbasbasbasbag69
(g87
g71
Ntp228
Rp229
(dp230
g83
g140
sg75
(dp231
sg77
(lp232
g69
(g93
g71
Ntp233
Rp234
(dp235
g83
g229
sg75
(dp236
g98
g99
ssg77
(lp237
S'body'
p238
asbag69
(g93
g71
Ntp239
Rp240
(dp241
g83
g229
sg75
(dp242
g106
g107
ssg77
(lp243
g109
asbag69
(g93
g71
Ntp244
Rp245
(dp246
g83
g229
sg75
(dp247
sg77
(lp248
g69
(g70
g71
Ntp249
Rp250
(dp251
g83
g245
sg75
(dp252
g85
I5
ssg77
(lp253
S'<cStringIO.StringO object at 0x0000000007d434e8>'
p254
asbasbasbag69
(g87
g71
Ntp255
Rp256
(dp257
g83
g140
sg75
(dp258
sg77
(lp259
g69
(g93
g71
Ntp260
Rp261
(dp262
g83
g256
sg75
(dp263
g98
g99
ssg77
(lp264
S'client'
p265
asbag69
(g93
g71
Ntp266
Rp267
(dp268
g83
g256
sg75
(dp269
g106
g107
ssg77
(lp270
g109
asbag69
(g93
g71
Ntp271
Rp272
(dp273
g83
g256
sg75
(dp274
sg77
(lp275
g69
(g70
g71
Ntp276
Rp277
(dp278
g83
g272
sg75
(dp279
g85
I5
ssg77
(lp280
S'127.0.0.1'
p281
asbasbasbag69
(g87
g71
Ntp282
Rp283
(dp284
g83
g140
sg75
(dp285
sg77
(lp286
g69
(g93
g71
Ntp287
Rp288
(dp289
g83
g283
sg75
(dp290
g98
g99
ssg77
(lp291
S'controller'
p292
asbag69
(g93
g71
Ntp293
Rp294
(dp295
g83
g283
sg75
(dp296
g106
g107
ssg77
(lp297
g109
asbag69
(g93
g71
Ntp298
Rp299
(dp300
g83
g283
sg75
(dp301
sg77
(lp302
g69
(g70
g71
Ntp303
Rp304
(dp305
g83
g299
sg75
(dp306
g85
I5
ssg77
(lp307
S'default'
p308
asbasbasbag69
(g87
g71
Ntp309
Rp310
(dp311
g83
g140
sg75
(dp312
sg77
(lp313
g69
(g93
g71
Ntp314
Rp315
(dp316
g83
g310
sg75
(dp317
g98
g99
ssg77
(lp318
S'cookies'
p319
asbag69
(g93
g71
Ntp320
Rp321
(dp322
g83
g310
sg75
(dp323
g106
g107
ssg77
(lp324
g109
asbag69
(g93
g71
Ntp325
Rp326
(dp327
g83
g310
sg75
(dp328
sg77
(lp329
g69
(g70
g71
Ntp330
Rp331
(dp332
g83
g326
sg75
(dp333
g85
I5
ssg77
(lp334
g69
(g79
g71
Ntp335
Rp336
(dp337
g83
Nsg75
(dp338
g85
I4
ssg77
(lp339
g69
(g87
g71
Ntp340
Rp341
(dp342
g83
g336
sg75
(dp343
sg77
(lp344
g69
(g93
g71
Ntp345
Rp346
(dp347
g83
g341
sg75
(dp348
g98
g99
ssg77
(lp349
S'PHPSESSID'
p350
asbag69
(g93
g71
Ntp351
Rp352
(dp353
g83
g341
sg75
(dp354
g106
g107
ssg77
(lp355
g109
asbag69
(g93
g71
Ntp356
Rp357
(dp358
g83
g341
sg75
(dp359
sg77
(lp360
g69
(g70
g71
Ntp361
Rp362
(dp363
g83
g357
sg75
(dp364
g85
I4
ssg77
(lp365
g69
(g79
g71
Ntp366
Rp367
(dp368
g83
Nsg75
(dp369
g85
I3
ssg77
(lp370
g69
(g87
g71
Ntp371
Rp372
(dp373
g83
g367
sg75
(dp374
sg77
(lp375
g69
(g93
g71
Ntp376
Rp377
(dp378
g83
g372
sg75
(dp379
g98
g99
ssg77
(lp380
S'comment'
p381
asbag69
(g93
g71
Ntp382
Rp383
(dp384
g83
g372
sg75
(dp385
g106
g107
ssg77
(lp386
g109
asbag69
(g93
g71
Ntp387
Rp388
(dp389
g83
g372
sg75
(dp390
sg77
(lp391
g69
(g70
g71
Ntp392
Rp393
(dp394
g83
g388
sg75
(dp395
g85
I3
ssg77
(lp396
S''
p397
asbasbasbag69
(g87
g71
Ntp398
Rp399
(dp400
g83
g367
sg75
(dp401
sg77
(lp402
g69
(g93
g71
Ntp403
Rp404
(dp405
g83
g399
sg75
(dp406
g98
g99
ssg77
(lp407
S'domain'
p408
asbag69
(g93
g71
Ntp409
Rp410
(dp411
g83
g399
sg75
(dp412
g106
g107
ssg77
(lp413
g109
asbag69
(g93
g71
Ntp414
Rp415
(dp416
g83
g399
sg75
(dp417
sg77
(lp418
g69
(g70
g71
Ntp419
Rp420
(dp421
g83
g415
sg75
(dp422
g85
I3
ssg77
(lp423
g397
asbasbasbag69
(g87
g71
Ntp424
Rp425
(dp426
g83
g367
sg75
(dp427
sg77
(lp428
g69
(g93
g71
Ntp429
Rp430
(dp431
g83
g425
sg75
(dp432
g98
g99
ssg77
(lp433
S'expires'
p434
asbag69
(g93
g71
Ntp435
Rp436
(dp437
g83
g425
sg75
(dp438
g106
g107
ssg77
(lp439
g109
asbag69
(g93
g71
Ntp440
Rp441
(dp442
g83
g425
sg75
(dp443
sg77
(lp444
g69
(g70
g71
Ntp445
Rp446
(dp447
g83
g441
sg75
(dp448
g85
I3
ssg77
(lp449
g397
asbasbasbag69
(g87
g71
Ntp450
Rp451
(dp452
g83
g367
sg75
(dp453
sg77
(lp454
g69
(g93
g71
Ntp455
Rp456
(dp457
g83
g451
sg75
(dp458
g98
g99
ssg77
(lp459
S'httponly'
p460
asbag69
(g93
g71
Ntp461
Rp462
(dp463
g83
g451
sg75
(dp464
g106
g107
ssg77
(lp465
g109
asbag69
(g93
g71
Ntp466
Rp467
(dp468
g83
g451
sg75
(dp469
sg77
(lp470
g69
(g70
g71
Ntp471
Rp472
(dp473
g83
g467
sg75
(dp474
g85
I3
ssg77
(lp475
g397
asbasbasbag69
(g87
g71
Ntp476
Rp477
(dp478
g83
g367
sg75
(dp479
sg77
(lp480
g69
(g93
g71
Ntp481
Rp482
(dp483
g83
g477
sg75
(dp484
g98
g99
ssg77
(lp485
S'max-age'
p486
asbag69
(g93
g71
Ntp487
Rp488
(dp489
g83
g477
sg75
(dp490
g106
g107
ssg77
(lp491
g109
asbag69
(g93
g71
Ntp492
Rp493
(dp494
g83
g477
sg75
(dp495
sg77
(lp496
g69
(g70
g71
Ntp497
Rp498
(dp499
g83
g493
sg75
(dp500
g85
I3
ssg77
(lp501
g397
asbasbasbag69
(g87
g71
Ntp502
Rp503
(dp504
g83
g367
sg75
(dp505
sg77
(lp506
g69
(g93
g71
Ntp507
Rp508
(dp509
g83
g503
sg75
(dp510
g98
g99
ssg77
(lp511
S'path'
p512
asbag69
(g93
g71
Ntp513
Rp514
(dp515
g83
g503
sg75
(dp516
g106
g107
ssg77
(lp517
g109
asbag69
(g93
g71
Ntp518
Rp519
(dp520
g83
g503
sg75
(dp521
sg77
(lp522
g69
(g70
g71
Ntp523
Rp524
(dp525
g83
g519
sg75
(dp526
g85
I3
ssg77
(lp527
g397
asbasbasbag69
(g87
g71
Ntp528
Rp529
(dp530
g83
g367
sg75
(dp531
sg77
(lp532
g69
(g93
g71
Ntp533
Rp534
(dp535
g83
g529
sg75
(dp536
g98
g99
ssg77
(lp537
S'secure'
p538
asbag69
(g93
g71
Ntp539
Rp540
(dp541
g83
g529
sg75
(dp542
g106
g107
ssg77
(lp543
g109
asbag69
(g93
g71
Ntp544
Rp545
(dp546
g83
g529
sg75
(dp547
sg77
(lp548
g69
(g70
g71
Ntp549
Rp550
(dp551
g83
g545
sg75
(dp552
g85
I3
ssg77
(lp553
g397
asbasbasbag69
(g87
g71
Ntp554
Rp555
(dp556
g83
g367
sg75
(dp557
sg77
(lp558
g69
(g93
g71
Ntp559
Rp560
(dp561
g83
g555
sg75
(dp562
g98
g99
ssg77
(lp563
S'version'
p564
asbag69
(g93
g71
Ntp565
Rp566
(dp567
g83
g555
sg75
(dp568
g106
g107
ssg77
(lp569
g109
asbag69
(g93
g71
Ntp570
Rp571
(dp572
g83
g555
sg75
(dp573
sg77
(lp574
g69
(g70
g71
Ntp575
Rp576
(dp577
g83
g571
sg75
(dp578
g85
I3
ssg77
(lp579
g397
asbasbasbasbasbasbasbag69
(g87
g71
Ntp580
Rp581
(dp582
g83
g336
sg75
(dp583
sg77
(lp584
g69
(g93
g71
Ntp585
Rp586
(dp587
g83
g581
sg75
(dp588
g98
g99
ssg77
(lp589
S'session_id_admin'
p590
asbag69
(g93
g71
Ntp591
Rp592
(dp593
g83
g581
sg75
(dp594
g106
g107
ssg77
(lp595
g109
asbag69
(g93
g71
Ntp596
Rp597
(dp598
g83
g581
sg75
(dp599
sg77
(lp600
g69
(g70
g71
Ntp601
Rp602
(dp603
g83
g597
sg75
(dp604
g85
I4
ssg77
(lp605
g69
(g79
g71
Ntp606
Rp607
(dp608
g83
Nsg75
(dp609
g85
I3
ssg77
(lp610
g69
(g87
g71
Ntp611
Rp612
(dp613
g83
g607
sg75
(dp614
sg77
(lp615
g69
(g93
g71
Ntp616
Rp617
(dp618
g83
g612
sg75
(dp619
g98
g99
ssg77
(lp620
g381
asbag69
(g93
g71
Ntp621
Rp622
(dp623
g83
g612
sg75
(dp624
g106
g107
ssg77
(lp625
g109
asbag69
(g93
g71
Ntp626
Rp627
(dp628
g83
g612
sg75
(dp629
sg77
(lp630
g69
(g70
g71
Ntp631
Rp632
(dp633
g83
g627
sg75
(dp634
g85
I3
ssg77
(lp635
g397
asbasbasbag69
(g87
g71
Ntp636
Rp637
(dp638
g83
g607
sg75
(dp639
sg77
(lp640
g69
(g93
g71
Ntp641
Rp642
(dp643
g83
g637
sg75
(dp644
g98
g99
ssg77
(lp645
g408
asbag69
(g93
g71
Ntp646
Rp647
(dp648
g83
g637
sg75
(dp649
g106
g107
ssg77
(lp650
g109
asbag69
(g93
g71
Ntp651
Rp652
(dp653
g83
g637
sg75
(dp654
sg77
(lp655
g69
(g70
g71
Ntp656
Rp657
(dp658
g83
g652
sg75
(dp659
g85
I3
ssg77
(lp660
g397
asbasbasbag69
(g87
g71
Ntp661
Rp662
(dp663
g83
g607
sg75
(dp664
sg77
(lp665
g69
(g93
g71
Ntp666
Rp667
(dp668
g83
g662
sg75
(dp669
g98
g99
ssg77
(lp670
g434
asbag69
(g93
g71
Ntp671
Rp672
(dp673
g83
g662
sg75
(dp674
g106
g107
ssg77
(lp675
g109
asbag69
(g93
g71
Ntp676
Rp677
(dp678
g83
g662
sg75
(dp679
sg77
(lp680
g69
(g70
g71
Ntp681
Rp682
(dp683
g83
g677
sg75
(dp684
g85
I3
ssg77
(lp685
g397
asbasbasbag69
(g87
g71
Ntp686
Rp687
(dp688
g83
g607
sg75
(dp689
sg77
(lp690
g69
(g93
g71
Ntp691
Rp692
(dp693
g83
g687
sg75
(dp694
g98
g99
ssg77
(lp695
g460
asbag69
(g93
g71
Ntp696
Rp697
(dp698
g83
g687
sg75
(dp699
g106
g107
ssg77
(lp700
g109
asbag69
(g93
g71
Ntp701
Rp702
(dp703
g83
g687
sg75
(dp704
sg77
(lp705
g69
(g70
g71
Ntp706
Rp707
(dp708
g83
g702
sg75
(dp709
g85
I3
ssg77
(lp710
g397
asbasbasbag69
(g87
g71
Ntp711
Rp712
(dp713
g83
g607
sg75
(dp714
sg77
(lp715
g69
(g93
g71
Ntp716
Rp717
(dp718
g83
g712
sg75
(dp719
g98
g99
ssg77
(lp720
g486
asbag69
(g93
g71
Ntp721
Rp722
(dp723
g83
g712
sg75
(dp724
g106
g107
ssg77
(lp725
g109
asbag69
(g93
g71
Ntp726
Rp727
(dp728
g83
g712
sg75
(dp729
sg77
(lp730
g69
(g70
g71
Ntp731
Rp732
(dp733
g83
g727
sg75
(dp734
g85
I3
ssg77
(lp735
g397
asbasbasbag69
(g87
g71
Ntp736
Rp737
(dp738
g83
g607
sg75
(dp739
sg77
(lp740
g69
(g93
g71
Ntp741
Rp742
(dp743
g83
g737
sg75
(dp744
g98
g99
ssg77
(lp745
g512
asbag69
(g93
g71
Ntp746
Rp747
(dp748
g83
g737
sg75
(dp749
g106
g107
ssg77
(lp750
g109
asbag69
(g93
g71
Ntp751
Rp752
(dp753
g83
g737
sg75
(dp754
sg77
(lp755
g69
(g70
g71
Ntp756
Rp757
(dp758
g83
g752
sg75
(dp759
g85
I3
ssg77
(lp760
g397
asbasbasbag69
(g87
g71
Ntp761
Rp762
(dp763
g83
g607
sg75
(dp764
sg77
(lp765
g69
(g93
g71
Ntp766
Rp767
(dp768
g83
g762
sg75
(dp769
g98
g99
ssg77
(lp770
g538
asbag69
(g93
g71
Ntp771
Rp772
(dp773
g83
g762
sg75
(dp774
g106
g107
ssg77
(lp775
g109
asbag69
(g93
g71
Ntp776
Rp777
(dp778
g83
g762
sg75
(dp779
sg77
(lp780
g69
(g70
g71
Ntp781
Rp782
(dp783
g83
g777
sg75
(dp784
g85
I3
ssg77
(lp785
g397
asbasbasbag69
(g87
g71
Ntp786
Rp787
(dp788
g83
g607
sg75
(dp789
sg77
(lp790
g69
(g93
g71
Ntp791
Rp792
(dp793
g83
g787
sg75
(dp794
g98
g99
ssg77
(lp795
g564
asbag69
(g93
g71
Ntp796
Rp797
(dp798
g83
g787
sg75
(dp799
g106
g107
ssg77
(lp800
g109
asbag69
(g93
g71
Ntp801
Rp802
(dp803
g83
g787
sg75
(dp804
sg77
(lp805
g69
(g70
g71
Ntp806
Rp807
(dp808
g83
g802
sg75
(dp809
g85
I3
ssg77
(lp810
g397
asbasbasbasbasbasbasbag69
(g87
g71
Ntp811
Rp812
(dp813
g83
g336
sg75
(dp814
sg77
(lp815
g69
(g93
g71
Ntp816
Rp817
(dp818
g83
g812
sg75
(dp819
g98
g99
ssg77
(lp820
S'session_id_flisol2012'
p821
asbag69
(g93
g71
Ntp822
Rp823
(dp824
g83
g812
sg75
(dp825
g106
g107
ssg77
(lp826
g109
asbag69
(g93
g71
Ntp827
Rp828
(dp829
g83
g812
sg75
(dp830
sg77
(lp831
g69
(g70
g71
Ntp832
Rp833
(dp834
g83
g828
sg75
(dp835
g85
I4
ssg77
(lp836
g69
(g79
g71
Ntp837
Rp838
(dp839
g83
Nsg75
(dp840
g85
I3
ssg77
(lp841
g69
(g87
g71
Ntp842
Rp843
(dp844
g83
g838
sg75
(dp845
sg77
(lp846
g69
(g93
g71
Ntp847
Rp848
(dp849
g83
g843
sg75
(dp850
g98
g99
ssg77
(lp851
g381
asbag69
(g93
g71
Ntp852
Rp853
(dp854
g83
g843
sg75
(dp855
g106
g107
ssg77
(lp856
g109
asbag69
(g93
g71
Ntp857
Rp858
(dp859
g83
g843
sg75
(dp860
sg77
(lp861
g69
(g70
g71
Ntp862
Rp863
(dp864
g83
g858
sg75
(dp865
g85
I3
ssg77
(lp866
g397
asbasbasbag69
(g87
g71
Ntp867
Rp868
(dp869
g83
g838
sg75
(dp870
sg77
(lp871
g69
(g93
g71
Ntp872
Rp873
(dp874
g83
g868
sg75
(dp875
g98
g99
ssg77
(lp876
g408
asbag69
(g93
g71
Ntp877
Rp878
(dp879
g83
g868
sg75
(dp880
g106
g107
ssg77
(lp881
g109
asbag69
(g93
g71
Ntp882
Rp883
(dp884
g83
g868
sg75
(dp885
sg77
(lp886
g69
(g70
g71
Ntp887
Rp888
(dp889
g83
g883
sg75
(dp890
g85
I3
ssg77
(lp891
g397
asbasbasbag69
(g87
g71
Ntp892
Rp893
(dp894
g83
g838
sg75
(dp895
sg77
(lp896
g69
(g93
g71
Ntp897
Rp898
(dp899
g83
g893
sg75
(dp900
g98
g99
ssg77
(lp901
g434
asbag69
(g93
g71
Ntp902
Rp903
(dp904
g83
g893
sg75
(dp905
g106
g107
ssg77
(lp906
g109
asbag69
(g93
g71
Ntp907
Rp908
(dp909
g83
g893
sg75
(dp910
sg77
(lp911
g69
(g70
g71
Ntp912
Rp913
(dp914
g83
g908
sg75
(dp915
g85
I3
ssg77
(lp916
g397
asbasbasbag69
(g87
g71
Ntp917
Rp918
(dp919
g83
g838
sg75
(dp920
sg77
(lp921
g69
(g93
g71
Ntp922
Rp923
(dp924
g83
g918
sg75
(dp925
g98
g99
ssg77
(lp926
g460
asbag69
(g93
g71
Ntp927
Rp928
(dp929
g83
g918
sg75
(dp930
g106
g107
ssg77
(lp931
g109
asbag69
(g93
g71
Ntp932
Rp933
(dp934
g83
g918
sg75
(dp935
sg77
(lp936
g69
(g70
g71
Ntp937
Rp938
(dp939
g83
g933
sg75
(dp940
g85
I3
ssg77
(lp941
g397
asbasbasbag69
(g87
g71
Ntp942
Rp943
(dp944
g83
g838
sg75
(dp945
sg77
(lp946
g69
(g93
g71
Ntp947
Rp948
(dp949
g83
g943
sg75
(dp950
g98
g99
ssg77
(lp951
g486
asbag69
(g93
g71
Ntp952
Rp953
(dp954
g83
g943
sg75
(dp955
g106
g107
ssg77
(lp956
g109
asbag69
(g93
g71
Ntp957
Rp958
(dp959
g83
g943
sg75
(dp960
sg77
(lp961
g69
(g70
g71
Ntp962
Rp963
(dp964
g83
g958
sg75
(dp965
g85
I3
ssg77
(lp966
g397
asbasbasbag69
(g87
g71
Ntp967
Rp968
(dp969
g83
g838
sg75
(dp970
sg77
(lp971
g69
(g93
g71
Ntp972
Rp973
(dp974
g83
g968
sg75
(dp975
g98
g99
ssg77
(lp976
g512
asbag69
(g93
g71
Ntp977
Rp978
(dp979
g83
g968
sg75
(dp980
g106
g107
ssg77
(lp981
g109
asbag69
(g93
g71
Ntp982
Rp983
(dp984
g83
g968
sg75
(dp985
sg77
(lp986
g69
(g70
g71
Ntp987
Rp988
(dp989
g83
g983
sg75
(dp990
g85
I3
ssg77
(lp991
g397
asbasbasbag69
(g87
g71
Ntp992
Rp993
(dp994
g83
g838
sg75
(dp995
sg77
(lp996
g69
(g93
g71
Ntp997
Rp998
(dp999
g83
g993
sg75
(dp1000
g98
g99
ssg77
(lp1001
g538
asbag69
(g93
g71
Ntp1002
Rp1003
(dp1004
g83
g993
sg75
(dp1005
g106
g107
ssg77
(lp1006
g109
asbag69
(g93
g71
Ntp1007
Rp1008
(dp1009
g83
g993
sg75
(dp1010
sg77
(lp1011
g69
(g70
g71
Ntp1012
Rp1013
(dp1014
g83
g1008
sg75
(dp1015
g85
I3
ssg77
(lp1016
g397
asbasbasbag69
(g87
g71
Ntp1017
Rp1018
(dp1019
g83
g838
sg75
(dp1020
sg77
(lp1021
g69
(g93
g71
Ntp1022
Rp1023
(dp1024
g83
g1018
sg75
(dp1025
g98
g99
ssg77
(lp1026
g564
asbag69
(g93
g71
Ntp1027
Rp1028
(dp1029
g83
g1018
sg75
(dp1030
g106
g107
ssg77
(lp1031
g109
asbag69
(g93
g71
Ntp1032
Rp1033
(dp1034
g83
g1018
sg75
(dp1035
sg77
(lp1036
g69
(g70
g71
Ntp1037
Rp1038
(dp1039
g83
g1033
sg75
(dp1040
g85
I3
ssg77
(lp1041
g397
asbasbasbasbasbasbasbag69
(g87
g71
Ntp1042
Rp1043
(dp1044
g83
g336
sg75
(dp1045
sg77
(lp1046
g69
(g93
g71
Ntp1047
Rp1048
(dp1049
g83
g1043
sg75
(dp1050
g98
g99
ssg77
(lp1051
S'session_id_fragance'
p1052
asbag69
(g93
g71
Ntp1053
Rp1054
(dp1055
g83
g1043
sg75
(dp1056
g106
g107
ssg77
(lp1057
g109
asbag69
(g93
g71
Ntp1058
Rp1059
(dp1060
g83
g1043
sg75
(dp1061
sg77
(lp1062
g69
(g70
g71
Ntp1063
Rp1064
(dp1065
g83
g1059
sg75
(dp1066
g85
I4
ssg77
(lp1067
g69
(g79
g71
Ntp1068
Rp1069
(dp1070
g83
Nsg75
(dp1071
g85
I3
ssg77
(lp1072
g69
(g87
g71
Ntp1073
Rp1074
(dp1075
g83
g1069
sg75
(dp1076
sg77
(lp1077
g69
(g93
g71
Ntp1078
Rp1079
(dp1080
g83
g1074
sg75
(dp1081
g98
g99
ssg77
(lp1082
g381
asbag69
(g93
g71
Ntp1083
Rp1084
(dp1085
g83
g1074
sg75
(dp1086
g106
g107
ssg77
(lp1087
g109
asbag69
(g93
g71
Ntp1088
Rp1089
(dp1090
g83
g1074
sg75
(dp1091
sg77
(lp1092
g69
(g70
g71
Ntp1093
Rp1094
(dp1095
g83
g1089
sg75
(dp1096
g85
I3
ssg77
(lp1097
g397
asbasbasbag69
(g87
g71
Ntp1098
Rp1099
(dp1100
g83
g1069
sg75
(dp1101
sg77
(lp1102
g69
(g93
g71
Ntp1103
Rp1104
(dp1105
g83
g1099
sg75
(dp1106
g98
g99
ssg77
(lp1107
g408
asbag69
(g93
g71
Ntp1108
Rp1109
(dp1110
g83
g1099
sg75
(dp1111
g106
g107
ssg77
(lp1112
g109
asbag69
(g93
g71
Ntp1113
Rp1114
(dp1115
g83
g1099
sg75
(dp1116
sg77
(lp1117
g69
(g70
g71
Ntp1118
Rp1119
(dp1120
g83
g1114
sg75
(dp1121
g85
I3
ssg77
(lp1122
g397
asbasbasbag69
(g87
g71
Ntp1123
Rp1124
(dp1125
g83
g1069
sg75
(dp1126
sg77
(lp1127
g69
(g93
g71
Ntp1128
Rp1129
(dp1130
g83
g1124
sg75
(dp1131
g98
g99
ssg77
(lp1132
g434
asbag69
(g93
g71
Ntp1133
Rp1134
(dp1135
g83
g1124
sg75
(dp1136
g106
g107
ssg77
(lp1137
g109
asbag69
(g93
g71
Ntp1138
Rp1139
(dp1140
g83
g1124
sg75
(dp1141
sg77
(lp1142
g69
(g70
g71
Ntp1143
Rp1144
(dp1145
g83
g1139
sg75
(dp1146
g85
I3
ssg77
(lp1147
g397
asbasbasbag69
(g87
g71
Ntp1148
Rp1149
(dp1150
g83
g1069
sg75
(dp1151
sg77
(lp1152
g69
(g93
g71
Ntp1153
Rp1154
(dp1155
g83
g1149
sg75
(dp1156
g98
g99
ssg77
(lp1157
g460
asbag69
(g93
g71
Ntp1158
Rp1159
(dp1160
g83
g1149
sg75
(dp1161
g106
g107
ssg77
(lp1162
g109
asbag69
(g93
g71
Ntp1163
Rp1164
(dp1165
g83
g1149
sg75
(dp1166
sg77
(lp1167
g69
(g70
g71
Ntp1168
Rp1169
(dp1170
g83
g1164
sg75
(dp1171
g85
I3
ssg77
(lp1172
g397
asbasbasbag69
(g87
g71
Ntp1173
Rp1174
(dp1175
g83
g1069
sg75
(dp1176
sg77
(lp1177
g69
(g93
g71
Ntp1178
Rp1179
(dp1180
g83
g1174
sg75
(dp1181
g98
g99
ssg77
(lp1182
g486
asbag69
(g93
g71
Ntp1183
Rp1184
(dp1185
g83
g1174
sg75
(dp1186
g106
g107
ssg77
(lp1187
g109
asbag69
(g93
g71
Ntp1188
Rp1189
(dp1190
g83
g1174
sg75
(dp1191
sg77
(lp1192
g69
(g70
g71
Ntp1193
Rp1194
(dp1195
g83
g1189
sg75
(dp1196
g85
I3
ssg77
(lp1197
g397
asbasbasbag69
(g87
g71
Ntp1198
Rp1199
(dp1200
g83
g1069
sg75
(dp1201
sg77
(lp1202
g69
(g93
g71
Ntp1203
Rp1204
(dp1205
g83
g1199
sg75
(dp1206
g98
g99
ssg77
(lp1207
g512
asbag69
(g93
g71
Ntp1208
Rp1209
(dp1210
g83
g1199
sg75
(dp1211
g106
g107
ssg77
(lp1212
g109
asbag69
(g93
g71
Ntp1213
Rp1214
(dp1215
g83
g1199
sg75
(dp1216
sg77
(lp1217
g69
(g70
g71
Ntp1218
Rp1219
(dp1220
g83
g1214
sg75
(dp1221
g85
I3
ssg77
(lp1222
g397
asbasbasbag69
(g87
g71
Ntp1223
Rp1224
(dp1225
g83
g1069
sg75
(dp1226
sg77
(lp1227
g69
(g93
g71
Ntp1228
Rp1229
(dp1230
g83
g1224
sg75
(dp1231
g98
g99
ssg77
(lp1232
g538
asbag69
(g93
g71
Ntp1233
Rp1234
(dp1235
g83
g1224
sg75
(dp1236
g106
g107
ssg77
(lp1237
g109
asbag69
(g93
g71
Ntp1238
Rp1239
(dp1240
g83
g1224
sg75
(dp1241
sg77
(lp1242
g69
(g70
g71
Ntp1243
Rp1244
(dp1245
g83
g1239
sg75
(dp1246
g85
I3
ssg77
(lp1247
g397
asbasbasbag69
(g87
g71
Ntp1248
Rp1249
(dp1250
g83
g1069
sg75
(dp1251
sg77
(lp1252
g69
(g93
g71
Ntp1253
Rp1254
(dp1255
g83
g1249
sg75
(dp1256
g98
g99
ssg77
(lp1257
g564
asbag69
(g93
g71
Ntp1258
Rp1259
(dp1260
g83
g1249
sg75
(dp1261
g106
g107
ssg77
(lp1262
g109
asbag69
(g93
g71
Ntp1263
Rp1264
(dp1265
g83
g1249
sg75
(dp1266
sg77
(lp1267
g69
(g70
g71
Ntp1268
Rp1269
(dp1270
g83
g1264
sg75
(dp1271
g85
I3
ssg77
(lp1272
g397
asbasbasbasbasbasbasbag69
(g87
g71
Ntp1273
Rp1274
(dp1275
g83
g336
sg75
(dp1276
sg77
(lp1277
g69
(g93
g71
Ntp1278
Rp1279
(dp1280
g83
g1274
sg75
(dp1281
g98
g99
ssg77
(lp1282
S'session_id_mulone'
p1283
asbag69
(g93
g71
Ntp1284
Rp1285
(dp1286
g83
g1274
sg75
(dp1287
g106
g107
ssg77
(lp1288
g109
asbag69
(g93
g71
Ntp1289
Rp1290
(dp1291
g83
g1274
sg75
(dp1292
sg77
(lp1293
g69
(g70
g71
Ntp1294
Rp1295
(dp1296
g83
g1290
sg75
(dp1297
g85
I4
ssg77
(lp1298
g69
(g79
g71
Ntp1299
Rp1300
(dp1301
g83
Nsg75
(dp1302
g85
I3
ssg77
(lp1303
g69
(g87
g71
Ntp1304
Rp1305
(dp1306
g83
g1300
sg75
(dp1307
sg77
(lp1308
g69
(g93
g71
Ntp1309
Rp1310
(dp1311
g83
g1305
sg75
(dp1312
g98
g99
ssg77
(lp1313
g381
asbag69
(g93
g71
Ntp1314
Rp1315
(dp1316
g83
g1305
sg75
(dp1317
g106
g107
ssg77
(lp1318
g109
asbag69
(g93
g71
Ntp1319
Rp1320
(dp1321
g83
g1305
sg75
(dp1322
sg77
(lp1323
g69
(g70
g71
Ntp1324
Rp1325
(dp1326
g83
g1320
sg75
(dp1327
g85
I3
ssg77
(lp1328
g397
asbasbasbag69
(g87
g71
Ntp1329
Rp1330
(dp1331
g83
g1300
sg75
(dp1332
sg77
(lp1333
g69
(g93
g71
Ntp1334
Rp1335
(dp1336
g83
g1330
sg75
(dp1337
g98
g99
ssg77
(lp1338
g408
asbag69
(g93
g71
Ntp1339
Rp1340
(dp1341
g83
g1330
sg75
(dp1342
g106
g107
ssg77
(lp1343
g109
asbag69
(g93
g71
Ntp1344
Rp1345
(dp1346
g83
g1330
sg75
(dp1347
sg77
(lp1348
g69
(g70
g71
Ntp1349
Rp1350
(dp1351
g83
g1345
sg75
(dp1352
g85
I3
ssg77
(lp1353
g397
asbasbasbag69
(g87
g71
Ntp1354
Rp1355
(dp1356
g83
g1300
sg75
(dp1357
sg77
(lp1358
g69
(g93
g71
Ntp1359
Rp1360
(dp1361
g83
g1355
sg75
(dp1362
g98
g99
ssg77
(lp1363
g434
asbag69
(g93
g71
Ntp1364
Rp1365
(dp1366
g83
g1355
sg75
(dp1367
g106
g107
ssg77
(lp1368
g109
asbag69
(g93
g71
Ntp1369
Rp1370
(dp1371
g83
g1355
sg75
(dp1372
sg77
(lp1373
g69
(g70
g71
Ntp1374
Rp1375
(dp1376
g83
g1370
sg75
(dp1377
g85
I3
ssg77
(lp1378
g397
asbasbasbag69
(g87
g71
Ntp1379
Rp1380
(dp1381
g83
g1300
sg75
(dp1382
sg77
(lp1383
g69
(g93
g71
Ntp1384
Rp1385
(dp1386
g83
g1380
sg75
(dp1387
g98
g99
ssg77
(lp1388
g460
asbag69
(g93
g71
Ntp1389
Rp1390
(dp1391
g83
g1380
sg75
(dp1392
g106
g107
ssg77
(lp1393
g109
asbag69
(g93
g71
Ntp1394
Rp1395
(dp1396
g83
g1380
sg75
(dp1397
sg77
(lp1398
g69
(g70
g71
Ntp1399
Rp1400
(dp1401
g83
g1395
sg75
(dp1402
g85
I3
ssg77
(lp1403
g397
asbasbasbag69
(g87
g71
Ntp1404
Rp1405
(dp1406
g83
g1300
sg75
(dp1407
sg77
(lp1408
g69
(g93
g71
Ntp1409
Rp1410
(dp1411
g83
g1405
sg75
(dp1412
g98
g99
ssg77
(lp1413
g486
asbag69
(g93
g71
Ntp1414
Rp1415
(dp1416
g83
g1405
sg75
(dp1417
g106
g107
ssg77
(lp1418
g109
asbag69
(g93
g71
Ntp1419
Rp1420
(dp1421
g83
g1405
sg75
(dp1422
sg77
(lp1423
g69
(g70
g71
Ntp1424
Rp1425
(dp1426
g83
g1420
sg75
(dp1427
g85
I3
ssg77
(lp1428
g397
asbasbasbag69
(g87
g71
Ntp1429
Rp1430
(dp1431
g83
g1300
sg75
(dp1432
sg77
(lp1433
g69
(g93
g71
Ntp1434
Rp1435
(dp1436
g83
g1430
sg75
(dp1437
g98
g99
ssg77
(lp1438
g512
asbag69
(g93
g71
Ntp1439
Rp1440
(dp1441
g83
g1430
sg75
(dp1442
g106
g107
ssg77
(lp1443
g109
asbag69
(g93
g71
Ntp1444
Rp1445
(dp1446
g83
g1430
sg75
(dp1447
sg77
(lp1448
g69
(g70
g71
Ntp1449
Rp1450
(dp1451
g83
g1445
sg75
(dp1452
g85
I3
ssg77
(lp1453
g397
asbasbasbag69
(g87
g71
Ntp1454
Rp1455
(dp1456
g83
g1300
sg75
(dp1457
sg77
(lp1458
g69
(g93
g71
Ntp1459
Rp1460
(dp1461
g83
g1455
sg75
(dp1462
g98
g99
ssg77
(lp1463
g538
asbag69
(g93
g71
Ntp1464
Rp1465
(dp1466
g83
g1455
sg75
(dp1467
g106
g107
ssg77
(lp1468
g109
asbag69
(g93
g71
Ntp1469
Rp1470
(dp1471
g83
g1455
sg75
(dp1472
sg77
(lp1473
g69
(g70
g71
Ntp1474
Rp1475
(dp1476
g83
g1470
sg75
(dp1477
g85
I3
ssg77
(lp1478
g397
asbasbasbag69
(g87
g71
Ntp1479
Rp1480
(dp1481
g83
g1300
sg75
(dp1482
sg77
(lp1483
g69
(g93
g71
Ntp1484
Rp1485
(dp1486
g83
g1480
sg75
(dp1487
g98
g99
ssg77
(lp1488
g564
asbag69
(g93
g71
Ntp1489
Rp1490
(dp1491
g83
g1480
sg75
(dp1492
g106
g107
ssg77
(lp1493
g109
asbag69
(g93
g71
Ntp1494
Rp1495
(dp1496
g83
g1480
sg75
(dp1497
sg77
(lp1498
g69
(g70
g71
Ntp1499
Rp1500
(dp1501
g83
g1495
sg75
(dp1502
g85
I3
ssg77
(lp1503
g397
asbasbasbasbasbasbasbag69
(g87
g71
Ntp1504
Rp1505
(dp1506
g83
g336
sg75
(dp1507
sg77
(lp1508
g69
(g93
g71
Ntp1509
Rp1510
(dp1511
g83
g1505
sg75
(dp1512
g98
g99
ssg77
(lp1513
S'session_id_pyforum'
p1514
asbag69
(g93
g71
Ntp1515
Rp1516
(dp1517
g83
g1505
sg75
(dp1518
g106
g107
ssg77
(lp1519
g109
asbag69
(g93
g71
Ntp1520
Rp1521
(dp1522
g83
g1505
sg75
(dp1523
sg77
(lp1524
g69
(g70
g71
Ntp1525
Rp1526
(dp1527
g83
g1521
sg75
(dp1528
g85
I4
ssg77
(lp1529
g69
(g79
g71
Ntp1530
Rp1531
(dp1532
g83
Nsg75
(dp1533
g85
I3
ssg77
(lp1534
g69
(g87
g71
Ntp1535
Rp1536
(dp1537
g83
g1531
sg75
(dp1538
sg77
(lp1539
g69
(g93
g71
Ntp1540
Rp1541
(dp1542
g83
g1536
sg75
(dp1543
g98
g99
ssg77
(lp1544
g381
asbag69
(g93
g71
Ntp1545
Rp1546
(dp1547
g83
g1536
sg75
(dp1548
g106
g107
ssg77
(lp1549
g109
asbag69
(g93
g71
Ntp1550
Rp1551
(dp1552
g83
g1536
sg75
(dp1553
sg77
(lp1554
g69
(g70
g71
Ntp1555
Rp1556
(dp1557
g83
g1551
sg75
(dp1558
g85
I3
ssg77
(lp1559
g397
asbasbasbag69
(g87
g71
Ntp1560
Rp1561
(dp1562
g83
g1531
sg75
(dp1563
sg77
(lp1564
g69
(g93
g71
Ntp1565
Rp1566
(dp1567
g83
g1561
sg75
(dp1568
g98
g99
ssg77
(lp1569
g408
asbag69
(g93
g71
Ntp1570
Rp1571
(dp1572
g83
g1561
sg75
(dp1573
g106
g107
ssg77
(lp1574
g109
asbag69
(g93
g71
Ntp1575
Rp1576
(dp1577
g83
g1561
sg75
(dp1578
sg77
(lp1579
g69
(g70
g71
Ntp1580
Rp1581
(dp1582
g83
g1576
sg75
(dp1583
g85
I3
ssg77
(lp1584
g397
asbasbasbag69
(g87
g71
Ntp1585
Rp1586
(dp1587
g83
g1531
sg75
(dp1588
sg77
(lp1589
g69
(g93
g71
Ntp1590
Rp1591
(dp1592
g83
g1586
sg75
(dp1593
g98
g99
ssg77
(lp1594
g434
asbag69
(g93
g71
Ntp1595
Rp1596
(dp1597
g83
g1586
sg75
(dp1598
g106
g107
ssg77
(lp1599
g109
asbag69
(g93
g71
Ntp1600
Rp1601
(dp1602
g83
g1586
sg75
(dp1603
sg77
(lp1604
g69
(g70
g71
Ntp1605
Rp1606
(dp1607
g83
g1601
sg75
(dp1608
g85
I3
ssg77
(lp1609
g397
asbasbasbag69
(g87
g71
Ntp1610
Rp1611
(dp1612
g83
g1531
sg75
(dp1613
sg77
(lp1614
g69
(g93
g71
Ntp1615
Rp1616
(dp1617
g83
g1611
sg75
(dp1618
g98
g99
ssg77
(lp1619
g460
asbag69
(g93
g71
Ntp1620
Rp1621
(dp1622
g83
g1611
sg75
(dp1623
g106
g107
ssg77
(lp1624
g109
asbag69
(g93
g71
Ntp1625
Rp1626
(dp1627
g83
g1611
sg75
(dp1628
sg77
(lp1629
g69
(g70
g71
Ntp1630
Rp1631
(dp1632
g83
g1626
sg75
(dp1633
g85
I3
ssg77
(lp1634
g397
asbasbasbag69
(g87
g71
Ntp1635
Rp1636
(dp1637
g83
g1531
sg75
(dp1638
sg77
(lp1639
g69
(g93
g71
Ntp1640
Rp1641
(dp1642
g83
g1636
sg75
(dp1643
g98
g99
ssg77
(lp1644
g486
asbag69
(g93
g71
Ntp1645
Rp1646
(dp1647
g83
g1636
sg75
(dp1648
g106
g107
ssg77
(lp1649
g109
asbag69
(g93
g71
Ntp1650
Rp1651
(dp1652
g83
g1636
sg75
(dp1653
sg77
(lp1654
g69
(g70
g71
Ntp1655
Rp1656
(dp1657
g83
g1651
sg75
(dp1658
g85
I3
ssg77
(lp1659
g397
asbasbasbag69
(g87
g71
Ntp1660
Rp1661
(dp1662
g83
g1531
sg75
(dp1663
sg77
(lp1664
g69
(g93
g71
Ntp1665
Rp1666
(dp1667
g83
g1661
sg75
(dp1668
g98
g99
ssg77
(lp1669
g512
asbag69
(g93
g71
Ntp1670
Rp1671
(dp1672
g83
g1661
sg75
(dp1673
g106
g107
ssg77
(lp1674
g109
asbag69
(g93
g71
Ntp1675
Rp1676
(dp1677
g83
g1661
sg75
(dp1678
sg77
(lp1679
g69
(g70
g71
Ntp1680
Rp1681
(dp1682
g83
g1676
sg75
(dp1683
g85
I3
ssg77
(lp1684
g397
asbasbasbag69
(g87
g71
Ntp1685
Rp1686
(dp1687
g83
g1531
sg75
(dp1688
sg77
(lp1689
g69
(g93
g71
Ntp1690
Rp1691
(dp1692
g83
g1686
sg75
(dp1693
g98
g99
ssg77
(lp1694
g538
asbag69
(g93
g71
Ntp1695
Rp1696
(dp1697
g83
g1686
sg75
(dp1698
g106
g107
ssg77
(lp1699
g109
asbag69
(g93
g71
Ntp1700
Rp1701
(dp1702
g83
g1686
sg75
(dp1703
sg77
(lp1704
g69
(g70
g71
Ntp1705
Rp1706
(dp1707
g83
g1701
sg75
(dp1708
g85
I3
ssg77
(lp1709
g397
asbasbasbag69
(g87
g71
Ntp1710
Rp1711
(dp1712
g83
g1531
sg75
(dp1713
sg77
(lp1714
g69
(g93
g71
Ntp1715
Rp1716
(dp1717
g83
g1711
sg75
(dp1718
g98
g99
ssg77
(lp1719
g564
asbag69
(g93
g71
Ntp1720
Rp1721
(dp1722
g83
g1711
sg75
(dp1723
g106
g107
ssg77
(lp1724
g109
asbag69
(g93
g71
Ntp1725
Rp1726
(dp1727
g83
g1711
sg75
(dp1728
sg77
(lp1729
g69
(g70
g71
Ntp1730
Rp1731
(dp1732
g83
g1726
sg75
(dp1733
g85
I3
ssg77
(lp1734
g397
asbasbasbasbasbasbasbag69
(g87
g71
Ntp1735
Rp1736
(dp1737
g83
g336
sg75
(dp1738
sg77
(lp1739
g69
(g93
g71
Ntp1740
Rp1741
(dp1742
g83
g1736
sg75
(dp1743
g98
g99
ssg77
(lp1744
S'session_id_welcome'
p1745
asbag69
(g93
g71
Ntp1746
Rp1747
(dp1748
g83
g1736
sg75
(dp1749
g106
g107
ssg77
(lp1750
g109
asbag69
(g93
g71
Ntp1751
Rp1752
(dp1753
g83
g1736
sg75
(dp1754
sg77
(lp1755
g69
(g70
g71
Ntp1756
Rp1757
(dp1758
g83
g1752
sg75
(dp1759
g85
I4
ssg77
(lp1760
g69
(g79
g71
Ntp1761
Rp1762
(dp1763
g83
Nsg75
(dp1764
g85
I3
ssg77
(lp1765
g69
(g87
g71
Ntp1766
Rp1767
(dp1768
g83
g1762
sg75
(dp1769
sg77
(lp1770
g69
(g93
g71
Ntp1771
Rp1772
(dp1773
g83
g1767
sg75
(dp1774
g98
g99
ssg77
(lp1775
g381
asbag69
(g93
g71
Ntp1776
Rp1777
(dp1778
g83
g1767
sg75
(dp1779
g106
g107
ssg77
(lp1780
g109
asbag69
(g93
g71
Ntp1781
Rp1782
(dp1783
g83
g1767
sg75
(dp1784
sg77
(lp1785
g69
(g70
g71
Ntp1786
Rp1787
(dp1788
g83
g1782
sg75
(dp1789
g85
I3
ssg77
(lp1790
g397
asbasbasbag69
(g87
g71
Ntp1791
Rp1792
(dp1793
g83
g1762
sg75
(dp1794
sg77
(lp1795
g69
(g93
g71
Ntp1796
Rp1797
(dp1798
g83
g1792
sg75
(dp1799
g98
g99
ssg77
(lp1800
g408
asbag69
(g93
g71
Ntp1801
Rp1802
(dp1803
g83
g1792
sg75
(dp1804
g106
g107
ssg77
(lp1805
g109
asbag69
(g93
g71
Ntp1806
Rp1807
(dp1808
g83
g1792
sg75
(dp1809
sg77
(lp1810
g69
(g70
g71
Ntp1811
Rp1812
(dp1813
g83
g1807
sg75
(dp1814
g85
I3
ssg77
(lp1815
g397
asbasbasbag69
(g87
g71
Ntp1816
Rp1817
(dp1818
g83
g1762
sg75
(dp1819
sg77
(lp1820
g69
(g93
g71
Ntp1821
Rp1822
(dp1823
g83
g1817
sg75
(dp1824
g98
g99
ssg77
(lp1825
g434
asbag69
(g93
g71
Ntp1826
Rp1827
(dp1828
g83
g1817
sg75
(dp1829
g106
g107
ssg77
(lp1830
g109
asbag69
(g93
g71
Ntp1831
Rp1832
(dp1833
g83
g1817
sg75
(dp1834
sg77
(lp1835
g69
(g70
g71
Ntp1836
Rp1837
(dp1838
g83
g1832
sg75
(dp1839
g85
I3
ssg77
(lp1840
g397
asbasbasbag69
(g87
g71
Ntp1841
Rp1842
(dp1843
g83
g1762
sg75
(dp1844
sg77
(lp1845
g69
(g93
g71
Ntp1846
Rp1847
(dp1848
g83
g1842
sg75
(dp1849
g98
g99
ssg77
(lp1850
g460
asbag69
(g93
g71
Ntp1851
Rp1852
(dp1853
g83
g1842
sg75
(dp1854
g106
g107
ssg77
(lp1855
g109
asbag69
(g93
g71
Ntp1856
Rp1857
(dp1858
g83
g1842
sg75
(dp1859
sg77
(lp1860
g69
(g70
g71
Ntp1861
Rp1862
(dp1863
g83
g1857
sg75
(dp1864
g85
I3
ssg77
(lp1865
g397
asbasbasbag69
(g87
g71
Ntp1866
Rp1867
(dp1868
g83
g1762
sg75
(dp1869
sg77
(lp1870
g69
(g93
g71
Ntp1871
Rp1872
(dp1873
g83
g1867
sg75
(dp1874
g98
g99
ssg77
(lp1875
g486
asbag69
(g93
g71
Ntp1876
Rp1877
(dp1878
g83
g1867
sg75
(dp1879
g106
g107
ssg77
(lp1880
g109
asbag69
(g93
g71
Ntp1881
Rp1882
(dp1883
g83
g1867
sg75
(dp1884
sg77
(lp1885
g69
(g70
g71
Ntp1886
Rp1887
(dp1888
g83
g1882
sg75
(dp1889
g85
I3
ssg77
(lp1890
g397
asbasbasbag69
(g87
g71
Ntp1891
Rp1892
(dp1893
g83
g1762
sg75
(dp1894
sg77
(lp1895
g69
(g93
g71
Ntp1896
Rp1897
(dp1898
g83
g1892
sg75
(dp1899
g98
g99
ssg77
(lp1900
g512
asbag69
(g93
g71
Ntp1901
Rp1902
(dp1903
g83
g1892
sg75
(dp1904
g106
g107
ssg77
(lp1905
g109
asbag69
(g93
g71
Ntp1906
Rp1907
(dp1908
g83
g1892
sg75
(dp1909
sg77
(lp1910
g69
(g70
g71
Ntp1911
Rp1912
(dp1913
g83
g1907
sg75
(dp1914
g85
I3
ssg77
(lp1915
g397
asbasbasbag69
(g87
g71
Ntp1916
Rp1917
(dp1918
g83
g1762
sg75
(dp1919
sg77
(lp1920
g69
(g93
g71
Ntp1921
Rp1922
(dp1923
g83
g1917
sg75
(dp1924
g98
g99
ssg77
(lp1925
g538
asbag69
(g93
g71
Ntp1926
Rp1927
(dp1928
g83
g1917
sg75
(dp1929
g106
g107
ssg77
(lp1930
g109
asbag69
(g93
g71
Ntp1931
Rp1932
(dp1933
g83
g1917
sg75
(dp1934
sg77
(lp1935
g69
(g70
g71
Ntp1936
Rp1937
(dp1938
g83
g1932
sg75
(dp1939
g85
I3
ssg77
(lp1940
g397
asbasbasbag69
(g87
g71
Ntp1941
Rp1942
(dp1943
g83
g1762
sg75
(dp1944
sg77
(lp1945
g69
(g93
g71
Ntp1946
Rp1947
(dp1948
g83
g1942
sg75
(dp1949
g98
g99
ssg77
(lp1950
g564
asbag69
(g93
g71
Ntp1951
Rp1952
(dp1953
g83
g1942
sg75
(dp1954
g106
g107
ssg77
(lp1955
g109
asbag69
(g93
g71
Ntp1956
Rp1957
(dp1958
g83
g1942
sg75
(dp1959
sg77
(lp1960
g69
(g70
g71
Ntp1961
Rp1962
(dp1963
g83
g1957
sg75
(dp1964
g85
I3
ssg77
(lp1965
g397
asbasbasbasbasbasbasbasbasbasbasbag69
(g87
g71
Ntp1966
Rp1967
(dp1968
g83
g140
sg75
(dp1969
sg77
(lp1970
g69
(g93
g71
Ntp1971
Rp1972
(dp1973
g83
g1967
sg75
(dp1974
g98
g99
ssg77
(lp1975
S'env'
p1976
asbag69
(g93
g71
Ntp1977
Rp1978
(dp1979
g83
g1967
sg75
(dp1980
g106
g107
ssg77
(lp1981
g109
asbag69
(g93
g71
Ntp1982
Rp1983
(dp1984
g83
g1967
sg75
(dp1985
sg77
(lp1986
g69
(g70
g71
Ntp1987
Rp1988
(dp1989
g83
g1983
sg75
(dp1990
g85
I5
ssg77
(lp1991
g69
(g79
g71
Ntp1992
Rp1993
(dp1994
g83
Nsg75
(dp1995
g85
I4
ssg77
(lp1996
g69
(g87
g71
Ntp1997
Rp1998
(dp1999
g83
g1993
sg75
(dp2000
sg77
(lp2001
g69
(g93
g71
Ntp2002
Rp2003
(dp2004
g83
g1998
sg75
(dp2005
g98
g99
ssg77
(lp2006
S'app_folders'
p2007
asbag69
(g93
g71
Ntp2008
Rp2009
(dp2010
g83
g1998
sg75
(dp2011
g106
g107
ssg77
(lp2012
g109
asbag69
(g93
g71
Ntp2013
Rp2014
(dp2015
g83
g1998
sg75
(dp2016
sg77
(lp2017
g69
(g70
g71
Ntp2018
Rp2019
(dp2020
g83
g2014
sg75
(dp2021
g85
I4
ssg77
(lp2022
S"set(['/home/marco/projects/milanel/web2py/applications/fragance/', '/home/marco/projects/milanel/web2py/applications/admin/'])"
p2023
asbasbasbag69
(g87
g71
Ntp2024
Rp2025
(dp2026
g83
g1993
sg75
(dp2027
sg77
(lp2028
g69
(g93
g71
Ntp2029
Rp2030
(dp2031
g83
g2025
sg75
(dp2032
g98
g99
ssg77
(lp2033
S'applications_parent'
p2034
asbag69
(g93
g71
Ntp2035
Rp2036
(dp2037
g83
g2025
sg75
(dp2038
g106
g107
ssg77
(lp2039
g109
asbag69
(g93
g71
Ntp2040
Rp2041
(dp2042
g83
g2025
sg75
(dp2043
sg77
(lp2044
g69
(g70
g71
Ntp2045
Rp2046
(dp2047
g83
g2041
sg75
(dp2048
g85
I4
ssg77
(lp2049
S'/home/marco/projects/milanel/web2py'
p2050
asbasbasbag69
(g87
g71
Ntp2051
Rp2052
(dp2053
g83
g1993
sg75
(dp2054
sg77
(lp2055
g69
(g93
g71
Ntp2056
Rp2057
(dp2058
g83
g2052
sg75
(dp2059
g98
g99
ssg77
(lp2060
S'cmd_args'
p2061
asbag69
(g93
g71
Ntp2062
Rp2063
(dp2064
g83
g2052
sg75
(dp2065
g106
g107
ssg77
(lp2066
g109
asbag69
(g93
g71
Ntp2067
Rp2068
(dp2069
g83
g2052
sg75
(dp2070
sg77
(lp2071
g69
(g70
g71
Ntp2072
Rp2073
(dp2074
g83
g2068
sg75
(dp2075
g85
I4
ssg77
(lp2076
g69
(g79
g71
Ntp2077
Rp2078
(dp2079
g83
Nsg75
(dp2080
g85
I3
ssg77
(lp2081
sbasbasbasbag69
(g87
g71
Ntp2082
Rp2083
(dp2084
g83
g1993
sg75
(dp2085
sg77
(lp2086
g69
(g93
g71
Ntp2087
Rp2088
(dp2089
g83
g2083
sg75
(dp2090
g98
g99
ssg77
(lp2091
S'cmd_options'
p2092
asbag69
(g93
g71
Ntp2093
Rp2094
(dp2095
g83
g2083
sg75
(dp2096
g106
g107
ssg77
(lp2097
g109
asbag69
(g93
g71
Ntp2098
Rp2099
(dp2100
g83
g2083
sg75
(dp2101
sg77
(lp2102
g69
(g70
g71
Ntp2103
Rp2104
(dp2105
g83
g2099
sg75
(dp2106
g85
I4
ssg77
(lp2107
S"<Values at 0x64d26c0: {'plain': False, 'winservice': '', 'pid_filename': 'httpserver.pid', 'nobanner': False, 'folder': '/home/marco/projects/milanel/web2py', 'import_models': False, 'test': None, 'socket_timeout': 5, 'timeout': 10, 'minthreads': None, 'extcron': False, 'nocron': False, 'interfaces': None, 'quiet': False, 'nogui': False, 'shutdown_timeout': 5, 'numthreads': None, 'bpython': False, 'server_name': 'malena', 'softcron': False, 'maxthreads': None, 'cronjob': False, 'ssl_certificate': '', 'request_queue_size': 5, 'port': 8000, 'password': 'asd', 'ssl_private_key': '', 'profiler_filename': None, 'taskbar': False, 'scheduler': None, 'config': '', 'ssl_ca_certificate': None, 'debuglevel': 30, 'args': [''], 'log_filename': 'httpserver.log', 'ip': '127.0.0.1', 'verbose': False, 'run': '', 'shell': None}>"
p2108
asbasbasbag69
(g87
g71
Ntp2109
Rp2110
(dp2111
g83
g1993
sg75
(dp2112
sg77
(lp2113
g69
(g93
g71
Ntp2114
Rp2115
(dp2116
g83
g2110
sg75
(dp2117
g98
g99
ssg77
(lp2118
S'db_sessions'
p2119
asbag69
(g93
g71
Ntp2120
Rp2121
(dp2122
g83
g2110
sg75
(dp2123
g106
g107
ssg77
(lp2124
g109
asbag69
(g93
g71
Ntp2125
Rp2126
(dp2127
g83
g2110
sg75
(dp2128
sg77
(lp2129
g69
(g70
g71
Ntp2130
Rp2131
(dp2132
g83
g2126
sg75
(dp2133
g85
I4
ssg77
(lp2134
S'set([])'
p2135
asbasbasbag69
(g87
g71
Ntp2136
Rp2137
(dp2138
g83
g1993
sg75
(dp2139
sg77
(lp2140
g69
(g93
g71
Ntp2141
Rp2142
(dp2143
g83
g2137
sg75
(dp2144
g98
g99
ssg77
(lp2145
S'debugging'
p2146
asbag69
(g93
g71
Ntp2147
Rp2148
(dp2149
g83
g2137
sg75
(dp2150
g106
g107
ssg77
(lp2151
g109
asbag69
(g93
g71
Ntp2152
Rp2153
(dp2154
g83
g2137
sg75
(dp2155
sg77
(lp2156
g69
(g70
g71
Ntp2157
Rp2158
(dp2159
g83
g2153
sg75
(dp2160
g85
I4
ssg77
(lp2161
g170
asbasbasbag69
(g87
g71
Ntp2162
Rp2163
(dp2164
g83
g1993
sg75
(dp2165
sg77
(lp2166
g69
(g93
g71
Ntp2167
Rp2168
(dp2169
g83
g2163
sg75
(dp2170
g98
g99
ssg77
(lp2171
S'gluon_parent'
p2172
asbag69
(g93
g71
Ntp2173
Rp2174
(dp2175
g83
g2163
sg75
(dp2176
g106
g107
ssg77
(lp2177
g109
asbag69
(g93
g71
Ntp2178
Rp2179
(dp2180
g83
g2163
sg75
(dp2181
sg77
(lp2182
g69
(g70
g71
Ntp2183
Rp2184
(dp2185
g83
g2179
sg75
(dp2186
g85
I4
ssg77
(lp2187
S'/home/marco/projects/milanel/web2py'
p2188
asbasbasbag69
(g87
g71
Ntp2189
Rp2190
(dp2191
g83
g1993
sg75
(dp2192
sg77
(lp2193
g69
(g93
g71
Ntp2194
Rp2195
(dp2196
g83
g2190
sg75
(dp2197
g98
g99
ssg77
(lp2198
S'http_accept'
p2199
asbag69
(g93
g71
Ntp2200
Rp2201
(dp2202
g83
g2190
sg75
(dp2203
g106
g107
ssg77
(lp2204
g109
asbag69
(g93
g71
Ntp2205
Rp2206
(dp2207
g83
g2190
sg75
(dp2208
sg77
(lp2209
g69
(g70
g71
Ntp2210
Rp2211
(dp2212
g83
g2206
sg75
(dp2213
g85
I4
ssg77
(lp2214
S'text/html,application/xhtml+xml,application/xml;q=0.9,*/*;q=0.8'
p2215
asbasbasbag69
(g87
g71
Ntp2216
Rp2217
(dp2218
g83
g1993
sg75
(dp2219
sg77
(lp2220
g69
(g93
g71
Ntp2221
Rp2222
(dp2223
g83
g2217
sg75
(dp2224
g98
g99
ssg77
(lp2225
S'http_accept_encoding'
p2226
asbag69
(g93
g71
Ntp2227
Rp2228
(dp2229
g83
g2217
sg75
(dp2230
g106
g107
ssg77
(lp2231
g109
asbag69
(g93
g71
Ntp2232
Rp2233
(dp2234
g83
g2217
sg75
(dp2235
sg77
(lp2236
g69
(g70
g71
Ntp2237
Rp2238
(dp2239
g83
g2233
sg75
(dp2240
g85
I4
ssg77
(lp2241
S'gzip, deflate'
p2242
asbasbasbag69
(g87
g71
Ntp2243
Rp2244
(dp2245
g83
g1993
sg75
(dp2246
sg77
(lp2247
g69
(g93
g71
Ntp2248
Rp2249
(dp2250
g83
g2244
sg75
(dp2251
g98
g99
ssg77
(lp2252
S'http_accept_language'
p2253
asbag69
(g93
g71
Ntp2254
Rp2255
(dp2256
g83
g2244
sg75
(dp2257
g106
g107
ssg77
(lp2258
g109
asbag69
(g93
g71
Ntp2259
Rp2260
(dp2261
g83
g2244
sg75
(dp2262
sg77
(lp2263
g69
(g70
g71
Ntp2264
Rp2265
(dp2266
g83
g2260
sg75
(dp2267
g85
I4
ssg77
(lp2268
S'es-ar,es;q=0.8,en-us;q=0.5,en;q=0.3'
p2269
asbasbasbag69
(g87
g71
Ntp2270
Rp2271
(dp2272
g83
g1993
sg75
(dp2273
sg77
(lp2274
g69
(g93
g71
Ntp2275
Rp2276
(dp2277
g83
g2271
sg75
(dp2278
g98
g99
ssg77
(lp2279
S'http_cache_control'
p2280
asbag69
(g93
g71
Ntp2281
Rp2282
(dp2283
g83
g2271
sg75
(dp2284
g106
g107
ssg77
(lp2285
g109
asbag69
(g93
g71
Ntp2286
Rp2287
(dp2288
g83
g2271
sg75
(dp2289
sg77
(lp2290
g69
(g70
g71
Ntp2291
Rp2292
(dp2293
g83
g2287
sg75
(dp2294
g85
I4
ssg77
(lp2295
S'max-age=0'
p2296
asbasbasbag69
(g87
g71
Ntp2297
Rp2298
(dp2299
g83
g1993
sg75
(dp2300
sg77
(lp2301
g69
(g93
g71
Ntp2302
Rp2303
(dp2304
g83
g2298
sg75
(dp2305
g98
g99
ssg77
(lp2306
S'http_connection'
p2307
asbag69
(g93
g71
Ntp2308
Rp2309
(dp2310
g83
g2298
sg75
(dp2311
g106
g107
ssg77
(lp2312
g109
asbag69
(g93
g71
Ntp2313
Rp2314
(dp2315
g83
g2298
sg75
(dp2316
sg77
(lp2317
g69
(g70
g71
Ntp2318
Rp2319
(dp2320
g83
g2314
sg75
(dp2321
g85
I4
ssg77
(lp2322
S'keep-alive'
p2323
asbasbasbag69
(g87
g71
Ntp2324
Rp2325
(dp2326
g83
g1993
sg75
(dp2327
sg77
(lp2328
g69
(g93
g71
Ntp2329
Rp2330
(dp2331
g83
g2325
sg75
(dp2332
g98
g99
ssg77
(lp2333
S'http_cookie'
p2334
asbag69
(g93
g71
Ntp2335
Rp2336
(dp2337
g83
g2325
sg75
(dp2338
g106
g107
ssg77
(lp2339
g109
asbag69
(g93
g71
Ntp2340
Rp2341
(dp2342
g83
g2325
sg75
(dp2343
sg77
(lp2344
g69
(g70
g71
Ntp2345
Rp2346
(dp2347
g83
g2341
sg75
(dp2348
g85
I4
ssg77
(lp2349
S'__utma=96992031.1881515701.1331265087.1331598672.1331664875.13; __utmz=96992031.1331265087.1.1.utmcsr=(direct)|utmccn=(direct)|utmcmd=(none); session_id_welcome=127.0.0.1-bc1d4fe1-a82f-4886-9661-c21469c577ae; session_id_mulone=127.0.0.1-d00e5c6f-5e23-4faf-8f82-7871a8294546; session_id_pyforum=127.0.0.1-0f1c3970-4880-47c3-9813-2662fd402b76; session_id_admin=127.0.0.1-4a36c6e7-ea5a-4a0a-b382-5b2d89071fbf; PHPSESSID=gq50mjm5dcdrobk0o08uhg8uj4; session_id_flisol2012=127.0.0.1-ed1db9bf-ad91-48d9-88d5-043d2b56127d; __utmc=96992031; session_id_fragance=127.0.0.1-4c183531-58d1-419b-bed0-c56856f380cb'
p2350
asbasbasbag69
(g87
g71
Ntp2351
Rp2352
(dp2353
g83
g1993
sg75
(dp2354
sg77
(lp2355
g69
(g93
g71
Ntp2356
Rp2357
(dp2358
g83
g2352
sg75
(dp2359
g98
g99
ssg77
(lp2360
S'http_host'
p2361
asbag69
(g93
g71
Ntp2362
Rp2363
(dp2364
g83
g2352
sg75
(dp2365
g106
g107
ssg77
(lp2366
g109
asbag69
(g93
g71
Ntp2367
Rp2368
(dp2369
g83
g2352
sg75
(dp2370
sg77
(lp2371
g69
(g70
g71
Ntp2372
Rp2373
(dp2374
g83
g2368
sg75
(dp2375
g85
I4
ssg77
(lp2376
S'127.0.0.1:8000'
p2377
asbasbasbag69
(g87
g71
Ntp2378
Rp2379
(dp2380
g83
g1993
sg75
(dp2381
sg77
(lp2382
g69
(g93
g71
Ntp2383
Rp2384
(dp2385
g83
g2379
sg75
(dp2386
g98
g99
ssg77
(lp2387
S'http_referer'
p2388
asbag69
(g93
g71
Ntp2389
Rp2390
(dp2391
g83
g2379
sg75
(dp2392
g106
g107
ssg77
(lp2393
g109
asbag69
(g93
g71
Ntp2394
Rp2395
(dp2396
g83
g2379
sg75
(dp2397
sg77
(lp2398
g69
(g70
g71
Ntp2399
Rp2400
(dp2401
g83
g2395
sg75
(dp2402
g85
I4
ssg77
(lp2403
S'http://127.0.0.1:8000/admin/default/design/fragance'
p2404
asbasbasbag69
(g87
g71
Ntp2405
Rp2406
(dp2407
g83
g1993
sg75
(dp2408
sg77
(lp2409
g69
(g93
g71
Ntp2410
Rp2411
(dp2412
g83
g2406
sg75
(dp2413
g98
g99
ssg77
(lp2414
S'http_user_agent'
p2415
asbag69
(g93
g71
Ntp2416
Rp2417
(dp2418
g83
g2406
sg75
(dp2419
g106
g107
ssg77
(lp2420
g109
asbag69
(g93
g71
Ntp2421
Rp2422
(dp2423
g83
g2406
sg75
(dp2424
sg77
(lp2425
g69
(g70
g71
Ntp2426
Rp2427
(dp2428
g83
g2422
sg75
(dp2429
g85
I4
ssg77
(lp2430
S'Mozilla/5.0 (X11; Linux x86_64; rv:11.0) Gecko/20100101 Firefox/11.0 Iceweasel/11.0'
p2431
asbasbasbag69
(g87
g71
Ntp2432
Rp2433
(dp2434
g83
g1993
sg75
(dp2435
sg77
(lp2436
g69
(g93
g71
Ntp2437
Rp2438
(dp2439
g83
g2433
sg75
(dp2440
g98
g99
ssg77
(lp2441
S'is_jython'
p2442
asbag69
(g93
g71
Ntp2443
Rp2444
(dp2445
g83
g2433
sg75
(dp2446
g106
g107
ssg77
(lp2447
g109
asbag69
(g93
g71
Ntp2448
Rp2449
(dp2450
g83
g2433
sg75
(dp2451
sg77
(lp2452
g69
(g70
g71
Ntp2453
Rp2454
(dp2455
g83
g2449
sg75
(dp2456
g85
I4
ssg77
(lp2457
g170
asbasbasbag69
(g87
g71
Ntp2458
Rp2459
(dp2460
g83
g1993
sg75
(dp2461
sg77
(lp2462
g69
(g93
g71
Ntp2463
Rp2464
(dp2465
g83
g2459
sg75
(dp2466
g98
g99
ssg77
(lp2467
S'is_pypy'
p2468
asbag69
(g93
g71
Ntp2469
Rp2470
(dp2471
g83
g2459
sg75
(dp2472
g106
g107
ssg77
(lp2473
g109
asbag69
(g93
g71
Ntp2474
Rp2475
(dp2476
g83
g2459
sg75
(dp2477
sg77
(lp2478
g69
(g70
g71
Ntp2479
Rp2480
(dp2481
g83
g2475
sg75
(dp2482
g85
I4
ssg77
(lp2483
S'True'
p2484
asbasbasbag69
(g87
g71
Ntp2485
Rp2486
(dp2487
g83
g1993
sg75
(dp2488
sg77
(lp2489
g69
(g93
g71
Ntp2490
Rp2491
(dp2492
g83
g2486
sg75
(dp2493
g98
g99
ssg77
(lp2494
S'path_info'
p2495
asbag69
(g93
g71
Ntp2496
Rp2497
(dp2498
g83
g2486
sg75
(dp2499
g106
g107
ssg77
(lp2500
g109
asbag69
(g93
g71
Ntp2501
Rp2502
(dp2503
g83
g2486
sg75
(dp2504
sg77
(lp2505
g69
(g70
g71
Ntp2506
Rp2507
(dp2508
g83
g2502
sg75
(dp2509
g85
I4
ssg77
(lp2510
S'/fragance/default/index'
p2511
asbasbasbag69
(g87
g71
Ntp2512
Rp2513
(dp2514
g83
g1993
sg75
(dp2515
sg77
(lp2516
g69
(g93
g71
Ntp2517
Rp2518
(dp2519
g83
g2513
sg75
(dp2520
g98
g99
ssg77
(lp2521
S'query_string'
p2522
asbag69
(g93
g71
Ntp2523
Rp2524
(dp2525
g83
g2513
sg75
(dp2526
g106
g107
ssg77
(lp2527
g109
asbag69
(g93
g71
Ntp2528
Rp2529
(dp2530
g83
g2513
sg75
(dp2531
sg77
(lp2532
g69
(g70
g71
Ntp2533
Rp2534
(dp2535
g83
g2529
sg75
(dp2536
g85
I4
ssg77
(lp2537
S''
p2538
asbasbasbag69
(g87
g71
Ntp2539
Rp2540
(dp2541
g83
g1993
sg75
(dp2542
sg77
(lp2543
g69
(g93
g71
Ntp2544
Rp2545
(dp2546
g83
g2540
sg75
(dp2547
g98
g99
ssg77
(lp2548
S'remote_addr'
p2549
asbag69
(g93
g71
Ntp2550
Rp2551
(dp2552
g83
g2540
sg75
(dp2553
g106
g107
ssg77
(lp2554
g109
asbag69
(g93
g71
Ntp2555
Rp2556
(dp2557
g83
g2540
sg75
(dp2558
sg77
(lp2559
g69
(g70
g71
Ntp2560
Rp2561
(dp2562
g83
g2556
sg75
(dp2563
g85
I4
ssg77
(lp2564
g281
asbasbasbag69
(g87
g71
Ntp2565
Rp2566
(dp2567
g83
g1993
sg75
(dp2568
sg77
(lp2569
g69
(g93
g71
Ntp2570
Rp2571
(dp2572
g83
g2566
sg75
(dp2573
g98
g99
ssg77
(lp2574
S'remote_port'
p2575
asbag69
(g93
g71
Ntp2576
Rp2577
(dp2578
g83
g2566
sg75
(dp2579
g106
g107
ssg77
(lp2580
g109
asbag69
(g93
g71
Ntp2581
Rp2582
(dp2583
g83
g2566
sg75
(dp2584
sg77
(lp2585
g69
(g70
g71
Ntp2586
Rp2587
(dp2588
g83
g2582
sg75
(dp2589
g85
I4
ssg77
(lp2590
S'38405'
p2591
asbasbasbag69
(g87
g71
Ntp2592
Rp2593
(dp2594
g83
g1993
sg75
(dp2595
sg77
(lp2596
g69
(g93
g71
Ntp2597
Rp2598
(dp2599
g83
g2593
sg75
(dp2600
g98
g99
ssg77
(lp2601
S'request_method'
p2602
asbag69
(g93
g71
Ntp2603
Rp2604
(dp2605
g83
g2593
sg75
(dp2606
g106
g107
ssg77
(lp2607
g109
asbag69
(g93
g71
Ntp2608
Rp2609
(dp2610
g83
g2593
sg75
(dp2611
sg77
(lp2612
g69
(g70
g71
Ntp2613
Rp2614
(dp2615
g83
g2609
sg75
(dp2616
g85
I4
ssg77
(lp2617
S'GET'
p2618
asbasbasbag69
(g87
g71
Ntp2619
Rp2620
(dp2621
g83
g1993
sg75
(dp2622
sg77
(lp2623
g69
(g93
g71
Ntp2624
Rp2625
(dp2626
g83
g2620
sg75
(dp2627
g98
g99
ssg77
(lp2628
S'script_name'
p2629
asbag69
(g93
g71
Ntp2630
Rp2631
(dp2632
g83
g2620
sg75
(dp2633
g106
g107
ssg77
(lp2634
g109
asbag69
(g93
g71
Ntp2635
Rp2636
(dp2637
g83
g2620
sg75
(dp2638
sg77
(lp2639
g69
(g70
g71
Ntp2640
Rp2641
(dp2642
g83
g2636
sg75
(dp2643
g85
I4
ssg77
(lp2644
S''
p2645
asbasbasbag69
(g87
g71
Ntp2646
Rp2647
(dp2648
g83
g1993
sg75
(dp2649
sg77
(lp2650
g69
(g93
g71
Ntp2651
Rp2652
(dp2653
g83
g2647
sg75
(dp2654
g98
g99
ssg77
(lp2655
S'server_name'
p2656
asbag69
(g93
g71
Ntp2657
Rp2658
(dp2659
g83
g2647
sg75
(dp2660
g106
g107
ssg77
(lp2661
g109
asbag69
(g93
g71
Ntp2662
Rp2663
(dp2664
g83
g2647
sg75
(dp2665
sg77
(lp2666
g69
(g70
g71
Ntp2667
Rp2668
(dp2669
g83
g2663
sg75
(dp2670
g85
I4
ssg77
(lp2671
S'malena'
p2672
asbasbasbag69
(g87
g71
Ntp2673
Rp2674
(dp2675
g83
g1993
sg75
(dp2676
sg77
(lp2677
g69
(g93
g71
Ntp2678
Rp2679
(dp2680
g83
g2674
sg75
(dp2681
g98
g99
ssg77
(lp2682
S'server_port'
p2683
asbag69
(g93
g71
Ntp2684
Rp2685
(dp2686
g83
g2674
sg75
(dp2687
g106
g107
ssg77
(lp2688
g109
asbag69
(g93
g71
Ntp2689
Rp2690
(dp2691
g83
g2674
sg75
(dp2692
sg77
(lp2693
g69
(g70
g71
Ntp2694
Rp2695
(dp2696
g83
g2690
sg75
(dp2697
g85
I4
ssg77
(lp2698
S'8000'
p2699
asbasbasbag69
(g87
g71
Ntp2700
Rp2701
(dp2702
g83
g1993
sg75
(dp2703
sg77
(lp2704
g69
(g93
g71
Ntp2705
Rp2706
(dp2707
g83
g2701
sg75
(dp2708
g98
g99
ssg77
(lp2709
S'server_protocol'
p2710
asbag69
(g93
g71
Ntp2711
Rp2712
(dp2713
g83
g2701
sg75
(dp2714
g106
g107
ssg77
(lp2715
g109
asbag69
(g93
g71
Ntp2716
Rp2717
(dp2718
g83
g2701
sg75
(dp2719
sg77
(lp2720
g69
(g70
g71
Ntp2721
Rp2722
(dp2723
g83
g2717
sg75
(dp2724
g85
I4
ssg77
(lp2725
S'HTTP/1.1'
p2726
asbasbasbag69
(g87
g71
Ntp2727
Rp2728
(dp2729
g83
g1993
sg75
(dp2730
sg77
(lp2731
g69
(g93
g71
Ntp2732
Rp2733
(dp2734
g83
g2728
sg75
(dp2735
g98
g99
ssg77
(lp2736
S'server_software'
p2737
asbag69
(g93
g71
Ntp2738
Rp2739
(dp2740
g83
g2728
sg75
(dp2741
g106
g107
ssg77
(lp2742
g109
asbag69
(g93
g71
Ntp2743
Rp2744
(dp2745
g83
g2728
sg75
(dp2746
sg77
(lp2747
g69
(g70
g71
Ntp2748
Rp2749
(dp2750
g83
g2744
sg75
(dp2751
g85
I4
ssg77
(lp2752
S'Rocket 1.2.4'
p2753
asbasbasbag69
(g87
g71
Ntp2754
Rp2755
(dp2756
g83
g1993
sg75
(dp2757
sg77
(lp2758
g69
(g93
g71
Ntp2759
Rp2760
(dp2761
g83
g2755
sg75
(dp2762
g98
g99
ssg77
(lp2763
S'web2py_crontype'
p2764
asbag69
(g93
g71
Ntp2765
Rp2766
(dp2767
g83
g2755
sg75
(dp2768
g106
g107
ssg77
(lp2769
g109
asbag69
(g93
g71
Ntp2770
Rp2771
(dp2772
g83
g2755
sg75
(dp2773
sg77
(lp2774
g69
(g70
g71
Ntp2775
Rp2776
(dp2777
g83
g2771
sg75
(dp2778
g85
I4
ssg77
(lp2779
S'hard'
p2780
asbasbasbag69
(g87
g71
Ntp2781
Rp2782
(dp2783
g83
g1993
sg75
(dp2784
sg77
(lp2785
g69
(g93
g71
Ntp2786
Rp2787
(dp2788
g83
g2782
sg75
(dp2789
g98
g99
ssg77
(lp2790
S'web2py_path'
p2791
asbag69
(g93
g71
Ntp2792
Rp2793
(dp2794
g83
g2782
sg75
(dp2795
g106
g107
ssg77
(lp2796
g109
asbag69
(g93
g71
Ntp2797
Rp2798
(dp2799
g83
g2782
sg75
(dp2800
sg77
(lp2801
g69
(g70
g71
Ntp2802
Rp2803
(dp2804
g83
g2798
sg75
(dp2805
g85
I4
ssg77
(lp2806
g2050
asbasbasbag69
(g87
g71
Ntp2807
Rp2808
(dp2809
g83
g1993
sg75
(dp2810
sg77
(lp2811
g69
(g93
g71
Ntp2812
Rp2813
(dp2814
g83
g2808
sg75
(dp2815
g98
g99
ssg77
(lp2816
S'web2py_version'
p2817
asbag69
(g93
g71
Ntp2818
Rp2819
(dp2820
g83
g2808
sg75
(dp2821
g106
g107
ssg77
(lp2822
g109
asbag69
(g93
g71
Ntp2823
Rp2824
(dp2825
g83
g2808
sg75
(dp2826
sg77
(lp2827
g69
(g70
g71
Ntp2828
Rp2829
(dp2830
g83
g2824
sg75
(dp2831
g85
I4
ssg77
(lp2832
g69
(g79
g71
Ntp2833
Rp2834
(dp2835
g83
Nsg75
(dp2836
g85
I3
ssg77
(lp2837
g69
(g87
g71
Ntp2838
Rp2839
(dp2840
g83
g2834
sg75
(dp2841
sg77
(lp2842
g69
(g93
g71
Ntp2843
Rp2844
(dp2845
g83
g2839
sg75
(dp2846
sg77
(lp2847
g69
(g70
g71
Ntp2848
Rp2849
(dp2850
g83
g2844
sg75
(dp2851
g85
I3
ssg77
(lp2852
S'1'
p2853
asbasbasbag69
(g87
g71
Ntp2854
Rp2855
(dp2856
g83
g2834
sg75
(dp2857
sg77
(lp2858
g69
(g93
g71
Ntp2859
Rp2860
(dp2861
g83
g2855
sg75
(dp2862
sg77
(lp2863
g69
(g70
g71
Ntp2864
Rp2865
(dp2866
g83
g2860
sg75
(dp2867
g85
I3
ssg77
(lp2868
S'99'
p2869
asbasbasbag69
(g87
g71
Ntp2870
Rp2871
(dp2872
g83
g2834
sg75
(dp2873
sg77
(lp2874
g69
(g93
g71
Ntp2875
Rp2876
(dp2877
g83
g2871
sg75
(dp2878
sg77
(lp2879
g69
(g70
g71
Ntp2880
Rp2881
(dp2882
g83
g2876
sg75
(dp2883
g85
I3
ssg77
(lp2884
S'7'
p2885
asbasbasbag69
(g87
g71
Ntp2886
Rp2887
(dp2888
g83
g2834
sg75
(dp2889
sg77
(lp2890
g69
(g93
g71
Ntp2891
Rp2892
(dp2893
g83
g2887
sg75
(dp2894
sg77
(lp2895
g69
(g70
g71
Ntp2896
Rp2897
(dp2898
g83
g2892
sg75
(dp2899
g85
I3
ssg77
(lp2900
S'datetime.datetime(2012, 3, 4, 22, 12, 8)'
p2901
asbasbasbag69
(g87
g71
Ntp2902
Rp2903
(dp2904
g83
g2834
sg75
(dp2905
sg77
(lp2906
g69
(g93
g71
Ntp2907
Rp2908
(dp2909
g83
g2903
sg75
(dp2910
sg77
(lp2911
g69
(g70
g71
Ntp2912
Rp2913
(dp2914
g83
g2908
sg75
(dp2915
g85
I3
ssg77
(lp2916
S'stable'
p2917
asbasbasbasbasbasbasbag69
(g87
g71
Ntp2918
Rp2919
(dp2920
g83
g1993
sg75
(dp2921
sg77
(lp2922
g69
(g93
g71
Ntp2923
Rp2924
(dp2925
g83
g2919
sg75
(dp2926
g98
g99
ssg77
(lp2927
S'wsgi_errors'
p2928
asbag69
(g93
g71
Ntp2929
Rp2930
(dp2931
g83
g2919
sg75
(dp2932
g106
g107
ssg77
(lp2933
g109
asbag69
(g93
g71
Ntp2934
Rp2935
(dp2936
g83
g2919
sg75
(dp2937
sg77
(lp2938
g69
(g70
g71
Ntp2939
Rp2940
(dp2941
g83
g2935
sg75
(dp2942
g85
I4
ssg77
(lp2943
S"<open file '<fdopen>', mode 'w' at 0x0000000002ed4b40>"
p2944
asbasbasbag69
(g87
g71
Ntp2945
Rp2946
(dp2947
g83
g1993
sg75
(dp2948
sg77
(lp2949
g69
(g93
g71
Ntp2950
Rp2951
(dp2952
g83
g2946
sg75
(dp2953
g98
g99
ssg77
(lp2954
S'wsgi_file_wrapper'
p2955
asbag69
(g93
g71
Ntp2956
Rp2957
(dp2958
g83
g2946
sg75
(dp2959
g106
g107
ssg77
(lp2960
g109
asbag69
(g93
g71
Ntp2961
Rp2962
(dp2963
g83
g2946
sg75
(dp2964
sg77
(lp2965
g69
(g70
g71
Ntp2966
Rp2967
(dp2968
g83
g2962
sg75
(dp2969
g85
I4
ssg77
(lp2970
S'<class wsgiref.util.FileWrapper at 0x0000000006f105c0>'
p2971
asbasbasbag69
(g87
g71
Ntp2972
Rp2973
(dp2974
g83
g1993
sg75
(dp2975
sg77
(lp2976
g69
(g93
g71
Ntp2977
Rp2978
(dp2979
g83
g2973
sg75
(dp2980
g98
g99
ssg77
(lp2981
S'wsgi_input'
p2982
asbag69
(g93
g71
Ntp2983
Rp2984
(dp2985
g83
g2973
sg75
(dp2986
g106
g107
ssg77
(lp2987
g109
asbag69
(g93
g71
Ntp2988
Rp2989
(dp2990
g83
g2973
sg75
(dp2991
sg77
(lp2992
g69
(g70
g71
Ntp2993
Rp2994
(dp2995
g83
g2989
sg75
(dp2996
g85
I4
ssg77
(lp2997
S'<socket._fileobject object at 0x00007f2b58ed5e68>'
p2998
asbasbasbag69
(g87
g71
Ntp2999
Rp3000
(dp3001
g83
g1993
sg75
(dp3002
sg77
(lp3003
g69
(g93
g71
Ntp3004
Rp3005
(dp3006
g83
g3000
sg75
(dp3007
g98
g99
ssg77
(lp3008
S'wsgi_multiprocess'
p3009
asbag69
(g93
g71
Ntp3010
Rp3011
(dp3012
g83
g3000
sg75
(dp3013
g106
g107
ssg77
(lp3014
g109
asbag69
(g93
g71
Ntp3015
Rp3016
(dp3017
g83
g3000
sg75
(dp3018
sg77
(lp3019
g69
(g70
g71
Ntp3020
Rp3021
(dp3022
g83
g3016
sg75
(dp3023
g85
I4
ssg77
(lp3024
g170
asbasbasbag69
(g87
g71
Ntp3025
Rp3026
(dp3027
g83
g1993
sg75
(dp3028
sg77
(lp3029
g69
(g93
g71
Ntp3030
Rp3031
(dp3032
g83
g3026
sg75
(dp3033
g98
g99
ssg77
(lp3034
S'wsgi_multithread'
p3035
asbag69
(g93
g71
Ntp3036
Rp3037
(dp3038
g83
g3026
sg75
(dp3039
g106
g107
ssg77
(lp3040
g109
asbag69
(g93
g71
Ntp3041
Rp3042
(dp3043
g83
g3026
sg75
(dp3044
sg77
(lp3045
g69
(g70
g71
Ntp3046
Rp3047
(dp3048
g83
g3042
sg75
(dp3049
g85
I4
ssg77
(lp3050
g2484
asbasbasbag69
(g87
g71
Ntp3051
Rp3052
(dp3053
g83
g1993
sg75
(dp3054
sg77
(lp3055
g69
(g93
g71
Ntp3056
Rp3057
(dp3058
g83
g3052
sg75
(dp3059
g98
g99
ssg77
(lp3060
S'wsgi_run_once'
p3061
asbag69
(g93
g71
Ntp3062
Rp3063
(dp3064
g83
g3052
sg75
(dp3065
g106
g107
ssg77
(lp3066
g109
asbag69
(g93
g71
Ntp3067
Rp3068
(dp3069
g83
g3052
sg75
(dp3070
sg77
(lp3071
g69
(g70
g71
Ntp3072
Rp3073
(dp3074
g83
g3068
sg75
(dp3075
g85
I4
ssg77
(lp3076
g170
asbasbasbag69
(g87
g71
Ntp3077
Rp3078
(dp3079
g83
g1993
sg75
(dp3080
sg77
(lp3081
g69
(g93
g71
Ntp3082
Rp3083
(dp3084
g83
g3078
sg75
(dp3085
g98
g99
ssg77
(lp3086
S'wsgi_url_scheme'
p3087
asbag69
(g93
g71
Ntp3088
Rp3089
(dp3090
g83
g3078
sg75
(dp3091
g106
g107
ssg77
(lp3092
g109
asbag69
(g93
g71
Ntp3093
Rp3094
(dp3095
g83
g3078
sg75
(dp3096
sg77
(lp3097
g69
(g70
g71
Ntp3098
Rp3099
(dp3100
g83
g3094
sg75
(dp3101
g85
I4
ssg77
(lp3102
S'http'
p3103
asbasbasbag69
(g87
g71
Ntp3104
Rp3105
(dp3106
g83
g1993
sg75
(dp3107
sg77
(lp3108
g69
(g93
g71
Ntp3109
Rp3110
(dp3111
g83
g3105
sg75
(dp3112
g98
g99
ssg77
(lp3113
S'wsgi_version'
p3114
asbag69
(g93
g71
Ntp3115
Rp3116
(dp3117
g83
g3105
sg75
(dp3118
g106
g107
ssg77
(lp3119
g109
asbag69
(g93
g71
Ntp3120
Rp3121
(dp3122
g83
g3105
sg75
(dp3123
sg77
(lp3124
g69
(g70
g71
Ntp3125
Rp3126
(dp3127
g83
g3121
sg75
(dp3128
g85
I4
ssg77
(lp3129
g69
(g79
g71
Ntp3130
Rp3131
(dp3132
g83
Nsg75
(dp3133
g85
I3
ssg77
(lp3134
g69
(g87
g71
Ntp3135
Rp3136
(dp3137
g83
g3131
sg75
(dp3138
sg77
(lp3139
g69
(g93
g71
Ntp3140
Rp3141
(dp3142
g83
g3136
sg75
(dp3143
sg77
(lp3144
g69
(g70
g71
Ntp3145
Rp3146
(dp3147
g83
g3141
sg75
(dp3148
g85
I3
ssg77
(lp3149
S'1'
p3150
asbasbasbag69
(g87
g71
Ntp3151
Rp3152
(dp3153
g83
g3131
sg75
(dp3154
sg77
(lp3155
g69
(g93
g71
Ntp3156
Rp3157
(dp3158
g83
g3152
sg75
(dp3159
sg77
(lp3160
g69
(g70
g71
Ntp3161
Rp3162
(dp3163
g83
g3157
sg75
(dp3164
g85
I3
ssg77
(lp3165
S'0'
p3166
asbasbasbasbasbasbasbasbasbasbasbag69
(g87
g71
Ntp3167
Rp3168
(dp3169
g83
g140
sg75
(dp3170
sg77
(lp3171
g69
(g93
g71
Ntp3172
Rp3173
(dp3174
g83
g3168
sg75
(dp3175
g98
g99
ssg77
(lp3176
S'extension'
p3177
asbag69
(g93
g71
Ntp3178
Rp3179
(dp3180
g83
g3168
sg75
(dp3181
g106
g107
ssg77
(lp3182
g109
asbag69
(g93
g71
Ntp3183
Rp3184
(dp3185
g83
g3168
sg75
(dp3186
sg77
(lp3187
g69
(g70
g71
Ntp3188
Rp3189
(dp3190
g83
g3184
sg75
(dp3191
g85
I5
ssg77
(lp3192
S'html'
p3193
asbasbasbag69
(g87
g71
Ntp3194
Rp3195
(dp3196
g83
g140
sg75
(dp3197
sg77
(lp3198
g69
(g93
g71
Ntp3199
Rp3200
(dp3201
g83
g3195
sg75
(dp3202
g98
g99
ssg77
(lp3203
S'folder'
p3204
asbag69
(g93
g71
Ntp3205
Rp3206
(dp3207
g83
g3195
sg75
(dp3208
g106
g107
ssg77
(lp3209
g109
asbag69
(g93
g71
Ntp3210
Rp3211
(dp3212
g83
g3195
sg75
(dp3213
sg77
(lp3214
g69
(g70
g71
Ntp3215
Rp3216
(dp3217
g83
g3211
sg75
(dp3218
g85
I5
ssg77
(lp3219
S'/home/marco/projects/milanel/web2py/applications/fragance/'
p3220
asbasbasbag69
(g87
g71
Ntp3221
Rp3222
(dp3223
g83
g140
sg75
(dp3224
sg77
(lp3225
g69
(g93
g71
Ntp3226
Rp3227
(dp3228
g83
g3222
sg75
(dp3229
g98
g99
ssg77
(lp3230
S'function'
p3231
asbag69
(g93
g71
Ntp3232
Rp3233
(dp3234
g83
g3222
sg75
(dp3235
g106
g107
ssg77
(lp3236
g109
asbag69
(g93
g71
Ntp3237
Rp3238
(dp3239
g83
g3222
sg75
(dp3240
sg77
(lp3241
g69
(g70
g71
Ntp3242
Rp3243
(dp3244
g83
g3238
sg75
(dp3245
g85
I5
ssg77
(lp3246
S'index'
p3247
asbasbasbag69
(g87
g71
Ntp3248
Rp3249
(dp3250
g83
g140
sg75
(dp3251
sg77
(lp3252
g69
(g93
g71
Ntp3253
Rp3254
(dp3255
g83
g3249
sg75
(dp3256
g98
g99
ssg77
(lp3257
S'get_vars'
p3258
asbag69
(g93
g71
Ntp3259
Rp3260
(dp3261
g83
g3249
sg75
(dp3262
g106
g107
ssg77
(lp3263
g109
asbag69
(g93
g71
Ntp3264
Rp3265
(dp3266
g83
g3249
sg75
(dp3267
sg77
(lp3268
g69
(g70
g71
Ntp3269
Rp3270
(dp3271
g83
g3265
sg75
(dp3272
g85
I5
ssg77
(lp3273
g69
(g79
g71
Ntp3274
Rp3275
(dp3276
g83
Nsg75
(dp3277
g85
I4
ssg77
(lp3278
sbasbasbasbag69
(g87
g71
Ntp3279
Rp3280
(dp3281
g83
g140
sg75
(dp3282
sg77
(lp3283
g69
(g93
g71
Ntp3284
Rp3285
(dp3286
g83
g3280
sg75
(dp3287
g98
g99
ssg77
(lp3288
S'global_settings'
p3289
asbag69
(g93
g71
Ntp3290
Rp3291
(dp3292
g83
g3280
sg75
(dp3293
g106
g107
ssg77
(lp3294
g109
asbag69
(g93
g71
Ntp3295
Rp3296
(dp3297
g83
g3280
sg75
(dp3298
sg77
(lp3299
g69
(g70
g71
Ntp3300
Rp3301
(dp3302
g83
g3296
sg75
(dp3303
g85
I5
ssg77
(lp3304
g69
(g79
g71
Ntp3305
Rp3306
(dp3307
g83
Nsg75
(dp3308
g85
I4
ssg77
(lp3309
g69
(g87
g71
Ntp3310
Rp3311
(dp3312
g83
g3306
sg75
(dp3313
sg77
(lp3314
g69
(g93
g71
Ntp3315
Rp3316
(dp3317
g83
g3311
sg75
(dp3318
g98
g99
ssg77
(lp3319
g2007
asbag69
(g93
g71
Ntp3320
Rp3321
(dp3322
g83
g3311
sg75
(dp3323
g106
g107
ssg77
(lp3324
g109
asbag69
(g93
g71
Ntp3325
Rp3326
(dp3327
g83
g3311
sg75
(dp3328
sg77
(lp3329
g69
(g70
g71
Ntp3330
Rp3331
(dp3332
g83
g3326
sg75
(dp3333
g85
I4
ssg77
(lp3334
S"set(['/home/marco/projects/milanel/web2py/applications/fragance/', '/home/marco/projects/milanel/web2py/applications/admin/'])"
p3335
asbasbasbag69
(g87
g71
Ntp3336
Rp3337
(dp3338
g83
g3306
sg75
(dp3339
sg77
(lp3340
g69
(g93
g71
Ntp3341
Rp3342
(dp3343
g83
g3337
sg75
(dp3344
g98
g99
ssg77
(lp3345
g2034
asbag69
(g93
g71
Ntp3346
Rp3347
(dp3348
g83
g3337
sg75
(dp3349
g106
g107
ssg77
(lp3350
g109
asbag69
(g93
g71
Ntp3351
Rp3352
(dp3353
g83
g3337
sg75
(dp3354
sg77
(lp3355
g69
(g70
g71
Ntp3356
Rp3357
(dp3358
g83
g3352
sg75
(dp3359
g85
I4
ssg77
(lp3360
g2050
asbasbasbag69
(g87
g71
Ntp3361
Rp3362
(dp3363
g83
g3306
sg75
(dp3364
sg77
(lp3365
g69
(g93
g71
Ntp3366
Rp3367
(dp3368
g83
g3362
sg75
(dp3369
g98
g99
ssg77
(lp3370
g2061
asbag69
(g93
g71
Ntp3371
Rp3372
(dp3373
g83
g3362
sg75
(dp3374
g106
g107
ssg77
(lp3375
g109
asbag69
(g93
g71
Ntp3376
Rp3377
(dp3378
g83
g3362
sg75
(dp3379
sg77
(lp3380
g69
(g70
g71
Ntp3381
Rp3382
(dp3383
g83
g3377
sg75
(dp3384
g85
I4
ssg77
(lp3385
g69
(g79
g71
Ntp3386
Rp3387
(dp3388
g83
Nsg75
(dp3389
g85
I3
ssg77
(lp3390
sbasbasbasbag69
(g87
g71
Ntp3391
Rp3392
(dp3393
g83
g3306
sg75
(dp3394
sg77
(lp3395
g69
(g93
g71
Ntp3396
Rp3397
(dp3398
g83
g3392
sg75
(dp3399
g98
g99
ssg77
(lp3400
g2092
asbag69
(g93
g71
Ntp3401
Rp3402
(dp3403
g83
g3392
sg75
(dp3404
g106
g107
ssg77
(lp3405
g109
asbag69
(g93
g71
Ntp3406
Rp3407
(dp3408
g83
g3392
sg75
(dp3409
sg77
(lp3410
g69
(g70
g71
Ntp3411
Rp3412
(dp3413
g83
g3407
sg75
(dp3414
g85
I4
ssg77
(lp3415
S"<Values at 0x64d26c0: {'plain': False, 'winservice': '', 'pid_filename': 'httpserver.pid', 'nobanner': False, 'folder': '/home/marco/projects/milanel/web2py', 'import_models': False, 'test': None, 'socket_timeout': 5, 'timeout': 10, 'minthreads': None, 'extcron': False, 'nocron': False, 'interfaces': None, 'quiet': False, 'nogui': False, 'shutdown_timeout': 5, 'numthreads': None, 'bpython': False, 'server_name': 'malena', 'softcron': False, 'maxthreads': None, 'cronjob': False, 'ssl_certificate': '', 'request_queue_size': 5, 'port': 8000, 'password': 'asd', 'ssl_private_key': '', 'profiler_filename': None, 'taskbar': False, 'scheduler': None, 'config': '', 'ssl_ca_certificate': None, 'debuglevel': 30, 'args': [''], 'log_filename': 'httpserver.log', 'ip': '127.0.0.1', 'verbose': False, 'run': '', 'shell': None}>"
p3416
asbasbasbag69
(g87
g71
Ntp3417
Rp3418
(dp3419
g83
g3306
sg75
(dp3420
sg77
(lp3421
g69
(g93
g71
Ntp3422
Rp3423
(dp3424
g83
g3418
sg75
(dp3425
g98
g99
ssg77
(lp3426
g2119
asbag69
(g93
g71
Ntp3427
Rp3428
(dp3429
g83
g3418
sg75
(dp3430
g106
g107
ssg77
(lp3431
g109
asbag69
(g93
g71
Ntp3432
Rp3433
(dp3434
g83
g3418
sg75
(dp3435
sg77
(lp3436
g69
(g70
g71
Ntp3437
Rp3438
(dp3439
g83
g3433
sg75
(dp3440
g85
I4
ssg77
(lp3441
S'set([])'
p3442
asbasbasbag69
(g87
g71
Ntp3443
Rp3444
(dp3445
g83
g3306
sg75
(dp3446
sg77
(lp3447
g69
(g93
g71
Ntp3448
Rp3449
(dp3450
g83
g3444
sg75
(dp3451
g98
g99
ssg77
(lp3452
g2146
asbag69
(g93
g71
Ntp3453
Rp3454
(dp3455
g83
g3444
sg75
(dp3456
g106
g107
ssg77
(lp3457
g109
asbag69
(g93
g71
Ntp3458
Rp3459
(dp3460
g83
g3444
sg75
(dp3461
sg77
(lp3462
g69
(g70
g71
Ntp3463
Rp3464
(dp3465
g83
g3459
sg75
(dp3466
g85
I4
ssg77
(lp3467
g170
asbasbasbag69
(g87
g71
Ntp3468
Rp3469
(dp3470
g83
g3306
sg75
(dp3471
sg77
(lp3472
g69
(g93
g71
Ntp3473
Rp3474
(dp3475
g83
g3469
sg75
(dp3476
g98
g99
ssg77
(lp3477
g2172
asbag69
(g93
g71
Ntp3478
Rp3479
(dp3480
g83
g3469
sg75
(dp3481
g106
g107
ssg77
(lp3482
g109
asbag69
(g93
g71
Ntp3483
Rp3484
(dp3485
g83
g3469
sg75
(dp3486
sg77
(lp3487
g69
(g70
g71
Ntp3488
Rp3489
(dp3490
g83
g3484
sg75
(dp3491
g85
I4
ssg77
(lp3492
g2188
asbasbasbag69
(g87
g71
Ntp3493
Rp3494
(dp3495
g83
g3306
sg75
(dp3496
sg77
(lp3497
g69
(g93
g71
Ntp3498
Rp3499
(dp3500
g83
g3494
sg75
(dp3501
g98
g99
ssg77
(lp3502
g2442
asbag69
(g93
g71
Ntp3503
Rp3504
(dp3505
g83
g3494
sg75
(dp3506
g106
g107
ssg77
(lp3507
g109
asbag69
(g93
g71
Ntp3508
Rp3509
(dp3510
g83
g3494
sg75
(dp3511
sg77
(lp3512
g69
(g70
g71
Ntp3513
Rp3514
(dp3515
g83
g3509
sg75
(dp3516
g85
I4
ssg77
(lp3517
g170
asbasbasbag69
(g87
g71
Ntp3518
Rp3519
(dp3520
g83
g3306
sg75
(dp3521
sg77
(lp3522
g69
(g93
g71
Ntp3523
Rp3524
(dp3525
g83
g3519
sg75
(dp3526
g98
g99
ssg77
(lp3527
g2468
asbag69
(g93
g71
Ntp3528
Rp3529
(dp3530
g83
g3519
sg75
(dp3531
g106
g107
ssg77
(lp3532
g109
asbag69
(g93
g71
Ntp3533
Rp3534
(dp3535
g83
g3519
sg75
(dp3536
sg77
(lp3537
g69
(g70
g71
Ntp3538
Rp3539
(dp3540
g83
g3534
sg75
(dp3541
g85
I4
ssg77
(lp3542
g2484
asbasbasbag69
(g87
g71
Ntp3543
Rp3544
(dp3545
g83
g3306
sg75
(dp3546
sg77
(lp3547
g69
(g93
g71
Ntp3548
Rp3549
(dp3550
g83
g3544
sg75
(dp3551
g98
g99
ssg77
(lp3552
g2764
asbag69
(g93
g71
Ntp3553
Rp3554
(dp3555
g83
g3544
sg75
(dp3556
g106
g107
ssg77
(lp3557
g109
asbag69
(g93
g71
Ntp3558
Rp3559
(dp3560
g83
g3544
sg75
(dp3561
sg77
(lp3562
g69
(g70
g71
Ntp3563
Rp3564
(dp3565
g83
g3559
sg75
(dp3566
g85
I4
ssg77
(lp3567
g2780
asbasbasbag69
(g87
g71
Ntp3568
Rp3569
(dp3570
g83
g3306
sg75
(dp3571
sg77
(lp3572
g69
(g93
g71
Ntp3573
Rp3574
(dp3575
g83
g3569
sg75
(dp3576
g98
g99
ssg77
(lp3577
g2817
asbag69
(g93
g71
Ntp3578
Rp3579
(dp3580
g83
g3569
sg75
(dp3581
g106
g107
ssg77
(lp3582
g109
asbag69
(g93
g71
Ntp3583
Rp3584
(dp3585
g83
g3569
sg75
(dp3586
sg77
(lp3587
g69
(g70
g71
Ntp3588
Rp3589
(dp3590
g83
g3584
sg75
(dp3591
g85
I4
ssg77
(lp3592
g69
(g79
g71
Ntp3593
Rp3594
(dp3595
g83
Nsg75
(dp3596
g85
I3
ssg77
(lp3597
g69
(g87
g71
Ntp3598
Rp3599
(dp3600
g83
g3594
sg75
(dp3601
sg77
(lp3602
g69
(g93
g71
Ntp3603
Rp3604
(dp3605
g83
g3599
sg75
(dp3606
sg77
(lp3607
g69
(g70
g71
Ntp3608
Rp3609
(dp3610
g83
g3604
sg75
(dp3611
g85
I3
ssg77
(lp3612
S'1'
p3613
asbasbasbag69
(g87
g71
Ntp3614
Rp3615
(dp3616
g83
g3594
sg75
(dp3617
sg77
(lp3618
g69
(g93
g71
Ntp3619
Rp3620
(dp3621
g83
g3615
sg75
(dp3622
sg77
(lp3623
g69
(g70
g71
Ntp3624
Rp3625
(dp3626
g83
g3620
sg75
(dp3627
g85
I3
ssg77
(lp3628
S'99'
p3629
asbasbasbag69
(g87
g71
Ntp3630
Rp3631
(dp3632
g83
g3594
sg75
(dp3633
sg77
(lp3634
g69
(g93
g71
Ntp3635
Rp3636
(dp3637
g83
g3631
sg75
(dp3638
sg77
(lp3639
g69
(g70
g71
Ntp3640
Rp3641
(dp3642
g83
g3636
sg75
(dp3643
g85
I3
ssg77
(lp3644
S'7'
p3645
asbasbasbag69
(g87
g71
Ntp3646
Rp3647
(dp3648
g83
g3594
sg75
(dp3649
sg77
(lp3650
g69
(g93
g71
Ntp3651
Rp3652
(dp3653
g83
g3647
sg75
(dp3654
sg77
(lp3655
g69
(g70
g71
Ntp3656
Rp3657
(dp3658
g83
g3652
sg75
(dp3659
g85
I3
ssg77
(lp3660
S'datetime.datetime(2012, 3, 4, 22, 12, 8)'
p3661
asbasbasbag69
(g87
g71
Ntp3662
Rp3663
(dp3664
g83
g3594
sg75
(dp3665
sg77
(lp3666
g69
(g93
g71
Ntp3667
Rp3668
(dp3669
g83
g3663
sg75
(dp3670
sg77
(lp3671
g69
(g70
g71
Ntp3672
Rp3673
(dp3674
g83
g3668
sg75
(dp3675
g85
I3
ssg77
(lp3676
g2917
asbasbasbasbasbasbasbasbasbasbasbag69
(g87
g71
Ntp3677
Rp3678
(dp3679
g83
g140
sg75
(dp3680
sg77
(lp3681
g69
(g93
g71
Ntp3682
Rp3683
(dp3684
g83
g3678
sg75
(dp3685
g98
g99
ssg77
(lp3686
S'is_https'
p3687
asbag69
(g93
g71
Ntp3688
Rp3689
(dp3690
g83
g3678
sg75
(dp3691
g106
g107
ssg77
(lp3692
g109
asbag69
(g93
g71
Ntp3693
Rp3694
(dp3695
g83
g3678
sg75
(dp3696
sg77
(lp3697
g69
(g70
g71
Ntp3698
Rp3699
(dp3700
g83
g3694
sg75
(dp3701
g85
I5
ssg77
(lp3702
g170
asbasbasbag69
(g87
g71
Ntp3703
Rp3704
(dp3705
g83
g140
sg75
(dp3706
sg77
(lp3707
g69
(g93
g71
Ntp3708
Rp3709
(dp3710
g83
g3704
sg75
(dp3711
g98
g99
ssg77
(lp3712
S'is_local'
p3713
asbag69
(g93
g71
Ntp3714
Rp3715
(dp3716
g83
g3704
sg75
(dp3717
g106
g107
ssg77
(lp3718
g109
asbag69
(g93
g71
Ntp3719
Rp3720
(dp3721
g83
g3704
sg75
(dp3722
sg77
(lp3723
g69
(g70
g71
Ntp3724
Rp3725
(dp3726
g83
g3720
sg75
(dp3727
g85
I5
ssg77
(lp3728
g2484
asbasbasbag69
(g87
g71
Ntp3729
Rp3730
(dp3731
g83
g140
sg75
(dp3732
sg77
(lp3733
g69
(g93
g71
Ntp3734
Rp3735
(dp3736
g83
g3730
sg75
(dp3737
g98
g99
ssg77
(lp3738
S'is_restful'
p3739
asbag69
(g93
g71
Ntp3740
Rp3741
(dp3742
g83
g3730
sg75
(dp3743
g106
g107
ssg77
(lp3744
g109
asbag69
(g93
g71
Ntp3745
Rp3746
(dp3747
g83
g3730
sg75
(dp3748
sg77
(lp3749
g69
(g70
g71
Ntp3750
Rp3751
(dp3752
g83
g3746
sg75
(dp3753
g85
I5
ssg77
(lp3754
g170
asbasbasbag69
(g87
g71
Ntp3755
Rp3756
(dp3757
g83
g140
sg75
(dp3758
sg77
(lp3759
g69
(g93
g71
Ntp3760
Rp3761
(dp3762
g83
g3756
sg75
(dp3763
g98
g99
ssg77
(lp3764
S'now'
p3765
asbag69
(g93
g71
Ntp3766
Rp3767
(dp3768
g83
g3756
sg75
(dp3769
g106
g107
ssg77
(lp3770
g109
asbag69
(g93
g71
Ntp3771
Rp3772
(dp3773
g83
g3756
sg75
(dp3774
sg77
(lp3775
g69
(g70
g71
Ntp3776
Rp3777
(dp3778
g83
g3772
sg75
(dp3779
g85
I5
ssg77
(lp3780
S'datetime.datetime(2012, 3, 14, 1, 43, 20, 100339)'
p3781
asbasbasbag69
(g87
g71
Ntp3782
Rp3783
(dp3784
g83
g140
sg75
(dp3785
sg77
(lp3786
g69
(g93
g71
Ntp3787
Rp3788
(dp3789
g83
g3783
sg75
(dp3790
g98
g99
ssg77
(lp3791
S'post_vars'
p3792
asbag69
(g93
g71
Ntp3793
Rp3794
(dp3795
g83
g3783
sg75
(dp3796
g106
g107
ssg77
(lp3797
g109
asbag69
(g93
g71
Ntp3798
Rp3799
(dp3800
g83
g3783
sg75
(dp3801
sg77
(lp3802
g69
(g70
g71
Ntp3803
Rp3804
(dp3805
g83
g3799
sg75
(dp3806
g85
I5
ssg77
(lp3807
g69
(g79
g71
Ntp3808
Rp3809
(dp3810
g83
Nsg75
(dp3811
g85
I4
ssg77
(lp3812
sbasbasbasbag69
(g87
g71
Ntp3813
Rp3814
(dp3815
g83
g140
sg75
(dp3816
sg77
(lp3817
g69
(g93
g71
Ntp3818
Rp3819
(dp3820
g83
g3814
sg75
(dp3821
g98
g99
ssg77
(lp3822
S'url'
p3823
asbag69
(g93
g71
Ntp3824
Rp3825
(dp3826
g83
g3814
sg75
(dp3827
g106
g107
ssg77
(lp3828
g109
asbag69
(g93
g71
Ntp3829
Rp3830
(dp3831
g83
g3814
sg75
(dp3832
sg77
(lp3833
g69
(g70
g71
Ntp3834
Rp3835
(dp3836
g83
g3830
sg75
(dp3837
g85
I5
ssg77
(lp3838
S'/fragance/default/index'
p3839
asbasbasbag69
(g87
g71
Ntp3840
Rp3841
(dp3842
g83
g140
sg75
(dp3843
sg77
(lp3844
g69
(g93
g71
Ntp3845
Rp3846
(dp3847
g83
g3841
sg75
(dp3848
g98
g99
ssg77
(lp3849
S'utcnow'
p3850
asbag69
(g93
g71
Ntp3851
Rp3852
(dp3853
g83
g3841
sg75
(dp3854
g106
g107
ssg77
(lp3855
g109
asbag69
(g93
g71
Ntp3856
Rp3857
(dp3858
g83
g3841
sg75
(dp3859
sg77
(lp3860
g69
(g70
g71
Ntp3861
Rp3862
(dp3863
g83
g3857
sg75
(dp3864
g85
I5
ssg77
(lp3865
S'datetime.datetime(2012, 3, 14, 4, 43, 20, 100456.0)'
p3866
asbasbasbag69
(g87
g71
Ntp3867
Rp3868
(dp3869
g83
g140
sg75
(dp3870
sg77
(lp3871
g69
(g93
g71
Ntp3872
Rp3873
(dp3874
g83
g3868
sg75
(dp3875
g98
g99
ssg77
(lp3876
S'uuid'
p3877
asbag69
(g93
g71
Ntp3878
Rp3879
(dp3880
g83
g3868
sg75
(dp3881
g106
g107
ssg77
(lp3882
g109
asbag69
(g93
g71
Ntp3883
Rp3884
(dp3885
g83
g3868
sg75
(dp3886
sg77
(lp3887
g69
(g70
g71
Ntp3888
Rp3889
(dp3890
g83
g3884
sg75
(dp3891
g85
I5
ssg77
(lp3892
S'fragance/127.0.0.1.2012-03-14.01-43-20.c5b11290-bb3a-417e-afcc-50f6c834d9ca'
p3893
asbasbasbag69
(g87
g71
Ntp3894
Rp3895
(dp3896
g83
g140
sg75
(dp3897
sg77
(lp3898
g69
(g93
g71
Ntp3899
Rp3900
(dp3901
g83
g3895
sg75
(dp3902
g98
g99
ssg77
(lp3903
S'vars'
p3904
asbag69
(g93
g71
Ntp3905
Rp3906
(dp3907
g83
g3895
sg75
(dp3908
g106
g107
ssg77
(lp3909
g109
asbag69
(g93
g71
Ntp3910
Rp3911
(dp3912
g83
g3895
sg75
(dp3913
sg77
(lp3914
g69
(g70
g71
Ntp3915
Rp3916
(dp3917
g83
g3911
sg75
(dp3918
g85
I5
ssg77
(lp3919
g69
(g79
g71
Ntp3920
Rp3921
(dp3922
g83
Nsg75
(dp3923
g85
I4
ssg77
(lp3924
sbasbasbasbag69
(g87
g71
Ntp3925
Rp3926
(dp3927
g83
g140
sg75
(dp3928
sg77
(lp3929
g69
(g93
g71
Ntp3930
Rp3931
(dp3932
g83
g3926
sg75
(dp3933
g98
g99
ssg77
(lp3934
S'wsgi'
p3935
asbag69
(g93
g71
Ntp3936
Rp3937
(dp3938
g83
g3926
sg75
(dp3939
g106
g107
ssg77
(lp3940
g109
asbag69
(g93
g71
Ntp3941
Rp3942
(dp3943
g83
g3926
sg75
(dp3944
sg77
(lp3945
g69
(g70
g71
Ntp3946
Rp3947
(dp3948
g83
g3942
sg75
(dp3949
g85
I5
ssg77
(lp3950
g69
(g79
g71
Ntp3951
Rp3952
(dp3953
g83
Nsg75
(dp3954
g85
I4
ssg77
(lp3955
g69
(g87
g71
Ntp3956
Rp3957
(dp3958
g83
g3952
sg75
(dp3959
sg77
(lp3960
g69
(g93
g71
Ntp3961
Rp3962
(dp3963
g83
g3957
sg75
(dp3964
g98
g99
ssg77
(lp3965
S'environ'
p3966
asbag69
(g93
g71
Ntp3967
Rp3968
(dp3969
g83
g3957
sg75
(dp3970
g106
g107
ssg77
(lp3971
g109
asbag69
(g93
g71
Ntp3972
Rp3973
(dp3974
g83
g3957
sg75
(dp3975
sg77
(lp3976
g69
(g70
g71
Ntp3977
Rp3978
(dp3979
g83
g3973
sg75
(dp3980
g85
I4
ssg77
(lp3981
g69
(g79
g71
Ntp3982
Rp3983
(dp3984
g83
Nsg75
(dp3985
g85
I3
ssg77
(lp3986
g69
(g87
g71
Ntp3987
Rp3988
(dp3989
g83
g3983
sg75
(dp3990
sg77
(lp3991
g69
(g93
g71
Ntp3992
Rp3993
(dp3994
g83
g3988
sg75
(dp3995
g98
g99
ssg77
(lp3996
S'HTTP_ACCEPT'
p3997
asbag69
(g93
g71
Ntp3998
Rp3999
(dp4000
g83
g3988
sg75
(dp4001
g106
g107
ssg77
(lp4002
g109
asbag69
(g93
g71
Ntp4003
Rp4004
(dp4005
g83
g3988
sg75
(dp4006
sg77
(lp4007
g69
(g70
g71
Ntp4008
Rp4009
(dp4010
g83
g4004
sg75
(dp4011
g85
I3
ssg77
(lp4012
g2215
asbasbasbag69
(g87
g71
Ntp4013
Rp4014
(dp4015
g83
g3983
sg75
(dp4016
sg77
(lp4017
g69
(g93
g71
Ntp4018
Rp4019
(dp4020
g83
g4014
sg75
(dp4021
g98
g99
ssg77
(lp4022
S'HTTP_ACCEPT_ENCODING'
p4023
asbag69
(g93
g71
Ntp4024
Rp4025
(dp4026
g83
g4014
sg75
(dp4027
g106
g107
ssg77
(lp4028
g109
asbag69
(g93
g71
Ntp4029
Rp4030
(dp4031
g83
g4014
sg75
(dp4032
sg77
(lp4033
g69
(g70
g71
Ntp4034
Rp4035
(dp4036
g83
g4030
sg75
(dp4037
g85
I3
ssg77
(lp4038
g2242
asbasbasbag69
(g87
g71
Ntp4039
Rp4040
(dp4041
g83
g3983
sg75
(dp4042
sg77
(lp4043
g69
(g93
g71
Ntp4044
Rp4045
(dp4046
g83
g4040
sg75
(dp4047
g98
g99
ssg77
(lp4048
S'HTTP_ACCEPT_LANGUAGE'
p4049
asbag69
(g93
g71
Ntp4050
Rp4051
(dp4052
g83
g4040
sg75
(dp4053
g106
g107
ssg77
(lp4054
g109
asbag69
(g93
g71
Ntp4055
Rp4056
(dp4057
g83
g4040
sg75
(dp4058
sg77
(lp4059
g69
(g70
g71
Ntp4060
Rp4061
(dp4062
g83
g4056
sg75
(dp4063
g85
I3
ssg77
(lp4064
g2269
asbasbasbag69
(g87
g71
Ntp4065
Rp4066
(dp4067
g83
g3983
sg75
(dp4068
sg77
(lp4069
g69
(g93
g71
Ntp4070
Rp4071
(dp4072
g83
g4066
sg75
(dp4073
g98
g99
ssg77
(lp4074
S'HTTP_CACHE_CONTROL'
p4075
asbag69
(g93
g71
Ntp4076
Rp4077
(dp4078
g83
g4066
sg75
(dp4079
g106
g107
ssg77
(lp4080
g109
asbag69
(g93
g71
Ntp4081
Rp4082
(dp4083
g83
g4066
sg75
(dp4084
sg77
(lp4085
g69
(g70
g71
Ntp4086
Rp4087
(dp4088
g83
g4082
sg75
(dp4089
g85
I3
ssg77
(lp4090
g2296
asbasbasbag69
(g87
g71
Ntp4091
Rp4092
(dp4093
g83
g3983
sg75
(dp4094
sg77
(lp4095
g69
(g93
g71
Ntp4096
Rp4097
(dp4098
g83
g4092
sg75
(dp4099
g98
g99
ssg77
(lp4100
S'HTTP_CONNECTION'
p4101
asbag69
(g93
g71
Ntp4102
Rp4103
(dp4104
g83
g4092
sg75
(dp4105
g106
g107
ssg77
(lp4106
g109
asbag69
(g93
g71
Ntp4107
Rp4108
(dp4109
g83
g4092
sg75
(dp4110
sg77
(lp4111
g69
(g70
g71
Ntp4112
Rp4113
(dp4114
g83
g4108
sg75
(dp4115
g85
I3
ssg77
(lp4116
g2323
asbasbasbag69
(g87
g71
Ntp4117
Rp4118
(dp4119
g83
g3983
sg75
(dp4120
sg77
(lp4121
g69
(g93
g71
Ntp4122
Rp4123
(dp4124
g83
g4118
sg75
(dp4125
g98
g99
ssg77
(lp4126
S'HTTP_COOKIE'
p4127
asbag69
(g93
g71
Ntp4128
Rp4129
(dp4130
g83
g4118
sg75
(dp4131
g106
g107
ssg77
(lp4132
g109
asbag69
(g93
g71
Ntp4133
Rp4134
(dp4135
g83
g4118
sg75
(dp4136
sg77
(lp4137
g69
(g70
g71
Ntp4138
Rp4139
(dp4140
g83
g4134
sg75
(dp4141
g85
I3
ssg77
(lp4142
g2350
asbasbasbag69
(g87
g71
Ntp4143
Rp4144
(dp4145
g83
g3983
sg75
(dp4146
sg77
(lp4147
g69
(g93
g71
Ntp4148
Rp4149
(dp4150
g83
g4144
sg75
(dp4151
g98
g99
ssg77
(lp4152
S'HTTP_HOST'
p4153
asbag69
(g93
g71
Ntp4154
Rp4155
(dp4156
g83
g4144
sg75
(dp4157
g106
g107
ssg77
(lp4158
g109
asbag69
(g93
g71
Ntp4159
Rp4160
(dp4161
g83
g4144
sg75
(dp4162
sg77
(lp4163
g69
(g70
g71
Ntp4164
Rp4165
(dp4166
g83
g4160
sg75
(dp4167
g85
I3
ssg77
(lp4168
g2377
asbasbasbag69
(g87
g71
Ntp4169
Rp4170
(dp4171
g83
g3983
sg75
(dp4172
sg77
(lp4173
g69
(g93
g71
Ntp4174
Rp4175
(dp4176
g83
g4170
sg75
(dp4177
g98
g99
ssg77
(lp4178
S'HTTP_REFERER'
p4179
asbag69
(g93
g71
Ntp4180
Rp4181
(dp4182
g83
g4170
sg75
(dp4183
g106
g107
ssg77
(lp4184
g109
asbag69
(g93
g71
Ntp4185
Rp4186
(dp4187
g83
g4170
sg75
(dp4188
sg77
(lp4189
g69
(g70
g71
Ntp4190
Rp4191
(dp4192
g83
g4186
sg75
(dp4193
g85
I3
ssg77
(lp4194
g2404
asbasbasbag69
(g87
g71
Ntp4195
Rp4196
(dp4197
g83
g3983
sg75
(dp4198
sg77
(lp4199
g69
(g93
g71
Ntp4200
Rp4201
(dp4202
g83
g4196
sg75
(dp4203
g98
g99
ssg77
(lp4204
S'HTTP_USER_AGENT'
p4205
asbag69
(g93
g71
Ntp4206
Rp4207
(dp4208
g83
g4196
sg75
(dp4209
g106
g107
ssg77
(lp4210
g109
asbag69
(g93
g71
Ntp4211
Rp4212
(dp4213
g83
g4196
sg75
(dp4214
sg77
(lp4215
g69
(g70
g71
Ntp4216
Rp4217
(dp4218
g83
g4212
sg75
(dp4219
g85
I3
ssg77
(lp4220
g2431
asbasbasbag69
(g87
g71
Ntp4221
Rp4222
(dp4223
g83
g3983
sg75
(dp4224
sg77
(lp4225
g69
(g93
g71
Ntp4226
Rp4227
(dp4228
g83
g4222
sg75
(dp4229
g98
g99
ssg77
(lp4230
S'PATH_INFO'
p4231
asbag69
(g93
g71
Ntp4232
Rp4233
(dp4234
g83
g4222
sg75
(dp4235
g106
g107
ssg77
(lp4236
g109
asbag69
(g93
g71
Ntp4237
Rp4238
(dp4239
g83
g4222
sg75
(dp4240
sg77
(lp4241
g69
(g70
g71
Ntp4242
Rp4243
(dp4244
g83
g4238
sg75
(dp4245
g85
I3
ssg77
(lp4246
g2511
asbasbasbag69
(g87
g71
Ntp4247
Rp4248
(dp4249
g83
g3983
sg75
(dp4250
sg77
(lp4251
g69
(g93
g71
Ntp4252
Rp4253
(dp4254
g83
g4248
sg75
(dp4255
g98
g99
ssg77
(lp4256
S'QUERY_STRING'
p4257
asbag69
(g93
g71
Ntp4258
Rp4259
(dp4260
g83
g4248
sg75
(dp4261
g106
g107
ssg77
(lp4262
g109
asbag69
(g93
g71
Ntp4263
Rp4264
(dp4265
g83
g4248
sg75
(dp4266
sg77
(lp4267
g69
(g70
g71
Ntp4268
Rp4269
(dp4270
g83
g4264
sg75
(dp4271
g85
I3
ssg77
(lp4272
g2538
asbasbasbag69
(g87
g71
Ntp4273
Rp4274
(dp4275
g83
g3983
sg75
(dp4276
sg77
(lp4277
g69
(g93
g71
Ntp4278
Rp4279
(dp4280
g83
g4274
sg75
(dp4281
g98
g99
ssg77
(lp4282
S'REMOTE_ADDR'
p4283
asbag69
(g93
g71
Ntp4284
Rp4285
(dp4286
g83
g4274
sg75
(dp4287
g106
g107
ssg77
(lp4288
g109
asbag69
(g93
g71
Ntp4289
Rp4290
(dp4291
g83
g4274
sg75
(dp4292
sg77
(lp4293
g69
(g70
g71
Ntp4294
Rp4295
(dp4296
g83
g4290
sg75
(dp4297
g85
I3
ssg77
(lp4298
g281
asbasbasbag69
(g87
g71
Ntp4299
Rp4300
(dp4301
g83
g3983
sg75
(dp4302
sg77
(lp4303
g69
(g93
g71
Ntp4304
Rp4305
(dp4306
g83
g4300
sg75
(dp4307
g98
g99
ssg77
(lp4308
S'REMOTE_PORT'
p4309
asbag69
(g93
g71
Ntp4310
Rp4311
(dp4312
g83
g4300
sg75
(dp4313
g106
g107
ssg77
(lp4314
g109
asbag69
(g93
g71
Ntp4315
Rp4316
(dp4317
g83
g4300
sg75
(dp4318
sg77
(lp4319
g69
(g70
g71
Ntp4320
Rp4321
(dp4322
g83
g4316
sg75
(dp4323
g85
I3
ssg77
(lp4324
g2591
asbasbasbag69
(g87
g71
Ntp4325
Rp4326
(dp4327
g83
g3983
sg75
(dp4328
sg77
(lp4329
g69
(g93
g71
Ntp4330
Rp4331
(dp4332
g83
g4326
sg75
(dp4333
g98
g99
ssg77
(lp4334
S'REQUEST_METHOD'
p4335
asbag69
(g93
g71
Ntp4336
Rp4337
(dp4338
g83
g4326
sg75
(dp4339
g106
g107
ssg77
(lp4340
g109
asbag69
(g93
g71
Ntp4341
Rp4342
(dp4343
g83
g4326
sg75
(dp4344
sg77
(lp4345
g69
(g70
g71
Ntp4346
Rp4347
(dp4348
g83
g4342
sg75
(dp4349
g85
I3
ssg77
(lp4350
g2618
asbasbasbag69
(g87
g71
Ntp4351
Rp4352
(dp4353
g83
g3983
sg75
(dp4354
sg77
(lp4355
g69
(g93
g71
Ntp4356
Rp4357
(dp4358
g83
g4352
sg75
(dp4359
g98
g99
ssg77
(lp4360
S'SCRIPT_NAME'
p4361
asbag69
(g93
g71
Ntp4362
Rp4363
(dp4364
g83
g4352
sg75
(dp4365
g106
g107
ssg77
(lp4366
g109
asbag69
(g93
g71
Ntp4367
Rp4368
(dp4369
g83
g4352
sg75
(dp4370
sg77
(lp4371
g69
(g70
g71
Ntp4372
Rp4373
(dp4374
g83
g4368
sg75
(dp4375
g85
I3
ssg77
(lp4376
g2645
asbasbasbag69
(g87
g71
Ntp4377
Rp4378
(dp4379
g83
g3983
sg75
(dp4380
sg77
(lp4381
g69
(g93
g71
Ntp4382
Rp4383
(dp4384
g83
g4378
sg75
(dp4385
g98
g99
ssg77
(lp4386
S'SERVER_NAME'
p4387
asbag69
(g93
g71
Ntp4388
Rp4389
(dp4390
g83
g4378
sg75
(dp4391
g106
g107
ssg77
(lp4392
g109
asbag69
(g93
g71
Ntp4393
Rp4394
(dp4395
g83
g4378
sg75
(dp4396
sg77
(lp4397
g69
(g70
g71
Ntp4398
Rp4399
(dp4400
g83
g4394
sg75
(dp4401
g85
I3
ssg77
(lp4402
g2672
asbasbasbag69
(g87
g71
Ntp4403
Rp4404
(dp4405
g83
g3983
sg75
(dp4406
sg77
(lp4407
g69
(g93
g71
Ntp4408
Rp4409
(dp4410
g83
g4404
sg75
(dp4411
g98
g99
ssg77
(lp4412
S'SERVER_PORT'
p4413
asbag69
(g93
g71
Ntp4414
Rp4415
(dp4416
g83
g4404
sg75
(dp4417
g106
g107
ssg77
(lp4418
g109
asbag69
(g93
g71
Ntp4419
Rp4420
(dp4421
g83
g4404
sg75
(dp4422
sg77
(lp4423
g69
(g70
g71
Ntp4424
Rp4425
(dp4426
g83
g4420
sg75
(dp4427
g85
I3
ssg77
(lp4428
g2699
asbasbasbag69
(g87
g71
Ntp4429
Rp4430
(dp4431
g83
g3983
sg75
(dp4432
sg77
(lp4433
g69
(g93
g71
Ntp4434
Rp4435
(dp4436
g83
g4430
sg75
(dp4437
g98
g99
ssg77
(lp4438
S'SERVER_PROTOCOL'
p4439
asbag69
(g93
g71
Ntp4440
Rp4441
(dp4442
g83
g4430
sg75
(dp4443
g106
g107
ssg77
(lp4444
g109
asbag69
(g93
g71
Ntp4445
Rp4446
(dp4447
g83
g4430
sg75
(dp4448
sg77
(lp4449
g69
(g70
g71
Ntp4450
Rp4451
(dp4452
g83
g4446
sg75
(dp4453
g85
I3
ssg77
(lp4454
g2726
asbasbasbag69
(g87
g71
Ntp4455
Rp4456
(dp4457
g83
g3983
sg75
(dp4458
sg77
(lp4459
g69
(g93
g71
Ntp4460
Rp4461
(dp4462
g83
g4456
sg75
(dp4463
g98
g99
ssg77
(lp4464
S'SERVER_SOFTWARE'
p4465
asbag69
(g93
g71
Ntp4466
Rp4467
(dp4468
g83
g4456
sg75
(dp4469
g106
g107
ssg77
(lp4470
g109
asbag69
(g93
g71
Ntp4471
Rp4472
(dp4473
g83
g4456
sg75
(dp4474
sg77
(lp4475
g69
(g70
g71
Ntp4476
Rp4477
(dp4478
g83
g4472
sg75
(dp4479
g85
I3
ssg77
(lp4480
g2753
asbasbasbag69
(g87
g71
Ntp4481
Rp4482
(dp4483
g83
g3983
sg75
(dp4484
sg77
(lp4485
g69
(g93
g71
Ntp4486
Rp4487
(dp4488
g83
g4482
sg75
(dp4489
g98
g99
ssg77
(lp4490
S'wsgi.errors'
p4491
asbag69
(g93
g71
Ntp4492
Rp4493
(dp4494
g83
g4482
sg75
(dp4495
g106
g107
ssg77
(lp4496
g109
asbag69
(g93
g71
Ntp4497
Rp4498
(dp4499
g83
g4482
sg75
(dp4500
sg77
(lp4501
g69
(g70
g71
Ntp4502
Rp4503
(dp4504
g83
g4498
sg75
(dp4505
g85
I3
ssg77
(lp4506
S"<open file '<fdopen>', mode 'w' at 0x0000000002ed4b40>"
p4507
asbasbasbag69
(g87
g71
Ntp4508
Rp4509
(dp4510
g83
g3983
sg75
(dp4511
sg77
(lp4512
g69
(g93
g71
Ntp4513
Rp4514
(dp4515
g83
g4509
sg75
(dp4516
g98
g99
ssg77
(lp4517
S'wsgi.file_wrapper'
p4518
asbag69
(g93
g71
Ntp4519
Rp4520
(dp4521
g83
g4509
sg75
(dp4522
g106
g107
ssg77
(lp4523
g109
asbag69
(g93
g71
Ntp4524
Rp4525
(dp4526
g83
g4509
sg75
(dp4527
sg77
(lp4528
g69
(g70
g71
Ntp4529
Rp4530
(dp4531
g83
g4525
sg75
(dp4532
g85
I3
ssg77
(lp4533
S'<class wsgiref.util.FileWrapper at 0x0000000006f105c0>'
p4534
asbasbasbag69
(g87
g71
Ntp4535
Rp4536
(dp4537
g83
g3983
sg75
(dp4538
sg77
(lp4539
g69
(g93
g71
Ntp4540
Rp4541
(dp4542
g83
g4536
sg75
(dp4543
g98
g99
ssg77
(lp4544
S'wsgi.input'
p4545
asbag69
(g93
g71
Ntp4546
Rp4547
(dp4548
g83
g4536
sg75
(dp4549
g106
g107
ssg77
(lp4550
g109
asbag69
(g93
g71
Ntp4551
Rp4552
(dp4553
g83
g4536
sg75
(dp4554
sg77
(lp4555
g69
(g70
g71
Ntp4556
Rp4557
(dp4558
g83
g4552
sg75
(dp4559
g85
I3
ssg77
(lp4560
S'<cStringIO.StringO object at 0x0000000007d434e8>'
p4561
asbasbasbag69
(g87
g71
Ntp4562
Rp4563
(dp4564
g83
g3983
sg75
(dp4565
sg77
(lp4566
g69
(g93
g71
Ntp4567
Rp4568
(dp4569
g83
g4563
sg75
(dp4570
g98
g99
ssg77
(lp4571
S'wsgi.multiprocess'
p4572
asbag69
(g93
g71
Ntp4573
Rp4574
(dp4575
g83
g4563
sg75
(dp4576
g106
g107
ssg77
(lp4577
g109
asbag69
(g93
g71
Ntp4578
Rp4579
(dp4580
g83
g4563
sg75
(dp4581
sg77
(lp4582
g69
(g70
g71
Ntp4583
Rp4584
(dp4585
g83
g4579
sg75
(dp4586
g85
I3
ssg77
(lp4587
g170
asbasbasbag69
(g87
g71
Ntp4588
Rp4589
(dp4590
g83
g3983
sg75
(dp4591
sg77
(lp4592
g69
(g93
g71
Ntp4593
Rp4594
(dp4595
g83
g4589
sg75
(dp4596
g98
g99
ssg77
(lp4597
S'wsgi.multithread'
p4598
asbag69
(g93
g71
Ntp4599
Rp4600
(dp4601
g83
g4589
sg75
(dp4602
g106
g107
ssg77
(lp4603
g109
asbag69
(g93
g71
Ntp4604
Rp4605
(dp4606
g83
g4589
sg75
(dp4607
sg77
(lp4608
g69
(g70
g71
Ntp4609
Rp4610
(dp4611
g83
g4605
sg75
(dp4612
g85
I3
ssg77
(lp4613
g2484
asbasbasbag69
(g87
g71
Ntp4614
Rp4615
(dp4616
g83
g3983
sg75
(dp4617
sg77
(lp4618
g69
(g93
g71
Ntp4619
Rp4620
(dp4621
g83
g4615
sg75
(dp4622
g98
g99
ssg77
(lp4623
S'wsgi.run_once'
p4624
asbag69
(g93
g71
Ntp4625
Rp4626
(dp4627
g83
g4615
sg75
(dp4628
g106
g107
ssg77
(lp4629
g109
asbag69
(g93
g71
Ntp4630
Rp4631
(dp4632
g83
g4615
sg75
(dp4633
sg77
(lp4634
g69
(g70
g71
Ntp4635
Rp4636
(dp4637
g83
g4631
sg75
(dp4638
g85
I3
ssg77
(lp4639
g170
asbasbasbag69
(g87
g71
Ntp4640
Rp4641
(dp4642
g83
g3983
sg75
(dp4643
sg77
(lp4644
g69
(g93
g71
Ntp4645
Rp4646
(dp4647
g83
g4641
sg75
(dp4648
g98
g99
ssg77
(lp4649
S'wsgi.url_scheme'
p4650
asbag69
(g93
g71
Ntp4651
Rp4652
(dp4653
g83
g4641
sg75
(dp4654
g106
g107
ssg77
(lp4655
g109
asbag69
(g93
g71
Ntp4656
Rp4657
(dp4658
g83
g4641
sg75
(dp4659
sg77
(lp4660
g69
(g70
g71
Ntp4661
Rp4662
(dp4663
g83
g4657
sg75
(dp4664
g85
I3
ssg77
(lp4665
g3103
asbasbasbag69
(g87
g71
Ntp4666
Rp4667
(dp4668
g83
g3983
sg75
(dp4669
sg77
(lp4670
g69
(g93
g71
Ntp4671
Rp4672
(dp4673
g83
g4667
sg75
(dp4674
g98
g99
ssg77
(lp4675
S'wsgi.version'
p4676
asbag69
(g93
g71
Ntp4677
Rp4678
(dp4679
g83
g4667
sg75
(dp4680
g106
g107
ssg77
(lp4681
g109
asbag69
(g93
g71
Ntp4682
Rp4683
(dp4684
g83
g4667
sg75
(dp4685
sg77
(lp4686
g69
(g70
g71
Ntp4687
Rp4688
(dp4689
g83
g4683
sg75
(dp4690
g85
I3
ssg77
(lp4691
S'1'
p4692
asbasbasbasbasbasbasbasbasbasbasbasbasbsS'response'
p4693
g69
(g70
g71
Ntp4694
Rp4695
(dp4696
g75
(dp4697
sg77
(lp4698
g69
(g79
g71
Ntp4699
Rp4700
(dp4701
g83
Nsg75
(dp4702
g85
I5
ssg77
(lp4703
g69
(g87
g71
Ntp4704
Rp4705
(dp4706
g83
g4700
sg75
(dp4707
sg77
(lp4708
g69
(g93
g71
Ntp4709
Rp4710
(dp4711
g83
g4705
sg75
(dp4712
g98
g99
ssg77
(lp4713
g238
asbag69
(g93
g71
Ntp4714
Rp4715
(dp4716
g83
g4705
sg75
(dp4717
g106
g107
ssg77
(lp4718
g109
asbag69
(g93
g71
Ntp4719
Rp4720
(dp4721
g83
g4705
sg75
(dp4722
sg77
(lp4723
g69
(g70
g71
Ntp4724
Rp4725
(dp4726
g83
g4720
sg75
(dp4727
g85
I5
ssg77
(lp4728
S'<cStringIO.StringO object at 0x0000000007d43360>'
p4729
asbasbasbag69
(g87
g71
Ntp4730
Rp4731
(dp4732
g83
g4700
sg75
(dp4733
sg77
(lp4734
g69
(g93
g71
Ntp4735
Rp4736
(dp4737
g83
g4731
sg75
(dp4738
g98
g99
ssg77
(lp4739
g319
asbag69
(g93
g71
Ntp4740
Rp4741
(dp4742
g83
g4731
sg75
(dp4743
g106
g107
ssg77
(lp4744
g109
asbag69
(g93
g71
Ntp4745
Rp4746
(dp4747
g83
g4731
sg75
(dp4748
sg77
(lp4749
g69
(g70
g71
Ntp4750
Rp4751
(dp4752
g83
g4746
sg75
(dp4753
g85
I5
ssg77
(lp4754
g69
(g79
g71
Ntp4755
Rp4756
(dp4757
g83
Nsg75
(dp4758
g85
I4
ssg77
(lp4759
g69
(g87
g71
Ntp4760
Rp4761
(dp4762
g83
g4756
sg75
(dp4763
sg77
(lp4764
g69
(g93
g71
Ntp4765
Rp4766
(dp4767
g83
g4761
sg75
(dp4768
g98
g99
ssg77
(lp4769
S'session_id_fragance'
p4770
asbag69
(g93
g71
Ntp4771
Rp4772
(dp4773
g83
g4761
sg75
(dp4774
g106
g107
ssg77
(lp4775
g109
asbag69
(g93
g71
Ntp4776
Rp4777
(dp4778
g83
g4761
sg75
(dp4779
sg77
(lp4780
g69
(g70
g71
Ntp4781
Rp4782
(dp4783
g83
g4777
sg75
(dp4784
g85
I4
ssg77
(lp4785
g69
(g79
g71
Ntp4786
Rp4787
(dp4788
g83
Nsg75
(dp4789
g85
I3
ssg77
(lp4790
g69
(g87
g71
Ntp4791
Rp4792
(dp4793
g83
g4787
sg75
(dp4794
sg77
(lp4795
g69
(g93
g71
Ntp4796
Rp4797
(dp4798
g83
g4792
sg75
(dp4799
g98
g99
ssg77
(lp4800
g381
asbag69
(g93
g71
Ntp4801
Rp4802
(dp4803
g83
g4792
sg75
(dp4804
g106
g107
ssg77
(lp4805
g109
asbag69
(g93
g71
Ntp4806
Rp4807
(dp4808
g83
g4792
sg75
(dp4809
sg77
(lp4810
g69
(g70
g71
Ntp4811
Rp4812
(dp4813
g83
g4807
sg75
(dp4814
g85
I3
ssg77
(lp4815
g397
asbasbasbag69
(g87
g71
Ntp4816
Rp4817
(dp4818
g83
g4787
sg75
(dp4819
sg77
(lp4820
g69
(g93
g71
Ntp4821
Rp4822
(dp4823
g83
g4817
sg75
(dp4824
g98
g99
ssg77
(lp4825
g408
asbag69
(g93
g71
Ntp4826
Rp4827
(dp4828
g83
g4817
sg75
(dp4829
g106
g107
ssg77
(lp4830
g109
asbag69
(g93
g71
Ntp4831
Rp4832
(dp4833
g83
g4817
sg75
(dp4834
sg77
(lp4835
g69
(g70
g71
Ntp4836
Rp4837
(dp4838
g83
g4832
sg75
(dp4839
g85
I3
ssg77
(lp4840
g397
asbasbasbag69
(g87
g71
Ntp4841
Rp4842
(dp4843
g83
g4787
sg75
(dp4844
sg77
(lp4845
g69
(g93
g71
Ntp4846
Rp4847
(dp4848
g83
g4842
sg75
(dp4849
g98
g99
ssg77
(lp4850
g434
asbag69
(g93
g71
Ntp4851
Rp4852
(dp4853
g83
g4842
sg75
(dp4854
g106
g107
ssg77
(lp4855
g109
asbag69
(g93
g71
Ntp4856
Rp4857
(dp4858
g83
g4842
sg75
(dp4859
sg77
(lp4860
g69
(g70
g71
Ntp4861
Rp4862
(dp4863
g83
g4857
sg75
(dp4864
g85
I3
ssg77
(lp4865
g397
asbasbasbag69
(g87
g71
Ntp4866
Rp4867
(dp4868
g83
g4787
sg75
(dp4869
sg77
(lp4870
g69
(g93
g71
Ntp4871
Rp4872
(dp4873
g83
g4867
sg75
(dp4874
g98
g99
ssg77
(lp4875
g460
asbag69
(g93
g71
Ntp4876
Rp4877
(dp4878
g83
g4867
sg75
(dp4879
g106
g107
ssg77
(lp4880
g109
asbag69
(g93
g71
Ntp4881
Rp4882
(dp4883
g83
g4867
sg75
(dp4884
sg77
(lp4885
g69
(g70
g71
Ntp4886
Rp4887
(dp4888
g83
g4882
sg75
(dp4889
g85
I3
ssg77
(lp4890
g397
asbasbasbag69
(g87
g71
Ntp4891
Rp4892
(dp4893
g83
g4787
sg75
(dp4894
sg77
(lp4895
g69
(g93
g71
Ntp4896
Rp4897
(dp4898
g83
g4892
sg75
(dp4899
g98
g99
ssg77
(lp4900
g486
asbag69
(g93
g71
Ntp4901
Rp4902
(dp4903
g83
g4892
sg75
(dp4904
g106
g107
ssg77
(lp4905
g109
asbag69
(g93
g71
Ntp4906
Rp4907
(dp4908
g83
g4892
sg75
(dp4909
sg77
(lp4910
g69
(g70
g71
Ntp4911
Rp4912
(dp4913
g83
g4907
sg75
(dp4914
g85
I3
ssg77
(lp4915
g397
asbasbasbag69
(g87
g71
Ntp4916
Rp4917
(dp4918
g83
g4787
sg75
(dp4919
sg77
(lp4920
g69
(g93
g71
Ntp4921
Rp4922
(dp4923
g83
g4917
sg75
(dp4924
g98
g99
ssg77
(lp4925
g512
asbag69
(g93
g71
Ntp4926
Rp4927
(dp4928
g83
g4917
sg75
(dp4929
g106
g107
ssg77
(lp4930
g109
asbag69
(g93
g71
Ntp4931
Rp4932
(dp4933
g83
g4917
sg75
(dp4934
sg77
(lp4935
g69
(g70
g71
Ntp4936
Rp4937
(dp4938
g83
g4932
sg75
(dp4939
g85
I3
ssg77
(lp4940
S'/'
p4941
asbasbasbag69
(g87
g71
Ntp4942
Rp4943
(dp4944
g83
g4787
sg75
(dp4945
sg77
(lp4946
g69
(g93
g71
Ntp4947
Rp4948
(dp4949
g83
g4943
sg75
(dp4950
g98
g99
ssg77
(lp4951
g538
asbag69
(g93
g71
Ntp4952
Rp4953
(dp4954
g83
g4943
sg75
(dp4955
g106
g107
ssg77
(lp4956
g109
asbag69
(g93
g71
Ntp4957
Rp4958
(dp4959
g83
g4943
sg75
(dp4960
sg77
(lp4961
g69
(g70
g71
Ntp4962
Rp4963
(dp4964
g83
g4958
sg75
(dp4965
g85
I3
ssg77
(lp4966
g397
asbasbasbag69
(g87
g71
Ntp4967
Rp4968
(dp4969
g83
g4787
sg75
(dp4970
sg77
(lp4971
g69
(g93
g71
Ntp4972
Rp4973
(dp4974
g83
g4968
sg75
(dp4975
g98
g99
ssg77
(lp4976
g564
asbag69
(g93
g71
Ntp4977
Rp4978
(dp4979
g83
g4968
sg75
(dp4980
g106
g107
ssg77
(lp4981
g109
asbag69
(g93
g71
Ntp4982
Rp4983
(dp4984
g83
g4968
sg75
(dp4985
sg77
(lp4986
g69
(g70
g71
Ntp4987
Rp4988
(dp4989
g83
g4983
sg75
(dp4990
g85
I3
ssg77
(lp4991
g397
asbasbasbasbasbasbasbasbasbasbasbag69
(g87
g71
Ntp4992
Rp4993
(dp4994
g83
g4700
sg75
(dp4995
sg77
(lp4996
g69
(g93
g71
Ntp4997
Rp4998
(dp4999
g83
g4993
sg75
(dp5000
g98
g99
ssg77
(lp5001
S'delimiters'
p5002
asbag69
(g93
g71
Ntp5003
Rp5004
(dp5005
g83
g4993
sg75
(dp5006
g106
g107
ssg77
(lp5007
g109
asbag69
(g93
g71
Ntp5008
Rp5009
(dp5010
g83
g4993
sg75
(dp5011
sg77
(lp5012
g69
(g70
g71
Ntp5013
Rp5014
(dp5015
g83
g5009
sg75
(dp5016
g85
I5
ssg77
(lp5017
g69
(g79
g71
Ntp5018
Rp5019
(dp5020
g83
Nsg75
(dp5021
g85
I4
ssg77
(lp5022
g69
(g87
g71
Ntp5023
Rp5024
(dp5025
g83
g5019
sg75
(dp5026
sg77
(lp5027
g69
(g93
g71
Ntp5028
Rp5029
(dp5030
g83
g5024
sg75
(dp5031
sg77
(lp5032
g69
(g70
g71
Ntp5033
Rp5034
(dp5035
g83
g5029
sg75
(dp5036
g85
I4
ssg77
(lp5037
S'{{'
p5038
asbasbasbag69
(g87
g71
Ntp5039
Rp5040
(dp5041
g83
g5019
sg75
(dp5042
sg77
(lp5043
g69
(g93
g71
Ntp5044
Rp5045
(dp5046
g83
g5040
sg75
(dp5047
sg77
(lp5048
g69
(g70
g71
Ntp5049
Rp5050
(dp5051
g83
g5045
sg75
(dp5052
g85
I4
ssg77
(lp5053
S'}}'
p5054
asbasbasbasbasbasbasbag69
(g87
g71
Ntp5055
Rp5056
(dp5057
g83
g4700
sg75
(dp5058
sg77
(lp5059
g69
(g93
g71
Ntp5060
Rp5061
(dp5062
g83
g5056
sg75
(dp5063
g98
g99
ssg77
(lp5064
S'files'
p5065
asbag69
(g93
g71
Ntp5066
Rp5067
(dp5068
g83
g5056
sg75
(dp5069
g106
g107
ssg77
(lp5070
g109
asbag69
(g93
g71
Ntp5071
Rp5072
(dp5073
g83
g5056
sg75
(dp5074
sg77
(lp5075
g69
(g70
g71
Ntp5076
Rp5077
(dp5078
g83
g5072
sg75
(dp5079
g85
I5
ssg77
(lp5080
g69
(g79
g71
Ntp5081
Rp5082
(dp5083
g83
Nsg75
(dp5084
g85
I4
ssg77
(lp5085
sbasbasbasbag69
(g87
g71
Ntp5086
Rp5087
(dp5088
g83
g4700
sg75
(dp5089
sg77
(lp5090
g69
(g93
g71
Ntp5091
Rp5092
(dp5093
g83
g5087
sg75
(dp5094
g98
g99
ssg77
(lp5095
S'flash'
p5096
asbag69
(g93
g71
Ntp5097
Rp5098
(dp5099
g83
g5087
sg75
(dp5100
g106
g107
ssg77
(lp5101
g109
asbag69
(g93
g71
Ntp5102
Rp5103
(dp5104
g83
g5087
sg75
(dp5105
sg77
(lp5106
g69
(g70
g71
Ntp5107
Rp5108
(dp5109
g83
g5103
sg75
(dp5110
g85
I5
ssg77
(lp5111
S''
p5112
asbasbasbag69
(g87
g71
Ntp5113
Rp5114
(dp5115
g83
g4700
sg75
(dp5116
sg77
(lp5117
g69
(g93
g71
Ntp5118
Rp5119
(dp5120
g83
g5114
sg75
(dp5121
g98
g99
ssg77
(lp5122
S'generic_patterns'
p5123
asbag69
(g93
g71
Ntp5124
Rp5125
(dp5126
g83
g5114
sg75
(dp5127
g106
g107
ssg77
(lp5128
g109
asbag69
(g93
g71
Ntp5129
Rp5130
(dp5131
g83
g5114
sg75
(dp5132
sg77
(lp5133
g69
(g70
g71
Ntp5134
Rp5135
(dp5136
g83
g5130
sg75
(dp5137
g85
I5
ssg77
(lp5138
g69
(g79
g71
Ntp5139
Rp5140
(dp5141
g83
Nsg75
(dp5142
g85
I4
ssg77
(lp5143
g69
(g87
g71
Ntp5144
Rp5145
(dp5146
g83
g5140
sg75
(dp5147
sg77
(lp5148
g69
(g93
g71
Ntp5149
Rp5150
(dp5151
g83
g5145
sg75
(dp5152
sg77
(lp5153
g69
(g70
g71
Ntp5154
Rp5155
(dp5156
g83
g5150
sg75
(dp5157
g85
I4
ssg77
(lp5158
S'*'
p5159
asbasbasbasbasbasbasbag69
(g87
g71
Ntp5160
Rp5161
(dp5162
g83
g4700
sg75
(dp5163
sg77
(lp5164
g69
(g93
g71
Ntp5165
Rp5166
(dp5167
g83
g5161
sg75
(dp5168
g98
g99
ssg77
(lp5169
S'headers'
p5170
asbag69
(g93
g71
Ntp5171
Rp5172
(dp5173
g83
g5161
sg75
(dp5174
g106
g107
ssg77
(lp5175
g109
asbag69
(g93
g71
Ntp5176
Rp5177
(dp5178
g83
g5161
sg75
(dp5179
sg77
(lp5180
g69
(g70
g71
Ntp5181
Rp5182
(dp5183
g83
g5177
sg75
(dp5184
g85
I5
ssg77
(lp5185
g69
(g79
g71
Ntp5186
Rp5187
(dp5188
g83
Nsg75
(dp5189
g85
I4
ssg77
(lp5190
g69
(g87
g71
Ntp5191
Rp5192
(dp5193
g83
g5187
sg75
(dp5194
sg77
(lp5195
g69
(g93
g71
Ntp5196
Rp5197
(dp5198
g83
g5192
sg75
(dp5199
g98
g99
ssg77
(lp5200
S'Cache-Control'
p5201
asbag69
(g93
g71
Ntp5202
Rp5203
(dp5204
g83
g5192
sg75
(dp5205
g106
g107
ssg77
(lp5206
g109
asbag69
(g93
g71
Ntp5207
Rp5208
(dp5209
g83
g5192
sg75
(dp5210
sg77
(lp5211
g69
(g70
g71
Ntp5212
Rp5213
(dp5214
g83
g5208
sg75
(dp5215
g85
I4
ssg77
(lp5216
S'no-store, no-cache, must-revalidate, post-check=0, pre-check=0'
p5217
asbasbasbag69
(g87
g71
Ntp5218
Rp5219
(dp5220
g83
g5187
sg75
(dp5221
sg77
(lp5222
g69
(g93
g71
Ntp5223
Rp5224
(dp5225
g83
g5219
sg75
(dp5226
g98
g99
ssg77
(lp5227
S'Content-Type'
p5228
asbag69
(g93
g71
Ntp5229
Rp5230
(dp5231
g83
g5219
sg75
(dp5232
g106
g107
ssg77
(lp5233
g109
asbag69
(g93
g71
Ntp5234
Rp5235
(dp5236
g83
g5219
sg75
(dp5237
sg77
(lp5238
g69
(g70
g71
Ntp5239
Rp5240
(dp5241
g83
g5235
sg75
(dp5242
g85
I4
ssg77
(lp5243
S'text/html; charset=utf-8'
p5244
asbasbasbag69
(g87
g71
Ntp5245
Rp5246
(dp5247
g83
g5187
sg75
(dp5248
sg77
(lp5249
g69
(g93
g71
Ntp5250
Rp5251
(dp5252
g83
g5246
sg75
(dp5253
g98
g99
ssg77
(lp5254
S'Expires'
p5255
asbag69
(g93
g71
Ntp5256
Rp5257
(dp5258
g83
g5246
sg75
(dp5259
g106
g107
ssg77
(lp5260
g109
asbag69
(g93
g71
Ntp5261
Rp5262
(dp5263
g83
g5246
sg75
(dp5264
sg77
(lp5265
g69
(g70
g71
Ntp5266
Rp5267
(dp5268
g83
g5262
sg75
(dp5269
g85
I4
ssg77
(lp5270
S'Wed, 14 Mar 2012 04:43:20 GMT'
p5271
asbasbasbag69
(g87
g71
Ntp5272
Rp5273
(dp5274
g83
g5187
sg75
(dp5275
sg77
(lp5276
g69
(g93
g71
Ntp5277
Rp5278
(dp5279
g83
g5273
sg75
(dp5280
g98
g99
ssg77
(lp5281
S'Pragma'
p5282
asbag69
(g93
g71
Ntp5283
Rp5284
(dp5285
g83
g5273
sg75
(dp5286
g106
g107
ssg77
(lp5287
g109
asbag69
(g93
g71
Ntp5288
Rp5289
(dp5290
g83
g5273
sg75
(dp5291
sg77
(lp5292
g69
(g70
g71
Ntp5293
Rp5294
(dp5295
g83
g5289
sg75
(dp5296
g85
I4
ssg77
(lp5297
S'no-cache'
p5298
asbasbasbag69
(g87
g71
Ntp5299
Rp5300
(dp5301
g83
g5187
sg75
(dp5302
sg77
(lp5303
g69
(g93
g71
Ntp5304
Rp5305
(dp5306
g83
g5300
sg75
(dp5307
g98
g99
ssg77
(lp5308
S'X-Powered-By'
p5309
asbag69
(g93
g71
Ntp5310
Rp5311
(dp5312
g83
g5300
sg75
(dp5313
g106
g107
ssg77
(lp5314
g109
asbag69
(g93
g71
Ntp5315
Rp5316
(dp5317
g83
g5300
sg75
(dp5318
sg77
(lp5319
g69
(g70
g71
Ntp5320
Rp5321
(dp5322
g83
g5316
sg75
(dp5323
g85
I4
ssg77
(lp5324
S'web2py'
p5325
asbasbasbasbasbasbasbag69
(g87
g71
Ntp5326
Rp5327
(dp5328
g83
g4700
sg75
(dp5329
sg77
(lp5330
g69
(g93
g71
Ntp5331
Rp5332
(dp5333
g83
g5327
sg75
(dp5334
g98
g99
ssg77
(lp5335
S'menu'
p5336
asbag69
(g93
g71
Ntp5337
Rp5338
(dp5339
g83
g5327
sg75
(dp5340
g106
g107
ssg77
(lp5341
g109
asbag69
(g93
g71
Ntp5342
Rp5343
(dp5344
g83
g5327
sg75
(dp5345
sg77
(lp5346
g69
(g70
g71
Ntp5347
Rp5348
(dp5349
g83
g5343
sg75
(dp5350
g85
I5
ssg77
(lp5351
g69
(g79
g71
Ntp5352
Rp5353
(dp5354
g83
Nsg75
(dp5355
g85
I4
ssg77
(lp5356
sbasbasbasbag69
(g87
g71
Ntp5357
Rp5358
(dp5359
g83
g4700
sg75
(dp5360
sg77
(lp5361
g69
(g93
g71
Ntp5362
Rp5363
(dp5364
g83
g5358
sg75
(dp5365
g98
g99
ssg77
(lp5366
S'meta'
p5367
asbag69
(g93
g71
Ntp5368
Rp5369
(dp5370
g83
g5358
sg75
(dp5371
g106
g107
ssg77
(lp5372
g109
asbag69
(g93
g71
Ntp5373
Rp5374
(dp5375
g83
g5358
sg75
(dp5376
sg77
(lp5377
g69
(g70
g71
Ntp5378
Rp5379
(dp5380
g83
g5374
sg75
(dp5381
g85
I5
ssg77
(lp5382
g69
(g79
g71
Ntp5383
Rp5384
(dp5385
g83
Nsg75
(dp5386
g85
I4
ssg77
(lp5387
sbasbasbasbag69
(g87
g71
Ntp5388
Rp5389
(dp5390
g83
g4700
sg75
(dp5391
sg77
(lp5392
g69
(g93
g71
Ntp5393
Rp5394
(dp5395
g83
g5389
sg75
(dp5396
g98
g99
ssg77
(lp5397
S'postprocessing'
p5398
asbag69
(g93
g71
Ntp5399
Rp5400
(dp5401
g83
g5389
sg75
(dp5402
g106
g107
ssg77
(lp5403
g109
asbag69
(g93
g71
Ntp5404
Rp5405
(dp5406
g83
g5389
sg75
(dp5407
sg77
(lp5408
g69
(g70
g71
Ntp5409
Rp5410
(dp5411
g83
g5405
sg75
(dp5412
g85
I5
ssg77
(lp5413
g69
(g79
g71
Ntp5414
Rp5415
(dp5416
g83
Nsg75
(dp5417
g85
I4
ssg77
(lp5418
sbasbasbasbag69
(g87
g71
Ntp5419
Rp5420
(dp5421
g83
g4700
sg75
(dp5422
sg77
(lp5423
g69
(g93
g71
Ntp5424
Rp5425
(dp5426
g83
g5420
sg75
(dp5427
g98
g99
ssg77
(lp5428
S'session_file'
p5429
asbag69
(g93
g71
Ntp5430
Rp5431
(dp5432
g83
g5420
sg75
(dp5433
g106
g107
ssg77
(lp5434
g109
asbag69
(g93
g71
Ntp5435
Rp5436
(dp5437
g83
g5420
sg75
(dp5438
sg77
(lp5439
g69
(g70
g71
Ntp5440
Rp5441
(dp5442
g83
g5436
sg75
(dp5443
g85
I5
ssg77
(lp5444
S"<open file '/home/marco/projects/milanel/web2py/applications/fragance/sessions/127.0.0.1-4c183531-58d1-419b-bed0-c56856f380cb', mode 'rb+' at 0x0000000006a98158>"
p5445
asbasbasbag69
(g87
g71
Ntp5446
Rp5447
(dp5448
g83
g4700
sg75
(dp5449
sg77
(lp5450
g69
(g93
g71
Ntp5451
Rp5452
(dp5453
g83
g5447
sg75
(dp5454
g98
g99
ssg77
(lp5455
S'session_filename'
p5456
asbag69
(g93
g71
Ntp5457
Rp5458
(dp5459
g83
g5447
sg75
(dp5460
g106
g107
ssg77
(lp5461
g109
asbag69
(g93
g71
Ntp5462
Rp5463
(dp5464
g83
g5447
sg75
(dp5465
sg77
(lp5466
g69
(g70
g71
Ntp5467
Rp5468
(dp5469
g83
g5463
sg75
(dp5470
g85
I5
ssg77
(lp5471
S'/home/marco/projects/milanel/web2py/applications/fragance/sessions/127.0.0.1-4c183531-58d1-419b-bed0-c56856f380cb'
p5472
asbasbasbag69
(g87
g71
Ntp5473
Rp5474
(dp5475
g83
g4700
sg75
(dp5476
sg77
(lp5477
g69
(g93
g71
Ntp5478
Rp5479
(dp5480
g83
g5474
sg75
(dp5481
g98
g99
ssg77
(lp5482
S'session_id'
p5483
asbag69
(g93
g71
Ntp5484
Rp5485
(dp5486
g83
g5474
sg75
(dp5487
g106
g107
ssg77
(lp5488
g109
asbag69
(g93
g71
Ntp5489
Rp5490
(dp5491
g83
g5474
sg75
(dp5492
sg77
(lp5493
g69
(g70
g71
Ntp5494
Rp5495
(dp5496
g83
g5490
sg75
(dp5497
g85
I5
ssg77
(lp5498
S'127.0.0.1-4c183531-58d1-419b-bed0-c56856f380cb'
p5499
asbasbasbag69
(g87
g71
Ntp5500
Rp5501
(dp5502
g83
g4700
sg75
(dp5503
sg77
(lp5504
g69
(g93
g71
Ntp5505
Rp5506
(dp5507
g83
g5501
sg75
(dp5508
g98
g99
ssg77
(lp5509
S'session_id_name'
p5510
asbag69
(g93
g71
Ntp5511
Rp5512
(dp5513
g83
g5501
sg75
(dp5514
g106
g107
ssg77
(lp5515
g109
asbag69
(g93
g71
Ntp5516
Rp5517
(dp5518
g83
g5501
sg75
(dp5519
sg77
(lp5520
g69
(g70
g71
Ntp5521
Rp5522
(dp5523
g83
g5517
sg75
(dp5524
g85
I5
ssg77
(lp5525
g4770
asbasbasbag69
(g87
g71
Ntp5526
Rp5527
(dp5528
g83
g4700
sg75
(dp5529
sg77
(lp5530
g69
(g93
g71
Ntp5531
Rp5532
(dp5533
g83
g5527
sg75
(dp5534
g98
g99
ssg77
(lp5535
S'session_locked'
p5536
asbag69
(g93
g71
Ntp5537
Rp5538
(dp5539
g83
g5527
sg75
(dp5540
g106
g107
ssg77
(lp5541
g109
asbag69
(g93
g71
Ntp5542
Rp5543
(dp5544
g83
g5527
sg75
(dp5545
sg77
(lp5546
g69
(g70
g71
Ntp5547
Rp5548
(dp5549
g83
g5543
sg75
(dp5550
g85
I5
ssg77
(lp5551
g2484
asbasbasbag69
(g87
g71
Ntp5552
Rp5553
(dp5554
g83
g4700
sg75
(dp5555
sg77
(lp5556
g69
(g93
g71
Ntp5557
Rp5558
(dp5559
g83
g5553
sg75
(dp5560
g98
g99
ssg77
(lp5561
S'session_new'
p5562
asbag69
(g93
g71
Ntp5563
Rp5564
(dp5565
g83
g5553
sg75
(dp5566
g106
g107
ssg77
(lp5567
g109
asbag69
(g93
g71
Ntp5568
Rp5569
(dp5570
g83
g5553
sg75
(dp5571
sg77
(lp5572
g69
(g70
g71
Ntp5573
Rp5574
(dp5575
g83
g5569
sg75
(dp5576
g85
I5
ssg77
(lp5577
g170
asbasbasbag69
(g87
g71
Ntp5578
Rp5579
(dp5580
g83
g4700
sg75
(dp5581
sg77
(lp5582
g69
(g93
g71
Ntp5583
Rp5584
(dp5585
g83
g5579
sg75
(dp5586
g98
g99
ssg77
(lp5587
S'status'
p5588
asbag69
(g93
g71
Ntp5589
Rp5590
(dp5591
g83
g5579
sg75
(dp5592
g106
g107
ssg77
(lp5593
g109
asbag69
(g93
g71
Ntp5594
Rp5595
(dp5596
g83
g5579
sg75
(dp5597
sg77
(lp5598
g69
(g70
g71
Ntp5599
Rp5600
(dp5601
g83
g5595
sg75
(dp5602
g85
I5
ssg77
(lp5603
S'200'
p5604
asbasbasbag69
(g87
g71
Ntp5605
Rp5606
(dp5607
g83
g4700
sg75
(dp5608
sg77
(lp5609
g69
(g93
g71
Ntp5610
Rp5611
(dp5612
g83
g5606
sg75
(dp5613
g98
g99
ssg77
(lp5614
g3877
asbag69
(g93
g71
Ntp5615
Rp5616
(dp5617
g83
g5606
sg75
(dp5618
g106
g107
ssg77
(lp5619
g109
asbag69
(g93
g71
Ntp5620
Rp5621
(dp5622
g83
g5606
sg75
(dp5623
sg77
(lp5624
g69
(g70
g71
Ntp5625
Rp5626
(dp5627
g83
g5621
sg75
(dp5628
g85
I5
ssg77
(lp5629
g3893
asbasbasbag69
(g87
g71
Ntp5630
Rp5631
(dp5632
g83
g4700
sg75
(dp5633
sg77
(lp5634
g69
(g93
g71
Ntp5635
Rp5636
(dp5637
g83
g5631
sg75
(dp5638
g98
g99
ssg77
(lp5639
S'view'
p5640
asbag69
(g93
g71
Ntp5641
Rp5642
(dp5643
g83
g5631
sg75
(dp5644
g106
g107
ssg77
(lp5645
g109
asbag69
(g93
g71
Ntp5646
Rp5647
(dp5648
g83
g5631
sg75
(dp5649
sg77
(lp5650
g69
(g70
g71
Ntp5651
Rp5652
(dp5653
g83
g5647
sg75
(dp5654
g85
I5
ssg77
(lp5655
S'default/index.html'
p5656
asbasbasbasbasbsS'frames'
p5657
(lp5658
(dp5659
S'file'
p5660
S'/home/marco/projects/milanel/web2py/gluon/restricted.py'
p5661
sS'call'
p5662
S'(code="# coding: utf8\\n\\ndb.define_table(\'proveedor\',\\n   ...,\'double\'),\\n    Field(\'fventa\',\'datetime\')\\n    )\\n", environment={\'A\': <class \'gluon.html.A\'>, \'Auth\': <class \'gluon.tools.Auth\'>, \'B\': <class \'gluon.html.B\'>, \'BEAUTIFY\': <class \'gluon.html.BEAUTIFY\'>, \'BODY\': <class \'gluon.html.BODY\'>, \'BR\': <class \'gluon.html.BR\'>, \'BUTTON\': <class \'gluon.html.BUTTON\'>, \'CAT\': <class \'gluon.html.CAT\'>, \'CENTER\': <class \'gluon.html.CENTER\'>, \'CLEANUP\': <class \'gluon.validators.CLEANUP\'>, ...}, layer=\'/home/marco/projects/milanel/web2py/applications/fragance/models/db_interno.py\')'
p5663
sS'func'
p5664
S'restricted'
p5665
sS'dump'
p5666
(dp5667
S'code'
p5668
S'"# coding: utf8\\n\\ndb.define_table(\'proveedor\',\\n   ...,\'double\'),\\n    Field(\'fventa\',\'datetime\')\\n    )\\n"'
p5669
sS'layer'
p5670
S"'/home/marco/projects/milanel/web2py/applications/fragance/models/db_interno.py'"
p5671
sS'global compile2'
p5672
S'<function compile2>'
p5673
sS'ccode'
p5674
S'undefined'
p5675
ssS'lnum'
p5676
I204
sS'lines'
p5677
(dp5678
I208
S'    except RestrictedError:'
p5679
sI199
S"    environment['__name__'] = '__restricted__'"
p5680
sI200
S'    try:'
p5681
sI201
S'        if type(code) == types.CodeType:'
p5682
sI202
S'            ccode = code'
p5683
sI203
S'        else:'
p5684
sI204
S'            ccode = compile2(code,layer)'
p5685
sI205
S'        exec ccode in environment'
p5686
sI206
S'    except HTTP:'
p5687
sI207
S'        raise'
p5688
ssa(dp5689
g5660
S'/home/marco/projects/milanel/web2py/gluon/restricted.py'
p5690
sg5662
S'(code="# coding: utf8\\n\\ndb.define_table(\'proveedor\',\\n   ...,\'double\'),\\n    Field(\'fventa\',\'datetime\')\\n    )\\n", layer=\'/home/marco/projects/milanel/web2py/applications/fragance/models/db_interno.py\')'
p5691
sg5664
S'compile2'
p5692
sg5666
(dp5693
S'builtincompile'
p5694
S'<built-in function compile>'
p5695
sS'code'
p5696
S'"# coding: utf8\\n\\ndb.define_table(\'proveedor\',\\n   ...,\'double\'),\\n    Field(\'fventa\',\'datetime\')\\n    )\\n"'
p5697
sS'code.rstrip'
p5698
S'<bound method str.rstrip of "# coding: utf8\\n\\nd...ble\'),\\n    Field(\'fventa\',\'datetime\')\\n    )\\n">'
p5699
sS').replace'
p5700
g5675
sS'layer'
p5701
S"'/home/marco/projects/milanel/web2py/applications/fragance/models/db_interno.py'"
p5702
ssg5676
I189
sg5677
(dp5703
I192
S'    """'
p5704
sI193
S'    runs code in environment and returns the output. if an exception occurs'
p5705
sI184
S''
p5706
sI185
S'def compile2(code,layer):'
p5707
sI186
S'    """'
p5708
sI187
S"    The +'\\n' is necessary else compile fails when code ends in a comment."
p5709
sI188
S'    """'
p5710
sI189
S"    return compile(code.rstrip().replace('\\r\\n','\\n')+'\\n', layer, 'exec')"
p5711
sI190
S''
p5712
sI191
S"def restricted(code, environment=None, layer='Unknown'):"
p5713
ssassS'traceback'
p5714
S'Traceback (most recent call last):\n  File "/home/marco/projects/milanel/web2py/gluon/restricted.py", line 204, in restricted\n    ccode = compile2(code,layer)\n  File "/home/marco/projects/milanel/web2py/gluon/restricted.py", line 189, in compile2\n    return compile(code.rstrip().replace(\'\\r\\n\',\'\\n\')+\'\\n\', layer, \'exec\')\n  File "/home/marco/projects/milanel/web2py/applications/fragance/models/db_interno.py", line 25\n    Field(\'domicilio\'),\n   ^\nSyntaxError: invalid syntax\n'
p5715
s.