(dp1
S'output'
p2
S"<type 'exceptions.ValueError'> invalid literal for int() with base 10: '15/12/2011'"
p3
sS'layer'
p4
S'/home/marco/projects/milanel/web2py/applications/fragance/controllers/appadmin.py'
p5
sS'code'
p6
S'# -*- coding: utf-8 -*-\n\n# ##########################################################\n# ## make sure administrator is on localhost\n# ###########################################################\n\nimport os\nimport socket\nimport datetime\nimport copy\nimport gluon.contenttype\nimport gluon.fileutils\n\n# ## critical --- make a copy of the environment\n\nglobal_env = copy.copy(globals())\nglobal_env[\'datetime\'] = datetime\n\nhttp_host = request.env.http_host.split(\':\')[0]\nremote_addr = request.env.remote_addr\ntry:\n    hosts = (http_host, socket.gethostname(),\n             socket.gethostbyname(http_host),\n             \'::1\',\'127.0.0.1\',\'::ffff:127.0.0.1\')\nexcept:\n    hosts = (http_host, )\n\nif request.env.http_x_forwarded_for or request.env.wsgi_url_scheme\\\n     in [\'https\', \'HTTPS\']:\n    session.secure()\nelif (remote_addr not in hosts) and (remote_addr != "127.0.0.1"):\n    raise HTTP(200, T(\'appadmin is disabled because insecure channel\'))\n\nif (request.application==\'admin\' and not session.authorized) or \\\n        (request.application!=\'admin\' and not gluon.fileutils.check_credentials(request)):\n    redirect(URL(\'admin\', \'default\', \'index\',\n                 vars=dict(send=URL(args=request.args,vars=request.vars))))\n\nignore_rw = True\nresponse.view = \'appadmin.html\'\nresponse.menu = [[T(\'design\'), False, URL(\'admin\', \'default\', \'design\',\n                 args=[request.application])], [T(\'db\'), False,\n                 URL(\'index\')], [T(\'state\'), False,\n                 URL(\'state\')], [T(\'cache\'), False,\n                 URL(\'ccache\')]]\n\n# ##########################################################\n# ## auxiliary functions\n# ###########################################################\n\n\ndef get_databases(request):\n    dbs = {}\n    for (key, value) in global_env.items():\n        cond = False\n        try:\n            cond = isinstance(value, GQLDB)\n        except:\n            cond = isinstance(value, SQLDB)\n        if cond:\n            dbs[key] = value\n    return dbs\n\n\ndatabases = get_databases(None)\n\n\ndef eval_in_global_env(text):\n    exec (\'_ret=%s\' % text, {}, global_env)\n    return global_env[\'_ret\']\n\n\ndef get_database(request):\n    if request.args and request.args[0] in databases:\n        return eval_in_global_env(request.args[0])\n    else:\n        session.flash = T(\'invalid request\')\n        redirect(URL(\'index\'))\n\n\ndef get_table(request):\n    db = get_database(request)\n    if len(request.args) > 1 and request.args[1] in db.tables:\n        return (db, request.args[1])\n    else:\n        session.flash = T(\'invalid request\')\n        redirect(URL(\'index\'))\n\n\ndef get_query(request):\n    try:\n        return eval_in_global_env(request.vars.query)\n    except Exception:\n        return None\n\n\ndef query_by_table_type(tablename,db,request=request):\n    keyed = hasattr(db[tablename],\'_primarykey\')\n    if keyed:\n        firstkey = db[tablename][db[tablename]._primarykey[0]]\n        cond = \'>0\'\n        if firstkey.type in [\'string\', \'text\']:\n            cond = \'!=""\'\n        qry = \'%s.%s.%s%s\' % (request.args[0], request.args[1], firstkey.name, cond)\n    else:\n        qry = \'%s.%s.id>0\' % tuple(request.args[:2])\n    return qry\n\n\n\n# ##########################################################\n# ## list all databases and tables\n# ###########################################################\n\n\ndef index():\n    return dict(databases=databases)\n\n\n# ##########################################################\n# ## insert a new record\n# ###########################################################\n\n\ndef insert():\n    (db, table) = get_table(request)\n    form = SQLFORM(db[table], ignore_rw=ignore_rw)\n    if form.accepts(request.vars, session):\n        response.flash = T(\'new record inserted\')\n    return dict(form=form,table=db[table])\n\n\n# ##########################################################\n# ## list all records in table and insert new record\n# ###########################################################\n\n\ndef download():\n    import os\n    db = get_database(request)\n    return response.download(request,db)\n\ndef csv():\n    import gluon.contenttype\n    response.headers[\'Content-Type\'] = \\\n        gluon.contenttype.contenttype(\'.csv\')\n    db = get_database(request)\n    query = get_query(request)\n    if not query:\n        return None\n    response.headers[\'Content-disposition\'] = \'attachment; filename=%s_%s.csv\'\\\n         % tuple(request.vars.query.split(\'.\')[:2])\n    return str(db(query,ignore_common_filters=True).select())\n\n\ndef import_csv(table, file):\n    table.import_from_csv_file(file)\n\ndef select():\n    import re\n    db = get_database(request)\n    dbname = request.args[0]\n    regex = re.compile(\'(?P<table>\\w+)\\.(?P<field>\\w+)=(?P<value>\\d+)\')\n    if len(request.args)>1 and hasattr(db[request.args[1]],\'_primarykey\'):\n        regex = re.compile(\'(?P<table>\\w+)\\.(?P<field>\\w+)=(?P<value>.+)\')\n    if request.vars.query:\n        match = regex.match(request.vars.query)\n        if match:\n            request.vars.query = \'%s.%s.%s==%s\' % (request.args[0],\n                    match.group(\'table\'), match.group(\'field\'),\n                    match.group(\'value\'))\n    else:\n        request.vars.query = session.last_query\n    query = get_query(request)\n    if request.vars.start:\n        start = int(request.vars.start)\n    else:\n        start = 0\n    nrows = 0\n    stop = start + 100\n    table = None\n    rows = []\n    orderby = request.vars.orderby\n    if orderby:\n        orderby = dbname + \'.\' + orderby\n        if orderby == session.last_orderby:\n            if orderby[0] == \'~\':\n                orderby = orderby[1:]\n            else:\n                orderby = \'~\' + orderby\n    session.last_orderby = orderby\n    session.last_query = request.vars.query\n    form = FORM(TABLE(TR(T(\'Query:\'), \'\', INPUT(_style=\'width:400px\',\n                _name=\'query\', _value=request.vars.query or \'\',\n                requires=IS_NOT_EMPTY(error_message=T("Cannot be empty")))), TR(T(\'Update:\'),\n                INPUT(_name=\'update_check\', _type=\'checkbox\',\n                value=False), INPUT(_style=\'width:400px\',\n                _name=\'update_fields\', _value=request.vars.update_fields\n                 or \'\')), TR(T(\'Delete:\'), INPUT(_name=\'delete_check\',\n                _class=\'delete\', _type=\'checkbox\', value=False), \'\'),\n                TR(\'\', \'\', INPUT(_type=\'submit\', _value=\'submit\'))),\n                _action=URL(r=request,args=request.args))\n    if request.vars.csvfile != None:\n        try:\n            import_csv(db[request.vars.table],\n                       request.vars.csvfile.file)\n            response.flash = T(\'data uploaded\')\n        except Exception, e:\n            response.flash = DIV(T(\'unable to parse csv file\'),PRE(str(e)))\n    if form.accepts(request.vars, formname=None):\n#         regex = re.compile(request.args[0] + \'\\.(?P<table>\\w+)\\.id\\>0\')\n        regex = re.compile(request.args[0] + \'\\.(?P<table>\\w+)\\..+\')\n\n        match = regex.match(form.vars.query.strip())\n        if match:\n            table = match.group(\'table\')\n        try:\n            nrows = db(query).count()\n            if form.vars.update_check and form.vars.update_fields:\n                db(query).update(**eval_in_global_env(\'dict(%s)\'\n                                  % form.vars.update_fields))\n                response.flash = T(\'%s rows updated\', nrows)\n            elif form.vars.delete_check:\n                db(query).delete()\n                response.flash = T(\'%s rows deleted\', nrows)\n            nrows = db(query).count()\n            if orderby:\n                rows = db(query,ignore_common_filters=True).select(limitby=(start, stop), orderby=eval_in_global_env(orderby))\n            else:\n                rows = db(query,ignore_common_filters=True).select(limitby=(start, stop))\n        except Exception, e:\n            (rows, nrows) = ([], 0)\n            response.flash = DIV(T(\'Invalid Query\'),PRE(str(e)))\n    return dict(\n        form=form,\n        table=table,\n        start=start,\n        stop=stop,\n        nrows=nrows,\n        rows=rows,\n        query=request.vars.query,\n        )\n\n\n# ##########################################################\n# ## edit delete one record\n# ###########################################################\n\n\ndef update():\n    (db, table) = get_table(request)\n    keyed = hasattr(db[table],\'_primarykey\')\n    record = None\n    if keyed:\n        key = [f for f in request.vars if f in db[table]._primarykey]\n        if key:\n            record = db(db[table][key[0]] == request.vars[key[0]], ignore_common_filters=True).select().first()\n    else:\n        record = db(db[table].id == request.args(2),ignore_common_filters=True).select().first()\n\n    if not record:\n        qry = query_by_table_type(table, db)\n        session.flash = T(\'record does not exist\')\n        redirect(URL(\'select\', args=request.args[:1],\n                     vars=dict(query=qry)))\n\n    if keyed:\n        for k in db[table]._primarykey:\n            db[table][k].writable=False\n\n    form = SQLFORM(db[table], record, deletable=True, delete_label=T(\'Check to delete\'),\n                   ignore_rw=ignore_rw and not keyed,\n                   linkto=URL(\'select\',\n                   args=request.args[:1]), upload=URL(r=request,\n                   f=\'download\', args=request.args[:1]))\n\n    if form.accepts(request.vars, session):\n        session.flash = T(\'done!\')\n        qry = query_by_table_type(table, db)\n        redirect(URL(\'select\', args=request.args[:1],\n                 vars=dict(query=qry)))\n    return dict(form=form,table=db[table])\n\n\n# ##########################################################\n# ## get global variables\n# ###########################################################\n\n\ndef state():\n    return dict()\n\ndef ccache():\n    form = FORM(\n        P(TAG.BUTTON("Clear CACHE?", _type="submit", _name="yes", _value="yes")),\n        P(TAG.BUTTON("Clear RAM", _type="submit", _name="ram", _value="ram")),\n        P(TAG.BUTTON("Clear DISK", _type="submit", _name="disk", _value="disk")),\n    )\n\n    if form.accepts(request.vars, session):\n        clear_ram = False\n        clear_disk = False\n        session.flash = ""\n        if request.vars.yes:\n            clear_ram = clear_disk = True\n        if request.vars.ram:\n            clear_ram = True\n        if request.vars.disk:\n            clear_disk = True\n\n        if clear_ram:\n            cache.ram.clear()\n            session.flash += "Ram Cleared "\n        if clear_disk:\n            cache.disk.clear()\n            session.flash += "Disk Cleared"\n\n        redirect(URL(r=request))\n\n    try:\n        from guppy import hpy; hp=hpy()\n    except ImportError:\n        hp = False\n\n    import shelve, os, copy, time, math\n    from gluon import portalocker\n\n    ram = {\n        \'entries\': 0,\n        \'bytes\': 0,\n        \'objects\': 0,\n        \'hits\': 0,\n        \'misses\': 0,\n        \'ratio\': 0,\n        \'oldest\': time.time(),\n        \'keys\': []\n    }\n    disk = copy.copy(ram)\n    total = copy.copy(ram)\n    disk[\'keys\'] = []\n    total[\'keys\'] = []\n\n    def GetInHMS(seconds):\n        hours = math.floor(seconds / 3600)\n        seconds -= hours * 3600\n        minutes = math.floor(seconds / 60)\n        seconds -= minutes * 60\n        seconds = math.floor(seconds)\n\n        return (hours, minutes, seconds)\n\n    for key, value in cache.ram.storage.items():\n        if isinstance(value, dict):\n            ram[\'hits\'] = value[\'hit_total\'] - value[\'misses\']\n            ram[\'misses\'] = value[\'misses\']\n            try:\n                ram[\'ratio\'] = ram[\'hits\'] * 100 / value[\'hit_total\']\n            except (KeyError, ZeroDivisionError):\n                ram[\'ratio\'] = 0\n        else:\n            if hp:\n                ram[\'bytes\'] += hp.iso(value[1]).size\n                ram[\'objects\'] += hp.iso(value[1]).count\n            ram[\'entries\'] += 1\n            if value[0] < ram[\'oldest\']:\n                ram[\'oldest\'] = value[0]\n            ram[\'keys\'].append((key, GetInHMS(time.time() - value[0])))\n\n    locker = open(os.path.join(request.folder,\n                                        \'cache/cache.lock\'), \'a\')\n    portalocker.lock(locker, portalocker.LOCK_EX)\n    disk_storage = shelve.open(os.path.join(request.folder, \'cache/cache.shelve\'))\n    try:\n        for key, value in disk_storage.items():\n            if isinstance(value, dict):\n                disk[\'hits\'] = value[\'hit_total\'] - value[\'misses\']\n                disk[\'misses\'] = value[\'misses\']\n                try:\n                    disk[\'ratio\'] = disk[\'hits\'] * 100 / value[\'hit_total\']\n                except (KeyError, ZeroDivisionError):\n                    disk[\'ratio\'] = 0\n            else:\n                if hp:\n                    disk[\'bytes\'] += hp.iso(value[1]).size\n                    disk[\'objects\'] += hp.iso(value[1]).count\n                disk[\'entries\'] += 1\n                if value[0] < disk[\'oldest\']:\n                    disk[\'oldest\'] = value[0]\n                disk[\'keys\'].append((key, GetInHMS(time.time() - value[0])))\n\n    finally:\n        portalocker.unlock(locker)\n        locker.close()\n        disk_storage.close()\n\n    total[\'entries\'] = ram[\'entries\'] + disk[\'entries\']\n    total[\'bytes\'] = ram[\'bytes\'] + disk[\'bytes\']\n    total[\'objects\'] = ram[\'objects\'] + disk[\'objects\']\n    total[\'hits\'] = ram[\'hits\'] + disk[\'hits\']\n    total[\'misses\'] = ram[\'misses\'] + disk[\'misses\']\n    total[\'keys\'] = ram[\'keys\'] + disk[\'keys\']\n    try:\n        total[\'ratio\'] = total[\'hits\'] * 100 / (total[\'hits\'] + total[\'misses\'])\n    except (KeyError, ZeroDivisionError):\n        total[\'ratio\'] = 0\n\n    if disk[\'oldest\'] < ram[\'oldest\']:\n        total[\'oldest\'] = disk[\'oldest\']\n    else:\n        total[\'oldest\'] = ram[\'oldest\']\n\n    ram[\'oldest\'] = GetInHMS(time.time() - ram[\'oldest\'])\n    disk[\'oldest\'] = GetInHMS(time.time() - disk[\'oldest\'])\n    total[\'oldest\'] = GetInHMS(time.time() - total[\'oldest\'])\n\n    def key_table(keys):\n        return TABLE(\n            TR(TD(B(\'Key\')), TD(B(\'Time in Cache (h:m:s)\'))),\n            *[TR(TD(k[0]), TD(\'%02d:%02d:%02d\' % k[1])) for k in keys],\n            **dict(_class=\'cache-keys\',\n                   _style="border-collapse: separate; border-spacing: .5em;"))\n\n    ram[\'keys\'] = key_table(ram[\'keys\'])\n    disk[\'keys\'] = key_table(disk[\'keys\'])\n    total[\'keys\'] = key_table(total[\'keys\'])\n\n    return dict(form=form, total=total,\n                ram=ram, disk=disk, object_stats=hp != False)\n\n\n\n\nresponse._vars=response._caller(csv)\n'
p7
sS'snapshot'
p8
(dp9
S'pyver'
p10
S'Python 2.7.2: /usr/bin/pypy'
p11
sS'exception'
p12
(dp13
S'args'
p14
S'("invalid literal for int() with base 10: \'15/12/2011\'",)'
p15
sS'__module__'
p16
S"'exceptions'"
p17
sS'__reduce_ex__'
p18
S'<bound method ValueError.__reduce_ex__ of ValueE... literal for int() with base 10: \'15/12/2011\'",)>'
p19
sS'__new__'
p20
S'<function __new__>'
p21
sS'__getitem__'
p22
S'<bound method ValueError.__getitem__ of ValueErr... literal for int() with base 10: \'15/12/2011\'",)>'
p23
sS'__setstate__'
p24
S'<bound method ValueError.__setstate__ of ValueEr... literal for int() with base 10: \'15/12/2011\'",)>'
p25
sS'__reduce__'
p26
S'<bound method ValueError.__reduce__ of ValueErro... literal for int() with base 10: \'15/12/2011\'",)>'
p27
sS'__str__'
p28
S'<bound method ValueError.__str__ of ValueError("... literal for int() with base 10: \'15/12/2011\'",)>'
p29
sS'__format__'
p30
S'<bound method ValueError.__format__ of ValueErro... literal for int() with base 10: \'15/12/2011\'",)>'
p31
sS'__getattribute__'
p32
S'<bound method ValueError.__getattribute__ of Val... literal for int() with base 10: \'15/12/2011\'",)>'
p33
sS'__class__'
p34
S"<type 'exceptions.ValueError'>"
p35
sS'__dict__'
p36
S'{}'
p37
sS'__delattr__'
p38
S'<bound method ValueError.__delattr__ of ValueErr... literal for int() with base 10: \'15/12/2011\'",)>'
p39
sS'__unicode__'
p40
S'<bound method ValueError.__unicode__ of ValueErr... literal for int() with base 10: \'15/12/2011\'",)>'
p41
sS'__subclasshook__'
p42
S"<bound method type.__subclasshook__ of <type 'exceptions.ValueError'>>"
p43
sS'__repr__'
p44
S'<bound method ValueError.__repr__ of ValueError(... literal for int() with base 10: \'15/12/2011\'",)>'
p45
sS'__setattr__'
p46
S'<bound method ValueError.__setattr__ of ValueErr... literal for int() with base 10: \'15/12/2011\'",)>'
p47
sS'__hash__'
p48
S'<bound method ValueError.__hash__ of ValueError(... literal for int() with base 10: \'15/12/2011\'",)>'
p49
sS'__doc__'
p50
S"'Superclass representing the base of the exceptio...ty\\n    and will be deprecated at some point.\\n    '"
p51
sS'__init__'
p52
S'<bound method ValueError.__init__ of ValueError(... literal for int() with base 10: \'15/12/2011\'",)>'
p53
ssS'session'
p54
ccopy_reg
_reconstructor
p55
(cgluon.html
BEAUTIFY
p56
c__builtin__
object
p57
Ntp58
Rp59
(dp60
S'attributes'
p61
(dp62
sS'components'
p63
(lp64
g55
(cgluon.html
TABLE
p65
g57
Ntp66
Rp67
(dp68
S'parent'
p69
Nsg61
(dp70
S'level'
p71
I5
ssg63
(lp72
g55
(cgluon.html
TR
p73
g57
Ntp74
Rp75
(dp76
g69
g67
sg61
(dp77
sg63
(lp78
g55
(cgluon.html
TD
p79
g57
Ntp80
Rp81
(dp82
g69
g75
sg61
(dp83
S'_style'
p84
S'font-weight:bold;vertical-align:top'
p85
ssg63
(lp86
S'last_query'
p87
asbag55
(g79
g57
Ntp88
Rp89
(dp90
g69
g75
sg61
(dp91
S'_valign'
p92
S'top'
p93
ssg63
(lp94
S':'
p95
asbag55
(g79
g57
Ntp96
Rp97
(dp98
g69
g75
sg61
(dp99
sg63
(lp100
g55
(g56
g57
Ntp101
Rp102
(dp103
g69
g97
sg61
(dp104
g71
I5
ssg63
(lp105
S'db.articulo.id>0'
p106
asbasbasbasbasbsS'locals'
p107
(dp108
S'val'
p109
S"'15/12/2011'"
p110
ssS'etype'
p111
S"<type 'exceptions.ValueError'>"
p112
sS'date'
p113
S'Wed Mar 14 12:13:23 2012'
p114
sS'evalue'
p115
S"invalid literal for int() with base 10: '15/12/2011'"
p116
sS'request'
p117
g55
(g56
g57
Ntp118
Rp119
(dp120
g61
(dp121
sg63
(lp122
g55
(g65
g57
Ntp123
Rp124
(dp125
g69
Nsg61
(dp126
g71
I5
ssg63
(lp127
g55
(g73
g57
Ntp128
Rp129
(dp130
g69
g124
sg61
(dp131
sg63
(lp132
g55
(g79
g57
Ntp133
Rp134
(dp135
g69
g129
sg61
(dp136
g84
g85
ssg63
(lp137
S'ajax'
p138
asbag55
(g79
g57
Ntp139
Rp140
(dp141
g69
g129
sg61
(dp142
g92
g93
ssg63
(lp143
g95
asbag55
(g79
g57
Ntp144
Rp145
(dp146
g69
g129
sg61
(dp147
sg63
(lp148
g55
(g56
g57
Ntp149
Rp150
(dp151
g69
g145
sg61
(dp152
g71
I5
ssg63
(lp153
S'False'
p154
asbasbasbag55
(g73
g57
Ntp155
Rp156
(dp157
g69
g124
sg61
(dp158
sg63
(lp159
g55
(g79
g57
Ntp160
Rp161
(dp162
g69
g156
sg61
(dp163
g84
g85
ssg63
(lp164
S'application'
p165
asbag55
(g79
g57
Ntp166
Rp167
(dp168
g69
g156
sg61
(dp169
g92
g93
ssg63
(lp170
g95
asbag55
(g79
g57
Ntp171
Rp172
(dp173
g69
g156
sg61
(dp174
sg63
(lp175
g55
(g56
g57
Ntp176
Rp177
(dp178
g69
g172
sg61
(dp179
g71
I5
ssg63
(lp180
S'fragance'
p181
asbasbasbag55
(g73
g57
Ntp182
Rp183
(dp184
g69
g124
sg61
(dp185
sg63
(lp186
g55
(g79
g57
Ntp187
Rp188
(dp189
g69
g183
sg61
(dp190
g84
g85
ssg63
(lp191
g14
asbag55
(g79
g57
Ntp192
Rp193
(dp194
g69
g183
sg61
(dp195
g92
g93
ssg63
(lp196
g95
asbag55
(g79
g57
Ntp197
Rp198
(dp199
g69
g183
sg61
(dp200
sg63
(lp201
g55
(g56
g57
Ntp202
Rp203
(dp204
g69
g198
sg61
(dp205
g71
I5
ssg63
(lp206
g55
(g65
g57
Ntp207
Rp208
(dp209
g69
Nsg61
(dp210
g71
I4
ssg63
(lp211
g55
(g73
g57
Ntp212
Rp213
(dp214
g69
g208
sg61
(dp215
sg63
(lp216
g55
(g79
g57
Ntp217
Rp218
(dp219
g69
g213
sg61
(dp220
sg63
(lp221
g55
(g56
g57
Ntp222
Rp223
(dp224
g69
g218
sg61
(dp225
g71
I4
ssg63
(lp226
S'db'
p227
asbasbasbasbasbasbasbag55
(g73
g57
Ntp228
Rp229
(dp230
g69
g124
sg61
(dp231
sg63
(lp232
g55
(g79
g57
Ntp233
Rp234
(dp235
g69
g229
sg61
(dp236
g84
g85
ssg63
(lp237
S'body'
p238
asbag55
(g79
g57
Ntp239
Rp240
(dp241
g69
g229
sg61
(dp242
g92
g93
ssg63
(lp243
g95
asbag55
(g79
g57
Ntp244
Rp245
(dp246
g69
g229
sg61
(dp247
sg63
(lp248
g55
(g56
g57
Ntp249
Rp250
(dp251
g69
g245
sg61
(dp252
g71
I5
ssg63
(lp253
S'<cStringIO.StringO object at 0x00007f2b58cda330>'
p254
asbasbasbag55
(g73
g57
Ntp255
Rp256
(dp257
g69
g124
sg61
(dp258
sg63
(lp259
g55
(g79
g57
Ntp260
Rp261
(dp262
g69
g256
sg61
(dp263
g84
g85
ssg63
(lp264
S'client'
p265
asbag55
(g79
g57
Ntp266
Rp267
(dp268
g69
g256
sg61
(dp269
g92
g93
ssg63
(lp270
g95
asbag55
(g79
g57
Ntp271
Rp272
(dp273
g69
g256
sg61
(dp274
sg63
(lp275
g55
(g56
g57
Ntp276
Rp277
(dp278
g69
g272
sg61
(dp279
g71
I5
ssg63
(lp280
S'127.0.0.1'
p281
asbasbasbag55
(g73
g57
Ntp282
Rp283
(dp284
g69
g124
sg61
(dp285
sg63
(lp286
g55
(g79
g57
Ntp287
Rp288
(dp289
g69
g283
sg61
(dp290
g84
g85
ssg63
(lp291
S'controller'
p292
asbag55
(g79
g57
Ntp293
Rp294
(dp295
g69
g283
sg61
(dp296
g92
g93
ssg63
(lp297
g95
asbag55
(g79
g57
Ntp298
Rp299
(dp300
g69
g283
sg61
(dp301
sg63
(lp302
g55
(g56
g57
Ntp303
Rp304
(dp305
g69
g299
sg61
(dp306
g71
I5
ssg63
(lp307
S'appadmin'
p308
asbasbasbag55
(g73
g57
Ntp309
Rp310
(dp311
g69
g124
sg61
(dp312
sg63
(lp313
g55
(g79
g57
Ntp314
Rp315
(dp316
g69
g310
sg61
(dp317
g84
g85
ssg63
(lp318
S'cookies'
p319
asbag55
(g79
g57
Ntp320
Rp321
(dp322
g69
g310
sg61
(dp323
g92
g93
ssg63
(lp324
g95
asbag55
(g79
g57
Ntp325
Rp326
(dp327
g69
g310
sg61
(dp328
sg63
(lp329
g55
(g56
g57
Ntp330
Rp331
(dp332
g69
g326
sg61
(dp333
g71
I5
ssg63
(lp334
g55
(g65
g57
Ntp335
Rp336
(dp337
g69
Nsg61
(dp338
g71
I4
ssg63
(lp339
g55
(g73
g57
Ntp340
Rp341
(dp342
g69
g336
sg61
(dp343
sg63
(lp344
g55
(g79
g57
Ntp345
Rp346
(dp347
g69
g341
sg61
(dp348
g84
g85
ssg63
(lp349
S'PHPSESSID'
p350
asbag55
(g79
g57
Ntp351
Rp352
(dp353
g69
g341
sg61
(dp354
g92
g93
ssg63
(lp355
g95
asbag55
(g79
g57
Ntp356
Rp357
(dp358
g69
g341
sg61
(dp359
sg63
(lp360
g55
(g56
g57
Ntp361
Rp362
(dp363
g69
g357
sg61
(dp364
g71
I4
ssg63
(lp365
g55
(g65
g57
Ntp366
Rp367
(dp368
g69
Nsg61
(dp369
g71
I3
ssg63
(lp370
g55
(g73
g57
Ntp371
Rp372
(dp373
g69
g367
sg61
(dp374
sg63
(lp375
g55
(g79
g57
Ntp376
Rp377
(dp378
g69
g372
sg61
(dp379
g84
g85
ssg63
(lp380
S'comment'
p381
asbag55
(g79
g57
Ntp382
Rp383
(dp384
g69
g372
sg61
(dp385
g92
g93
ssg63
(lp386
g95
asbag55
(g79
g57
Ntp387
Rp388
(dp389
g69
g372
sg61
(dp390
sg63
(lp391
g55
(g56
g57
Ntp392
Rp393
(dp394
g69
g388
sg61
(dp395
g71
I3
ssg63
(lp396
S''
p397
asbasbasbag55
(g73
g57
Ntp398
Rp399
(dp400
g69
g367
sg61
(dp401
sg63
(lp402
g55
(g79
g57
Ntp403
Rp404
(dp405
g69
g399
sg61
(dp406
g84
g85
ssg63
(lp407
S'domain'
p408
asbag55
(g79
g57
Ntp409
Rp410
(dp411
g69
g399
sg61
(dp412
g92
g93
ssg63
(lp413
g95
asbag55
(g79
g57
Ntp414
Rp415
(dp416
g69
g399
sg61
(dp417
sg63
(lp418
g55
(g56
g57
Ntp419
Rp420
(dp421
g69
g415
sg61
(dp422
g71
I3
ssg63
(lp423
g397
asbasbasbag55
(g73
g57
Ntp424
Rp425
(dp426
g69
g367
sg61
(dp427
sg63
(lp428
g55
(g79
g57
Ntp429
Rp430
(dp431
g69
g425
sg61
(dp432
g84
g85
ssg63
(lp433
S'expires'
p434
asbag55
(g79
g57
Ntp435
Rp436
(dp437
g69
g425
sg61
(dp438
g92
g93
ssg63
(lp439
g95
asbag55
(g79
g57
Ntp440
Rp441
(dp442
g69
g425
sg61
(dp443
sg63
(lp444
g55
(g56
g57
Ntp445
Rp446
(dp447
g69
g441
sg61
(dp448
g71
I3
ssg63
(lp449
g397
asbasbasbag55
(g73
g57
Ntp450
Rp451
(dp452
g69
g367
sg61
(dp453
sg63
(lp454
g55
(g79
g57
Ntp455
Rp456
(dp457
g69
g451
sg61
(dp458
g84
g85
ssg63
(lp459
S'httponly'
p460
asbag55
(g79
g57
Ntp461
Rp462
(dp463
g69
g451
sg61
(dp464
g92
g93
ssg63
(lp465
g95
asbag55
(g79
g57
Ntp466
Rp467
(dp468
g69
g451
sg61
(dp469
sg63
(lp470
g55
(g56
g57
Ntp471
Rp472
(dp473
g69
g467
sg61
(dp474
g71
I3
ssg63
(lp475
g397
asbasbasbag55
(g73
g57
Ntp476
Rp477
(dp478
g69
g367
sg61
(dp479
sg63
(lp480
g55
(g79
g57
Ntp481
Rp482
(dp483
g69
g477
sg61
(dp484
g84
g85
ssg63
(lp485
S'max-age'
p486
asbag55
(g79
g57
Ntp487
Rp488
(dp489
g69
g477
sg61
(dp490
g92
g93
ssg63
(lp491
g95
asbag55
(g79
g57
Ntp492
Rp493
(dp494
g69
g477
sg61
(dp495
sg63
(lp496
g55
(g56
g57
Ntp497
Rp498
(dp499
g69
g493
sg61
(dp500
g71
I3
ssg63
(lp501
g397
asbasbasbag55
(g73
g57
Ntp502
Rp503
(dp504
g69
g367
sg61
(dp505
sg63
(lp506
g55
(g79
g57
Ntp507
Rp508
(dp509
g69
g503
sg61
(dp510
g84
g85
ssg63
(lp511
S'path'
p512
asbag55
(g79
g57
Ntp513
Rp514
(dp515
g69
g503
sg61
(dp516
g92
g93
ssg63
(lp517
g95
asbag55
(g79
g57
Ntp518
Rp519
(dp520
g69
g503
sg61
(dp521
sg63
(lp522
g55
(g56
g57
Ntp523
Rp524
(dp525
g69
g519
sg61
(dp526
g71
I3
ssg63
(lp527
g397
asbasbasbag55
(g73
g57
Ntp528
Rp529
(dp530
g69
g367
sg61
(dp531
sg63
(lp532
g55
(g79
g57
Ntp533
Rp534
(dp535
g69
g529
sg61
(dp536
g84
g85
ssg63
(lp537
S'secure'
p538
asbag55
(g79
g57
Ntp539
Rp540
(dp541
g69
g529
sg61
(dp542
g92
g93
ssg63
(lp543
g95
asbag55
(g79
g57
Ntp544
Rp545
(dp546
g69
g529
sg61
(dp547
sg63
(lp548
g55
(g56
g57
Ntp549
Rp550
(dp551
g69
g545
sg61
(dp552
g71
I3
ssg63
(lp553
g397
asbasbasbag55
(g73
g57
Ntp554
Rp555
(dp556
g69
g367
sg61
(dp557
sg63
(lp558
g55
(g79
g57
Ntp559
Rp560
(dp561
g69
g555
sg61
(dp562
g84
g85
ssg63
(lp563
S'version'
p564
asbag55
(g79
g57
Ntp565
Rp566
(dp567
g69
g555
sg61
(dp568
g92
g93
ssg63
(lp569
g95
asbag55
(g79
g57
Ntp570
Rp571
(dp572
g69
g555
sg61
(dp573
sg63
(lp574
g55
(g56
g57
Ntp575
Rp576
(dp577
g69
g571
sg61
(dp578
g71
I3
ssg63
(lp579
g397
asbasbasbasbasbasbasbag55
(g73
g57
Ntp580
Rp581
(dp582
g69
g336
sg61
(dp583
sg63
(lp584
g55
(g79
g57
Ntp585
Rp586
(dp587
g69
g581
sg61
(dp588
g84
g85
ssg63
(lp589
S'session_id_admin'
p590
asbag55
(g79
g57
Ntp591
Rp592
(dp593
g69
g581
sg61
(dp594
g92
g93
ssg63
(lp595
g95
asbag55
(g79
g57
Ntp596
Rp597
(dp598
g69
g581
sg61
(dp599
sg63
(lp600
g55
(g56
g57
Ntp601
Rp602
(dp603
g69
g597
sg61
(dp604
g71
I4
ssg63
(lp605
g55
(g65
g57
Ntp606
Rp607
(dp608
g69
Nsg61
(dp609
g71
I3
ssg63
(lp610
g55
(g73
g57
Ntp611
Rp612
(dp613
g69
g607
sg61
(dp614
sg63
(lp615
g55
(g79
g57
Ntp616
Rp617
(dp618
g69
g612
sg61
(dp619
g84
g85
ssg63
(lp620
g381
asbag55
(g79
g57
Ntp621
Rp622
(dp623
g69
g612
sg61
(dp624
g92
g93
ssg63
(lp625
g95
asbag55
(g79
g57
Ntp626
Rp627
(dp628
g69
g612
sg61
(dp629
sg63
(lp630
g55
(g56
g57
Ntp631
Rp632
(dp633
g69
g627
sg61
(dp634
g71
I3
ssg63
(lp635
g397
asbasbasbag55
(g73
g57
Ntp636
Rp637
(dp638
g69
g607
sg61
(dp639
sg63
(lp640
g55
(g79
g57
Ntp641
Rp642
(dp643
g69
g637
sg61
(dp644
g84
g85
ssg63
(lp645
g408
asbag55
(g79
g57
Ntp646
Rp647
(dp648
g69
g637
sg61
(dp649
g92
g93
ssg63
(lp650
g95
asbag55
(g79
g57
Ntp651
Rp652
(dp653
g69
g637
sg61
(dp654
sg63
(lp655
g55
(g56
g57
Ntp656
Rp657
(dp658
g69
g652
sg61
(dp659
g71
I3
ssg63
(lp660
g397
asbasbasbag55
(g73
g57
Ntp661
Rp662
(dp663
g69
g607
sg61
(dp664
sg63
(lp665
g55
(g79
g57
Ntp666
Rp667
(dp668
g69
g662
sg61
(dp669
g84
g85
ssg63
(lp670
g434
asbag55
(g79
g57
Ntp671
Rp672
(dp673
g69
g662
sg61
(dp674
g92
g93
ssg63
(lp675
g95
asbag55
(g79
g57
Ntp676
Rp677
(dp678
g69
g662
sg61
(dp679
sg63
(lp680
g55
(g56
g57
Ntp681
Rp682
(dp683
g69
g677
sg61
(dp684
g71
I3
ssg63
(lp685
g397
asbasbasbag55
(g73
g57
Ntp686
Rp687
(dp688
g69
g607
sg61
(dp689
sg63
(lp690
g55
(g79
g57
Ntp691
Rp692
(dp693
g69
g687
sg61
(dp694
g84
g85
ssg63
(lp695
g460
asbag55
(g79
g57
Ntp696
Rp697
(dp698
g69
g687
sg61
(dp699
g92
g93
ssg63
(lp700
g95
asbag55
(g79
g57
Ntp701
Rp702
(dp703
g69
g687
sg61
(dp704
sg63
(lp705
g55
(g56
g57
Ntp706
Rp707
(dp708
g69
g702
sg61
(dp709
g71
I3
ssg63
(lp710
g397
asbasbasbag55
(g73
g57
Ntp711
Rp712
(dp713
g69
g607
sg61
(dp714
sg63
(lp715
g55
(g79
g57
Ntp716
Rp717
(dp718
g69
g712
sg61
(dp719
g84
g85
ssg63
(lp720
g486
asbag55
(g79
g57
Ntp721
Rp722
(dp723
g69
g712
sg61
(dp724
g92
g93
ssg63
(lp725
g95
asbag55
(g79
g57
Ntp726
Rp727
(dp728
g69
g712
sg61
(dp729
sg63
(lp730
g55
(g56
g57
Ntp731
Rp732
(dp733
g69
g727
sg61
(dp734
g71
I3
ssg63
(lp735
g397
asbasbasbag55
(g73
g57
Ntp736
Rp737
(dp738
g69
g607
sg61
(dp739
sg63
(lp740
g55
(g79
g57
Ntp741
Rp742
(dp743
g69
g737
sg61
(dp744
g84
g85
ssg63
(lp745
g512
asbag55
(g79
g57
Ntp746
Rp747
(dp748
g69
g737
sg61
(dp749
g92
g93
ssg63
(lp750
g95
asbag55
(g79
g57
Ntp751
Rp752
(dp753
g69
g737
sg61
(dp754
sg63
(lp755
g55
(g56
g57
Ntp756
Rp757
(dp758
g69
g752
sg61
(dp759
g71
I3
ssg63
(lp760
g397
asbasbasbag55
(g73
g57
Ntp761
Rp762
(dp763
g69
g607
sg61
(dp764
sg63
(lp765
g55
(g79
g57
Ntp766
Rp767
(dp768
g69
g762
sg61
(dp769
g84
g85
ssg63
(lp770
g538
asbag55
(g79
g57
Ntp771
Rp772
(dp773
g69
g762
sg61
(dp774
g92
g93
ssg63
(lp775
g95
asbag55
(g79
g57
Ntp776
Rp777
(dp778
g69
g762
sg61
(dp779
sg63
(lp780
g55
(g56
g57
Ntp781
Rp782
(dp783
g69
g777
sg61
(dp784
g71
I3
ssg63
(lp785
g397
asbasbasbag55
(g73
g57
Ntp786
Rp787
(dp788
g69
g607
sg61
(dp789
sg63
(lp790
g55
(g79
g57
Ntp791
Rp792
(dp793
g69
g787
sg61
(dp794
g84
g85
ssg63
(lp795
g564
asbag55
(g79
g57
Ntp796
Rp797
(dp798
g69
g787
sg61
(dp799
g92
g93
ssg63
(lp800
g95
asbag55
(g79
g57
Ntp801
Rp802
(dp803
g69
g787
sg61
(dp804
sg63
(lp805
g55
(g56
g57
Ntp806
Rp807
(dp808
g69
g802
sg61
(dp809
g71
I3
ssg63
(lp810
g397
asbasbasbasbasbasbasbag55
(g73
g57
Ntp811
Rp812
(dp813
g69
g336
sg61
(dp814
sg63
(lp815
g55
(g79
g57
Ntp816
Rp817
(dp818
g69
g812
sg61
(dp819
g84
g85
ssg63
(lp820
S'session_id_flisol2012'
p821
asbag55
(g79
g57
Ntp822
Rp823
(dp824
g69
g812
sg61
(dp825
g92
g93
ssg63
(lp826
g95
asbag55
(g79
g57
Ntp827
Rp828
(dp829
g69
g812
sg61
(dp830
sg63
(lp831
g55
(g56
g57
Ntp832
Rp833
(dp834
g69
g828
sg61
(dp835
g71
I4
ssg63
(lp836
g55
(g65
g57
Ntp837
Rp838
(dp839
g69
Nsg61
(dp840
g71
I3
ssg63
(lp841
g55
(g73
g57
Ntp842
Rp843
(dp844
g69
g838
sg61
(dp845
sg63
(lp846
g55
(g79
g57
Ntp847
Rp848
(dp849
g69
g843
sg61
(dp850
g84
g85
ssg63
(lp851
g381
asbag55
(g79
g57
Ntp852
Rp853
(dp854
g69
g843
sg61
(dp855
g92
g93
ssg63
(lp856
g95
asbag55
(g79
g57
Ntp857
Rp858
(dp859
g69
g843
sg61
(dp860
sg63
(lp861
g55
(g56
g57
Ntp862
Rp863
(dp864
g69
g858
sg61
(dp865
g71
I3
ssg63
(lp866
g397
asbasbasbag55
(g73
g57
Ntp867
Rp868
(dp869
g69
g838
sg61
(dp870
sg63
(lp871
g55
(g79
g57
Ntp872
Rp873
(dp874
g69
g868
sg61
(dp875
g84
g85
ssg63
(lp876
g408
asbag55
(g79
g57
Ntp877
Rp878
(dp879
g69
g868
sg61
(dp880
g92
g93
ssg63
(lp881
g95
asbag55
(g79
g57
Ntp882
Rp883
(dp884
g69
g868
sg61
(dp885
sg63
(lp886
g55
(g56
g57
Ntp887
Rp888
(dp889
g69
g883
sg61
(dp890
g71
I3
ssg63
(lp891
g397
asbasbasbag55
(g73
g57
Ntp892
Rp893
(dp894
g69
g838
sg61
(dp895
sg63
(lp896
g55
(g79
g57
Ntp897
Rp898
(dp899
g69
g893
sg61
(dp900
g84
g85
ssg63
(lp901
g434
asbag55
(g79
g57
Ntp902
Rp903
(dp904
g69
g893
sg61
(dp905
g92
g93
ssg63
(lp906
g95
asbag55
(g79
g57
Ntp907
Rp908
(dp909
g69
g893
sg61
(dp910
sg63
(lp911
g55
(g56
g57
Ntp912
Rp913
(dp914
g69
g908
sg61
(dp915
g71
I3
ssg63
(lp916
g397
asbasbasbag55
(g73
g57
Ntp917
Rp918
(dp919
g69
g838
sg61
(dp920
sg63
(lp921
g55
(g79
g57
Ntp922
Rp923
(dp924
g69
g918
sg61
(dp925
g84
g85
ssg63
(lp926
g460
asbag55
(g79
g57
Ntp927
Rp928
(dp929
g69
g918
sg61
(dp930
g92
g93
ssg63
(lp931
g95
asbag55
(g79
g57
Ntp932
Rp933
(dp934
g69
g918
sg61
(dp935
sg63
(lp936
g55
(g56
g57
Ntp937
Rp938
(dp939
g69
g933
sg61
(dp940
g71
I3
ssg63
(lp941
g397
asbasbasbag55
(g73
g57
Ntp942
Rp943
(dp944
g69
g838
sg61
(dp945
sg63
(lp946
g55
(g79
g57
Ntp947
Rp948
(dp949
g69
g943
sg61
(dp950
g84
g85
ssg63
(lp951
g486
asbag55
(g79
g57
Ntp952
Rp953
(dp954
g69
g943
sg61
(dp955
g92
g93
ssg63
(lp956
g95
asbag55
(g79
g57
Ntp957
Rp958
(dp959
g69
g943
sg61
(dp960
sg63
(lp961
g55
(g56
g57
Ntp962
Rp963
(dp964
g69
g958
sg61
(dp965
g71
I3
ssg63
(lp966
g397
asbasbasbag55
(g73
g57
Ntp967
Rp968
(dp969
g69
g838
sg61
(dp970
sg63
(lp971
g55
(g79
g57
Ntp972
Rp973
(dp974
g69
g968
sg61
(dp975
g84
g85
ssg63
(lp976
g512
asbag55
(g79
g57
Ntp977
Rp978
(dp979
g69
g968
sg61
(dp980
g92
g93
ssg63
(lp981
g95
asbag55
(g79
g57
Ntp982
Rp983
(dp984
g69
g968
sg61
(dp985
sg63
(lp986
g55
(g56
g57
Ntp987
Rp988
(dp989
g69
g983
sg61
(dp990
g71
I3
ssg63
(lp991
g397
asbasbasbag55
(g73
g57
Ntp992
Rp993
(dp994
g69
g838
sg61
(dp995
sg63
(lp996
g55
(g79
g57
Ntp997
Rp998
(dp999
g69
g993
sg61
(dp1000
g84
g85
ssg63
(lp1001
g538
asbag55
(g79
g57
Ntp1002
Rp1003
(dp1004
g69
g993
sg61
(dp1005
g92
g93
ssg63
(lp1006
g95
asbag55
(g79
g57
Ntp1007
Rp1008
(dp1009
g69
g993
sg61
(dp1010
sg63
(lp1011
g55
(g56
g57
Ntp1012
Rp1013
(dp1014
g69
g1008
sg61
(dp1015
g71
I3
ssg63
(lp1016
g397
asbasbasbag55
(g73
g57
Ntp1017
Rp1018
(dp1019
g69
g838
sg61
(dp1020
sg63
(lp1021
g55
(g79
g57
Ntp1022
Rp1023
(dp1024
g69
g1018
sg61
(dp1025
g84
g85
ssg63
(lp1026
g564
asbag55
(g79
g57
Ntp1027
Rp1028
(dp1029
g69
g1018
sg61
(dp1030
g92
g93
ssg63
(lp1031
g95
asbag55
(g79
g57
Ntp1032
Rp1033
(dp1034
g69
g1018
sg61
(dp1035
sg63
(lp1036
g55
(g56
g57
Ntp1037
Rp1038
(dp1039
g69
g1033
sg61
(dp1040
g71
I3
ssg63
(lp1041
g397
asbasbasbasbasbasbasbag55
(g73
g57
Ntp1042
Rp1043
(dp1044
g69
g336
sg61
(dp1045
sg63
(lp1046
g55
(g79
g57
Ntp1047
Rp1048
(dp1049
g69
g1043
sg61
(dp1050
g84
g85
ssg63
(lp1051
S'session_id_fragance'
p1052
asbag55
(g79
g57
Ntp1053
Rp1054
(dp1055
g69
g1043
sg61
(dp1056
g92
g93
ssg63
(lp1057
g95
asbag55
(g79
g57
Ntp1058
Rp1059
(dp1060
g69
g1043
sg61
(dp1061
sg63
(lp1062
g55
(g56
g57
Ntp1063
Rp1064
(dp1065
g69
g1059
sg61
(dp1066
g71
I4
ssg63
(lp1067
g55
(g65
g57
Ntp1068
Rp1069
(dp1070
g69
Nsg61
(dp1071
g71
I3
ssg63
(lp1072
g55
(g73
g57
Ntp1073
Rp1074
(dp1075
g69
g1069
sg61
(dp1076
sg63
(lp1077
g55
(g79
g57
Ntp1078
Rp1079
(dp1080
g69
g1074
sg61
(dp1081
g84
g85
ssg63
(lp1082
g381
asbag55
(g79
g57
Ntp1083
Rp1084
(dp1085
g69
g1074
sg61
(dp1086
g92
g93
ssg63
(lp1087
g95
asbag55
(g79
g57
Ntp1088
Rp1089
(dp1090
g69
g1074
sg61
(dp1091
sg63
(lp1092
g55
(g56
g57
Ntp1093
Rp1094
(dp1095
g69
g1089
sg61
(dp1096
g71
I3
ssg63
(lp1097
g397
asbasbasbag55
(g73
g57
Ntp1098
Rp1099
(dp1100
g69
g1069
sg61
(dp1101
sg63
(lp1102
g55
(g79
g57
Ntp1103
Rp1104
(dp1105
g69
g1099
sg61
(dp1106
g84
g85
ssg63
(lp1107
g408
asbag55
(g79
g57
Ntp1108
Rp1109
(dp1110
g69
g1099
sg61
(dp1111
g92
g93
ssg63
(lp1112
g95
asbag55
(g79
g57
Ntp1113
Rp1114
(dp1115
g69
g1099
sg61
(dp1116
sg63
(lp1117
g55
(g56
g57
Ntp1118
Rp1119
(dp1120
g69
g1114
sg61
(dp1121
g71
I3
ssg63
(lp1122
g397
asbasbasbag55
(g73
g57
Ntp1123
Rp1124
(dp1125
g69
g1069
sg61
(dp1126
sg63
(lp1127
g55
(g79
g57
Ntp1128
Rp1129
(dp1130
g69
g1124
sg61
(dp1131
g84
g85
ssg63
(lp1132
g434
asbag55
(g79
g57
Ntp1133
Rp1134
(dp1135
g69
g1124
sg61
(dp1136
g92
g93
ssg63
(lp1137
g95
asbag55
(g79
g57
Ntp1138
Rp1139
(dp1140
g69
g1124
sg61
(dp1141
sg63
(lp1142
g55
(g56
g57
Ntp1143
Rp1144
(dp1145
g69
g1139
sg61
(dp1146
g71
I3
ssg63
(lp1147
g397
asbasbasbag55
(g73
g57
Ntp1148
Rp1149
(dp1150
g69
g1069
sg61
(dp1151
sg63
(lp1152
g55
(g79
g57
Ntp1153
Rp1154
(dp1155
g69
g1149
sg61
(dp1156
g84
g85
ssg63
(lp1157
g460
asbag55
(g79
g57
Ntp1158
Rp1159
(dp1160
g69
g1149
sg61
(dp1161
g92
g93
ssg63
(lp1162
g95
asbag55
(g79
g57
Ntp1163
Rp1164
(dp1165
g69
g1149
sg61
(dp1166
sg63
(lp1167
g55
(g56
g57
Ntp1168
Rp1169
(dp1170
g69
g1164
sg61
(dp1171
g71
I3
ssg63
(lp1172
g397
asbasbasbag55
(g73
g57
Ntp1173
Rp1174
(dp1175
g69
g1069
sg61
(dp1176
sg63
(lp1177
g55
(g79
g57
Ntp1178
Rp1179
(dp1180
g69
g1174
sg61
(dp1181
g84
g85
ssg63
(lp1182
g486
asbag55
(g79
g57
Ntp1183
Rp1184
(dp1185
g69
g1174
sg61
(dp1186
g92
g93
ssg63
(lp1187
g95
asbag55
(g79
g57
Ntp1188
Rp1189
(dp1190
g69
g1174
sg61
(dp1191
sg63
(lp1192
g55
(g56
g57
Ntp1193
Rp1194
(dp1195
g69
g1189
sg61
(dp1196
g71
I3
ssg63
(lp1197
g397
asbasbasbag55
(g73
g57
Ntp1198
Rp1199
(dp1200
g69
g1069
sg61
(dp1201
sg63
(lp1202
g55
(g79
g57
Ntp1203
Rp1204
(dp1205
g69
g1199
sg61
(dp1206
g84
g85
ssg63
(lp1207
g512
asbag55
(g79
g57
Ntp1208
Rp1209
(dp1210
g69
g1199
sg61
(dp1211
g92
g93
ssg63
(lp1212
g95
asbag55
(g79
g57
Ntp1213
Rp1214
(dp1215
g69
g1199
sg61
(dp1216
sg63
(lp1217
g55
(g56
g57
Ntp1218
Rp1219
(dp1220
g69
g1214
sg61
(dp1221
g71
I3
ssg63
(lp1222
g397
asbasbasbag55
(g73
g57
Ntp1223
Rp1224
(dp1225
g69
g1069
sg61
(dp1226
sg63
(lp1227
g55
(g79
g57
Ntp1228
Rp1229
(dp1230
g69
g1224
sg61
(dp1231
g84
g85
ssg63
(lp1232
g538
asbag55
(g79
g57
Ntp1233
Rp1234
(dp1235
g69
g1224
sg61
(dp1236
g92
g93
ssg63
(lp1237
g95
asbag55
(g79
g57
Ntp1238
Rp1239
(dp1240
g69
g1224
sg61
(dp1241
sg63
(lp1242
g55
(g56
g57
Ntp1243
Rp1244
(dp1245
g69
g1239
sg61
(dp1246
g71
I3
ssg63
(lp1247
g397
asbasbasbag55
(g73
g57
Ntp1248
Rp1249
(dp1250
g69
g1069
sg61
(dp1251
sg63
(lp1252
g55
(g79
g57
Ntp1253
Rp1254
(dp1255
g69
g1249
sg61
(dp1256
g84
g85
ssg63
(lp1257
g564
asbag55
(g79
g57
Ntp1258
Rp1259
(dp1260
g69
g1249
sg61
(dp1261
g92
g93
ssg63
(lp1262
g95
asbag55
(g79
g57
Ntp1263
Rp1264
(dp1265
g69
g1249
sg61
(dp1266
sg63
(lp1267
g55
(g56
g57
Ntp1268
Rp1269
(dp1270
g69
g1264
sg61
(dp1271
g71
I3
ssg63
(lp1272
g397
asbasbasbasbasbasbasbag55
(g73
g57
Ntp1273
Rp1274
(dp1275
g69
g336
sg61
(dp1276
sg63
(lp1277
g55
(g79
g57
Ntp1278
Rp1279
(dp1280
g69
g1274
sg61
(dp1281
g84
g85
ssg63
(lp1282
S'session_id_mulone'
p1283
asbag55
(g79
g57
Ntp1284
Rp1285
(dp1286
g69
g1274
sg61
(dp1287
g92
g93
ssg63
(lp1288
g95
asbag55
(g79
g57
Ntp1289
Rp1290
(dp1291
g69
g1274
sg61
(dp1292
sg63
(lp1293
g55
(g56
g57
Ntp1294
Rp1295
(dp1296
g69
g1290
sg61
(dp1297
g71
I4
ssg63
(lp1298
g55
(g65
g57
Ntp1299
Rp1300
(dp1301
g69
Nsg61
(dp1302
g71
I3
ssg63
(lp1303
g55
(g73
g57
Ntp1304
Rp1305
(dp1306
g69
g1300
sg61
(dp1307
sg63
(lp1308
g55
(g79
g57
Ntp1309
Rp1310
(dp1311
g69
g1305
sg61
(dp1312
g84
g85
ssg63
(lp1313
g381
asbag55
(g79
g57
Ntp1314
Rp1315
(dp1316
g69
g1305
sg61
(dp1317
g92
g93
ssg63
(lp1318
g95
asbag55
(g79
g57
Ntp1319
Rp1320
(dp1321
g69
g1305
sg61
(dp1322
sg63
(lp1323
g55
(g56
g57
Ntp1324
Rp1325
(dp1326
g69
g1320
sg61
(dp1327
g71
I3
ssg63
(lp1328
g397
asbasbasbag55
(g73
g57
Ntp1329
Rp1330
(dp1331
g69
g1300
sg61
(dp1332
sg63
(lp1333
g55
(g79
g57
Ntp1334
Rp1335
(dp1336
g69
g1330
sg61
(dp1337
g84
g85
ssg63
(lp1338
g408
asbag55
(g79
g57
Ntp1339
Rp1340
(dp1341
g69
g1330
sg61
(dp1342
g92
g93
ssg63
(lp1343
g95
asbag55
(g79
g57
Ntp1344
Rp1345
(dp1346
g69
g1330
sg61
(dp1347
sg63
(lp1348
g55
(g56
g57
Ntp1349
Rp1350
(dp1351
g69
g1345
sg61
(dp1352
g71
I3
ssg63
(lp1353
g397
asbasbasbag55
(g73
g57
Ntp1354
Rp1355
(dp1356
g69
g1300
sg61
(dp1357
sg63
(lp1358
g55
(g79
g57
Ntp1359
Rp1360
(dp1361
g69
g1355
sg61
(dp1362
g84
g85
ssg63
(lp1363
g434
asbag55
(g79
g57
Ntp1364
Rp1365
(dp1366
g69
g1355
sg61
(dp1367
g92
g93
ssg63
(lp1368
g95
asbag55
(g79
g57
Ntp1369
Rp1370
(dp1371
g69
g1355
sg61
(dp1372
sg63
(lp1373
g55
(g56
g57
Ntp1374
Rp1375
(dp1376
g69
g1370
sg61
(dp1377
g71
I3
ssg63
(lp1378
g397
asbasbasbag55
(g73
g57
Ntp1379
Rp1380
(dp1381
g69
g1300
sg61
(dp1382
sg63
(lp1383
g55
(g79
g57
Ntp1384
Rp1385
(dp1386
g69
g1380
sg61
(dp1387
g84
g85
ssg63
(lp1388
g460
asbag55
(g79
g57
Ntp1389
Rp1390
(dp1391
g69
g1380
sg61
(dp1392
g92
g93
ssg63
(lp1393
g95
asbag55
(g79
g57
Ntp1394
Rp1395
(dp1396
g69
g1380
sg61
(dp1397
sg63
(lp1398
g55
(g56
g57
Ntp1399
Rp1400
(dp1401
g69
g1395
sg61
(dp1402
g71
I3
ssg63
(lp1403
g397
asbasbasbag55
(g73
g57
Ntp1404
Rp1405
(dp1406
g69
g1300
sg61
(dp1407
sg63
(lp1408
g55
(g79
g57
Ntp1409
Rp1410
(dp1411
g69
g1405
sg61
(dp1412
g84
g85
ssg63
(lp1413
g486
asbag55
(g79
g57
Ntp1414
Rp1415
(dp1416
g69
g1405
sg61
(dp1417
g92
g93
ssg63
(lp1418
g95
asbag55
(g79
g57
Ntp1419
Rp1420
(dp1421
g69
g1405
sg61
(dp1422
sg63
(lp1423
g55
(g56
g57
Ntp1424
Rp1425
(dp1426
g69
g1420
sg61
(dp1427
g71
I3
ssg63
(lp1428
g397
asbasbasbag55
(g73
g57
Ntp1429
Rp1430
(dp1431
g69
g1300
sg61
(dp1432
sg63
(lp1433
g55
(g79
g57
Ntp1434
Rp1435
(dp1436
g69
g1430
sg61
(dp1437
g84
g85
ssg63
(lp1438
g512
asbag55
(g79
g57
Ntp1439
Rp1440
(dp1441
g69
g1430
sg61
(dp1442
g92
g93
ssg63
(lp1443
g95
asbag55
(g79
g57
Ntp1444
Rp1445
(dp1446
g69
g1430
sg61
(dp1447
sg63
(lp1448
g55
(g56
g57
Ntp1449
Rp1450
(dp1451
g69
g1445
sg61
(dp1452
g71
I3
ssg63
(lp1453
g397
asbasbasbag55
(g73
g57
Ntp1454
Rp1455
(dp1456
g69
g1300
sg61
(dp1457
sg63
(lp1458
g55
(g79
g57
Ntp1459
Rp1460
(dp1461
g69
g1455
sg61
(dp1462
g84
g85
ssg63
(lp1463
g538
asbag55
(g79
g57
Ntp1464
Rp1465
(dp1466
g69
g1455
sg61
(dp1467
g92
g93
ssg63
(lp1468
g95
asbag55
(g79
g57
Ntp1469
Rp1470
(dp1471
g69
g1455
sg61
(dp1472
sg63
(lp1473
g55
(g56
g57
Ntp1474
Rp1475
(dp1476
g69
g1470
sg61
(dp1477
g71
I3
ssg63
(lp1478
g397
asbasbasbag55
(g73
g57
Ntp1479
Rp1480
(dp1481
g69
g1300
sg61
(dp1482
sg63
(lp1483
g55
(g79
g57
Ntp1484
Rp1485
(dp1486
g69
g1480
sg61
(dp1487
g84
g85
ssg63
(lp1488
g564
asbag55
(g79
g57
Ntp1489
Rp1490
(dp1491
g69
g1480
sg61
(dp1492
g92
g93
ssg63
(lp1493
g95
asbag55
(g79
g57
Ntp1494
Rp1495
(dp1496
g69
g1480
sg61
(dp1497
sg63
(lp1498
g55
(g56
g57
Ntp1499
Rp1500
(dp1501
g69
g1495
sg61
(dp1502
g71
I3
ssg63
(lp1503
g397
asbasbasbasbasbasbasbag55
(g73
g57
Ntp1504
Rp1505
(dp1506
g69
g336
sg61
(dp1507
sg63
(lp1508
g55
(g79
g57
Ntp1509
Rp1510
(dp1511
g69
g1505
sg61
(dp1512
g84
g85
ssg63
(lp1513
S'session_id_pyforum'
p1514
asbag55
(g79
g57
Ntp1515
Rp1516
(dp1517
g69
g1505
sg61
(dp1518
g92
g93
ssg63
(lp1519
g95
asbag55
(g79
g57
Ntp1520
Rp1521
(dp1522
g69
g1505
sg61
(dp1523
sg63
(lp1524
g55
(g56
g57
Ntp1525
Rp1526
(dp1527
g69
g1521
sg61
(dp1528
g71
I4
ssg63
(lp1529
g55
(g65
g57
Ntp1530
Rp1531
(dp1532
g69
Nsg61
(dp1533
g71
I3
ssg63
(lp1534
g55
(g73
g57
Ntp1535
Rp1536
(dp1537
g69
g1531
sg61
(dp1538
sg63
(lp1539
g55
(g79
g57
Ntp1540
Rp1541
(dp1542
g69
g1536
sg61
(dp1543
g84
g85
ssg63
(lp1544
g381
asbag55
(g79
g57
Ntp1545
Rp1546
(dp1547
g69
g1536
sg61
(dp1548
g92
g93
ssg63
(lp1549
g95
asbag55
(g79
g57
Ntp1550
Rp1551
(dp1552
g69
g1536
sg61
(dp1553
sg63
(lp1554
g55
(g56
g57
Ntp1555
Rp1556
(dp1557
g69
g1551
sg61
(dp1558
g71
I3
ssg63
(lp1559
g397
asbasbasbag55
(g73
g57
Ntp1560
Rp1561
(dp1562
g69
g1531
sg61
(dp1563
sg63
(lp1564
g55
(g79
g57
Ntp1565
Rp1566
(dp1567
g69
g1561
sg61
(dp1568
g84
g85
ssg63
(lp1569
g408
asbag55
(g79
g57
Ntp1570
Rp1571
(dp1572
g69
g1561
sg61
(dp1573
g92
g93
ssg63
(lp1574
g95
asbag55
(g79
g57
Ntp1575
Rp1576
(dp1577
g69
g1561
sg61
(dp1578
sg63
(lp1579
g55
(g56
g57
Ntp1580
Rp1581
(dp1582
g69
g1576
sg61
(dp1583
g71
I3
ssg63
(lp1584
g397
asbasbasbag55
(g73
g57
Ntp1585
Rp1586
(dp1587
g69
g1531
sg61
(dp1588
sg63
(lp1589
g55
(g79
g57
Ntp1590
Rp1591
(dp1592
g69
g1586
sg61
(dp1593
g84
g85
ssg63
(lp1594
g434
asbag55
(g79
g57
Ntp1595
Rp1596
(dp1597
g69
g1586
sg61
(dp1598
g92
g93
ssg63
(lp1599
g95
asbag55
(g79
g57
Ntp1600
Rp1601
(dp1602
g69
g1586
sg61
(dp1603
sg63
(lp1604
g55
(g56
g57
Ntp1605
Rp1606
(dp1607
g69
g1601
sg61
(dp1608
g71
I3
ssg63
(lp1609
g397
asbasbasbag55
(g73
g57
Ntp1610
Rp1611
(dp1612
g69
g1531
sg61
(dp1613
sg63
(lp1614
g55
(g79
g57
Ntp1615
Rp1616
(dp1617
g69
g1611
sg61
(dp1618
g84
g85
ssg63
(lp1619
g460
asbag55
(g79
g57
Ntp1620
Rp1621
(dp1622
g69
g1611
sg61
(dp1623
g92
g93
ssg63
(lp1624
g95
asbag55
(g79
g57
Ntp1625
Rp1626
(dp1627
g69
g1611
sg61
(dp1628
sg63
(lp1629
g55
(g56
g57
Ntp1630
Rp1631
(dp1632
g69
g1626
sg61
(dp1633
g71
I3
ssg63
(lp1634
g397
asbasbasbag55
(g73
g57
Ntp1635
Rp1636
(dp1637
g69
g1531
sg61
(dp1638
sg63
(lp1639
g55
(g79
g57
Ntp1640
Rp1641
(dp1642
g69
g1636
sg61
(dp1643
g84
g85
ssg63
(lp1644
g486
asbag55
(g79
g57
Ntp1645
Rp1646
(dp1647
g69
g1636
sg61
(dp1648
g92
g93
ssg63
(lp1649
g95
asbag55
(g79
g57
Ntp1650
Rp1651
(dp1652
g69
g1636
sg61
(dp1653
sg63
(lp1654
g55
(g56
g57
Ntp1655
Rp1656
(dp1657
g69
g1651
sg61
(dp1658
g71
I3
ssg63
(lp1659
g397
asbasbasbag55
(g73
g57
Ntp1660
Rp1661
(dp1662
g69
g1531
sg61
(dp1663
sg63
(lp1664
g55
(g79
g57
Ntp1665
Rp1666
(dp1667
g69
g1661
sg61
(dp1668
g84
g85
ssg63
(lp1669
g512
asbag55
(g79
g57
Ntp1670
Rp1671
(dp1672
g69
g1661
sg61
(dp1673
g92
g93
ssg63
(lp1674
g95
asbag55
(g79
g57
Ntp1675
Rp1676
(dp1677
g69
g1661
sg61
(dp1678
sg63
(lp1679
g55
(g56
g57
Ntp1680
Rp1681
(dp1682
g69
g1676
sg61
(dp1683
g71
I3
ssg63
(lp1684
g397
asbasbasbag55
(g73
g57
Ntp1685
Rp1686
(dp1687
g69
g1531
sg61
(dp1688
sg63
(lp1689
g55
(g79
g57
Ntp1690
Rp1691
(dp1692
g69
g1686
sg61
(dp1693
g84
g85
ssg63
(lp1694
g538
asbag55
(g79
g57
Ntp1695
Rp1696
(dp1697
g69
g1686
sg61
(dp1698
g92
g93
ssg63
(lp1699
g95
asbag55
(g79
g57
Ntp1700
Rp1701
(dp1702
g69
g1686
sg61
(dp1703
sg63
(lp1704
g55
(g56
g57
Ntp1705
Rp1706
(dp1707
g69
g1701
sg61
(dp1708
g71
I3
ssg63
(lp1709
g397
asbasbasbag55
(g73
g57
Ntp1710
Rp1711
(dp1712
g69
g1531
sg61
(dp1713
sg63
(lp1714
g55
(g79
g57
Ntp1715
Rp1716
(dp1717
g69
g1711
sg61
(dp1718
g84
g85
ssg63
(lp1719
g564
asbag55
(g79
g57
Ntp1720
Rp1721
(dp1722
g69
g1711
sg61
(dp1723
g92
g93
ssg63
(lp1724
g95
asbag55
(g79
g57
Ntp1725
Rp1726
(dp1727
g69
g1711
sg61
(dp1728
sg63
(lp1729
g55
(g56
g57
Ntp1730
Rp1731
(dp1732
g69
g1726
sg61
(dp1733
g71
I3
ssg63
(lp1734
g397
asbasbasbasbasbasbasbag55
(g73
g57
Ntp1735
Rp1736
(dp1737
g69
g336
sg61
(dp1738
sg63
(lp1739
g55
(g79
g57
Ntp1740
Rp1741
(dp1742
g69
g1736
sg61
(dp1743
g84
g85
ssg63
(lp1744
S'session_id_welcome'
p1745
asbag55
(g79
g57
Ntp1746
Rp1747
(dp1748
g69
g1736
sg61
(dp1749
g92
g93
ssg63
(lp1750
g95
asbag55
(g79
g57
Ntp1751
Rp1752
(dp1753
g69
g1736
sg61
(dp1754
sg63
(lp1755
g55
(g56
g57
Ntp1756
Rp1757
(dp1758
g69
g1752
sg61
(dp1759
g71
I4
ssg63
(lp1760
g55
(g65
g57
Ntp1761
Rp1762
(dp1763
g69
Nsg61
(dp1764
g71
I3
ssg63
(lp1765
g55
(g73
g57
Ntp1766
Rp1767
(dp1768
g69
g1762
sg61
(dp1769
sg63
(lp1770
g55
(g79
g57
Ntp1771
Rp1772
(dp1773
g69
g1767
sg61
(dp1774
g84
g85
ssg63
(lp1775
g381
asbag55
(g79
g57
Ntp1776
Rp1777
(dp1778
g69
g1767
sg61
(dp1779
g92
g93
ssg63
(lp1780
g95
asbag55
(g79
g57
Ntp1781
Rp1782
(dp1783
g69
g1767
sg61
(dp1784
sg63
(lp1785
g55
(g56
g57
Ntp1786
Rp1787
(dp1788
g69
g1782
sg61
(dp1789
g71
I3
ssg63
(lp1790
g397
asbasbasbag55
(g73
g57
Ntp1791
Rp1792
(dp1793
g69
g1762
sg61
(dp1794
sg63
(lp1795
g55
(g79
g57
Ntp1796
Rp1797
(dp1798
g69
g1792
sg61
(dp1799
g84
g85
ssg63
(lp1800
g408
asbag55
(g79
g57
Ntp1801
Rp1802
(dp1803
g69
g1792
sg61
(dp1804
g92
g93
ssg63
(lp1805
g95
asbag55
(g79
g57
Ntp1806
Rp1807
(dp1808
g69
g1792
sg61
(dp1809
sg63
(lp1810
g55
(g56
g57
Ntp1811
Rp1812
(dp1813
g69
g1807
sg61
(dp1814
g71
I3
ssg63
(lp1815
g397
asbasbasbag55
(g73
g57
Ntp1816
Rp1817
(dp1818
g69
g1762
sg61
(dp1819
sg63
(lp1820
g55
(g79
g57
Ntp1821
Rp1822
(dp1823
g69
g1817
sg61
(dp1824
g84
g85
ssg63
(lp1825
g434
asbag55
(g79
g57
Ntp1826
Rp1827
(dp1828
g69
g1817
sg61
(dp1829
g92
g93
ssg63
(lp1830
g95
asbag55
(g79
g57
Ntp1831
Rp1832
(dp1833
g69
g1817
sg61
(dp1834
sg63
(lp1835
g55
(g56
g57
Ntp1836
Rp1837
(dp1838
g69
g1832
sg61
(dp1839
g71
I3
ssg63
(lp1840
g397
asbasbasbag55
(g73
g57
Ntp1841
Rp1842
(dp1843
g69
g1762
sg61
(dp1844
sg63
(lp1845
g55
(g79
g57
Ntp1846
Rp1847
(dp1848
g69
g1842
sg61
(dp1849
g84
g85
ssg63
(lp1850
g460
asbag55
(g79
g57
Ntp1851
Rp1852
(dp1853
g69
g1842
sg61
(dp1854
g92
g93
ssg63
(lp1855
g95
asbag55
(g79
g57
Ntp1856
Rp1857
(dp1858
g69
g1842
sg61
(dp1859
sg63
(lp1860
g55
(g56
g57
Ntp1861
Rp1862
(dp1863
g69
g1857
sg61
(dp1864
g71
I3
ssg63
(lp1865
g397
asbasbasbag55
(g73
g57
Ntp1866
Rp1867
(dp1868
g69
g1762
sg61
(dp1869
sg63
(lp1870
g55
(g79
g57
Ntp1871
Rp1872
(dp1873
g69
g1867
sg61
(dp1874
g84
g85
ssg63
(lp1875
g486
asbag55
(g79
g57
Ntp1876
Rp1877
(dp1878
g69
g1867
sg61
(dp1879
g92
g93
ssg63
(lp1880
g95
asbag55
(g79
g57
Ntp1881
Rp1882
(dp1883
g69
g1867
sg61
(dp1884
sg63
(lp1885
g55
(g56
g57
Ntp1886
Rp1887
(dp1888
g69
g1882
sg61
(dp1889
g71
I3
ssg63
(lp1890
g397
asbasbasbag55
(g73
g57
Ntp1891
Rp1892
(dp1893
g69
g1762
sg61
(dp1894
sg63
(lp1895
g55
(g79
g57
Ntp1896
Rp1897
(dp1898
g69
g1892
sg61
(dp1899
g84
g85
ssg63
(lp1900
g512
asbag55
(g79
g57
Ntp1901
Rp1902
(dp1903
g69
g1892
sg61
(dp1904
g92
g93
ssg63
(lp1905
g95
asbag55
(g79
g57
Ntp1906
Rp1907
(dp1908
g69
g1892
sg61
(dp1909
sg63
(lp1910
g55
(g56
g57
Ntp1911
Rp1912
(dp1913
g69
g1907
sg61
(dp1914
g71
I3
ssg63
(lp1915
g397
asbasbasbag55
(g73
g57
Ntp1916
Rp1917
(dp1918
g69
g1762
sg61
(dp1919
sg63
(lp1920
g55
(g79
g57
Ntp1921
Rp1922
(dp1923
g69
g1917
sg61
(dp1924
g84
g85
ssg63
(lp1925
g538
asbag55
(g79
g57
Ntp1926
Rp1927
(dp1928
g69
g1917
sg61
(dp1929
g92
g93
ssg63
(lp1930
g95
asbag55
(g79
g57
Ntp1931
Rp1932
(dp1933
g69
g1917
sg61
(dp1934
sg63
(lp1935
g55
(g56
g57
Ntp1936
Rp1937
(dp1938
g69
g1932
sg61
(dp1939
g71
I3
ssg63
(lp1940
g397
asbasbasbag55
(g73
g57
Ntp1941
Rp1942
(dp1943
g69
g1762
sg61
(dp1944
sg63
(lp1945
g55
(g79
g57
Ntp1946
Rp1947
(dp1948
g69
g1942
sg61
(dp1949
g84
g85
ssg63
(lp1950
g564
asbag55
(g79
g57
Ntp1951
Rp1952
(dp1953
g69
g1942
sg61
(dp1954
g92
g93
ssg63
(lp1955
g95
asbag55
(g79
g57
Ntp1956
Rp1957
(dp1958
g69
g1942
sg61
(dp1959
sg63
(lp1960
g55
(g56
g57
Ntp1961
Rp1962
(dp1963
g69
g1957
sg61
(dp1964
g71
I3
ssg63
(lp1965
g397
asbasbasbasbasbasbasbasbasbasbasbag55
(g73
g57
Ntp1966
Rp1967
(dp1968
g69
g124
sg61
(dp1969
sg63
(lp1970
g55
(g79
g57
Ntp1971
Rp1972
(dp1973
g69
g1967
sg61
(dp1974
g84
g85
ssg63
(lp1975
S'env'
p1976
asbag55
(g79
g57
Ntp1977
Rp1978
(dp1979
g69
g1967
sg61
(dp1980
g92
g93
ssg63
(lp1981
g95
asbag55
(g79
g57
Ntp1982
Rp1983
(dp1984
g69
g1967
sg61
(dp1985
sg63
(lp1986
g55
(g56
g57
Ntp1987
Rp1988
(dp1989
g69
g1983
sg61
(dp1990
g71
I5
ssg63
(lp1991
g55
(g65
g57
Ntp1992
Rp1993
(dp1994
g69
Nsg61
(dp1995
g71
I4
ssg63
(lp1996
g55
(g73
g57
Ntp1997
Rp1998
(dp1999
g69
g1993
sg61
(dp2000
sg63
(lp2001
g55
(g79
g57
Ntp2002
Rp2003
(dp2004
g69
g1998
sg61
(dp2005
g84
g85
ssg63
(lp2006
S'app_folders'
p2007
asbag55
(g79
g57
Ntp2008
Rp2009
(dp2010
g69
g1998
sg61
(dp2011
g92
g93
ssg63
(lp2012
g95
asbag55
(g79
g57
Ntp2013
Rp2014
(dp2015
g69
g1998
sg61
(dp2016
sg63
(lp2017
g55
(g56
g57
Ntp2018
Rp2019
(dp2020
g69
g2014
sg61
(dp2021
g71
I4
ssg63
(lp2022
S"set(['/home/marco/projects/milanel/web2py/applications/fragance/', '/home/marco/projects/milanel/web2py/applications/admin/'])"
p2023
asbasbasbag55
(g73
g57
Ntp2024
Rp2025
(dp2026
g69
g1993
sg61
(dp2027
sg63
(lp2028
g55
(g79
g57
Ntp2029
Rp2030
(dp2031
g69
g2025
sg61
(dp2032
g84
g85
ssg63
(lp2033
S'applications_parent'
p2034
asbag55
(g79
g57
Ntp2035
Rp2036
(dp2037
g69
g2025
sg61
(dp2038
g92
g93
ssg63
(lp2039
g95
asbag55
(g79
g57
Ntp2040
Rp2041
(dp2042
g69
g2025
sg61
(dp2043
sg63
(lp2044
g55
(g56
g57
Ntp2045
Rp2046
(dp2047
g69
g2041
sg61
(dp2048
g71
I4
ssg63
(lp2049
S'/home/marco/projects/milanel/web2py'
p2050
asbasbasbag55
(g73
g57
Ntp2051
Rp2052
(dp2053
g69
g1993
sg61
(dp2054
sg63
(lp2055
g55
(g79
g57
Ntp2056
Rp2057
(dp2058
g69
g2052
sg61
(dp2059
g84
g85
ssg63
(lp2060
S'cmd_args'
p2061
asbag55
(g79
g57
Ntp2062
Rp2063
(dp2064
g69
g2052
sg61
(dp2065
g92
g93
ssg63
(lp2066
g95
asbag55
(g79
g57
Ntp2067
Rp2068
(dp2069
g69
g2052
sg61
(dp2070
sg63
(lp2071
g55
(g56
g57
Ntp2072
Rp2073
(dp2074
g69
g2068
sg61
(dp2075
g71
I4
ssg63
(lp2076
g55
(g65
g57
Ntp2077
Rp2078
(dp2079
g69
Nsg61
(dp2080
g71
I3
ssg63
(lp2081
sbasbasbasbag55
(g73
g57
Ntp2082
Rp2083
(dp2084
g69
g1993
sg61
(dp2085
sg63
(lp2086
g55
(g79
g57
Ntp2087
Rp2088
(dp2089
g69
g2083
sg61
(dp2090
g84
g85
ssg63
(lp2091
S'cmd_options'
p2092
asbag55
(g79
g57
Ntp2093
Rp2094
(dp2095
g69
g2083
sg61
(dp2096
g92
g93
ssg63
(lp2097
g95
asbag55
(g79
g57
Ntp2098
Rp2099
(dp2100
g69
g2083
sg61
(dp2101
sg63
(lp2102
g55
(g56
g57
Ntp2103
Rp2104
(dp2105
g69
g2099
sg61
(dp2106
g71
I4
ssg63
(lp2107
S"<Values at 0x64d26c0: {'plain': False, 'winservice': '', 'pid_filename': 'httpserver.pid', 'nobanner': False, 'folder': '/home/marco/projects/milanel/web2py', 'import_models': False, 'test': None, 'socket_timeout': 5, 'timeout': 10, 'minthreads': None, 'extcron': False, 'nocron': False, 'interfaces': None, 'quiet': False, 'nogui': False, 'shutdown_timeout': 5, 'numthreads': None, 'bpython': False, 'server_name': 'malena', 'softcron': False, 'maxthreads': None, 'cronjob': False, 'ssl_certificate': '', 'request_queue_size': 5, 'port': 8000, 'password': 'asd', 'ssl_private_key': '', 'profiler_filename': None, 'taskbar': False, 'scheduler': None, 'config': '', 'ssl_ca_certificate': None, 'debuglevel': 30, 'args': [''], 'log_filename': 'httpserver.log', 'ip': '127.0.0.1', 'verbose': False, 'run': '', 'shell': None}>"
p2108
asbasbasbag55
(g73
g57
Ntp2109
Rp2110
(dp2111
g69
g1993
sg61
(dp2112
sg63
(lp2113
g55
(g79
g57
Ntp2114
Rp2115
(dp2116
g69
g2110
sg61
(dp2117
g84
g85
ssg63
(lp2118
S'db_sessions'
p2119
asbag55
(g79
g57
Ntp2120
Rp2121
(dp2122
g69
g2110
sg61
(dp2123
g92
g93
ssg63
(lp2124
g95
asbag55
(g79
g57
Ntp2125
Rp2126
(dp2127
g69
g2110
sg61
(dp2128
sg63
(lp2129
g55
(g56
g57
Ntp2130
Rp2131
(dp2132
g69
g2126
sg61
(dp2133
g71
I4
ssg63
(lp2134
S'set([])'
p2135
asbasbasbag55
(g73
g57
Ntp2136
Rp2137
(dp2138
g69
g1993
sg61
(dp2139
sg63
(lp2140
g55
(g79
g57
Ntp2141
Rp2142
(dp2143
g69
g2137
sg61
(dp2144
g84
g85
ssg63
(lp2145
S'debugging'
p2146
asbag55
(g79
g57
Ntp2147
Rp2148
(dp2149
g69
g2137
sg61
(dp2150
g92
g93
ssg63
(lp2151
g95
asbag55
(g79
g57
Ntp2152
Rp2153
(dp2154
g69
g2137
sg61
(dp2155
sg63
(lp2156
g55
(g56
g57
Ntp2157
Rp2158
(dp2159
g69
g2153
sg61
(dp2160
g71
I4
ssg63
(lp2161
g154
asbasbasbag55
(g73
g57
Ntp2162
Rp2163
(dp2164
g69
g1993
sg61
(dp2165
sg63
(lp2166
g55
(g79
g57
Ntp2167
Rp2168
(dp2169
g69
g2163
sg61
(dp2170
g84
g85
ssg63
(lp2171
S'gluon_parent'
p2172
asbag55
(g79
g57
Ntp2173
Rp2174
(dp2175
g69
g2163
sg61
(dp2176
g92
g93
ssg63
(lp2177
g95
asbag55
(g79
g57
Ntp2178
Rp2179
(dp2180
g69
g2163
sg61
(dp2181
sg63
(lp2182
g55
(g56
g57
Ntp2183
Rp2184
(dp2185
g69
g2179
sg61
(dp2186
g71
I4
ssg63
(lp2187
S'/home/marco/projects/milanel/web2py'
p2188
asbasbasbag55
(g73
g57
Ntp2189
Rp2190
(dp2191
g69
g1993
sg61
(dp2192
sg63
(lp2193
g55
(g79
g57
Ntp2194
Rp2195
(dp2196
g69
g2190
sg61
(dp2197
g84
g85
ssg63
(lp2198
S'http_accept'
p2199
asbag55
(g79
g57
Ntp2200
Rp2201
(dp2202
g69
g2190
sg61
(dp2203
g92
g93
ssg63
(lp2204
g95
asbag55
(g79
g57
Ntp2205
Rp2206
(dp2207
g69
g2190
sg61
(dp2208
sg63
(lp2209
g55
(g56
g57
Ntp2210
Rp2211
(dp2212
g69
g2206
sg61
(dp2213
g71
I4
ssg63
(lp2214
S'text/html,application/xhtml+xml,application/xml;q=0.9,*/*;q=0.8'
p2215
asbasbasbag55
(g73
g57
Ntp2216
Rp2217
(dp2218
g69
g1993
sg61
(dp2219
sg63
(lp2220
g55
(g79
g57
Ntp2221
Rp2222
(dp2223
g69
g2217
sg61
(dp2224
g84
g85
ssg63
(lp2225
S'http_accept_encoding'
p2226
asbag55
(g79
g57
Ntp2227
Rp2228
(dp2229
g69
g2217
sg61
(dp2230
g92
g93
ssg63
(lp2231
g95
asbag55
(g79
g57
Ntp2232
Rp2233
(dp2234
g69
g2217
sg61
(dp2235
sg63
(lp2236
g55
(g56
g57
Ntp2237
Rp2238
(dp2239
g69
g2233
sg61
(dp2240
g71
I4
ssg63
(lp2241
S'gzip, deflate'
p2242
asbasbasbag55
(g73
g57
Ntp2243
Rp2244
(dp2245
g69
g1993
sg61
(dp2246
sg63
(lp2247
g55
(g79
g57
Ntp2248
Rp2249
(dp2250
g69
g2244
sg61
(dp2251
g84
g85
ssg63
(lp2252
S'http_accept_language'
p2253
asbag55
(g79
g57
Ntp2254
Rp2255
(dp2256
g69
g2244
sg61
(dp2257
g92
g93
ssg63
(lp2258
g95
asbag55
(g79
g57
Ntp2259
Rp2260
(dp2261
g69
g2244
sg61
(dp2262
sg63
(lp2263
g55
(g56
g57
Ntp2264
Rp2265
(dp2266
g69
g2260
sg61
(dp2267
g71
I4
ssg63
(lp2268
S'es-ar,es;q=0.8,en-us;q=0.5,en;q=0.3'
p2269
asbasbasbag55
(g73
g57
Ntp2270
Rp2271
(dp2272
g69
g1993
sg61
(dp2273
sg63
(lp2274
g55
(g79
g57
Ntp2275
Rp2276
(dp2277
g69
g2271
sg61
(dp2278
g84
g85
ssg63
(lp2279
S'http_connection'
p2280
asbag55
(g79
g57
Ntp2281
Rp2282
(dp2283
g69
g2271
sg61
(dp2284
g92
g93
ssg63
(lp2285
g95
asbag55
(g79
g57
Ntp2286
Rp2287
(dp2288
g69
g2271
sg61
(dp2289
sg63
(lp2290
g55
(g56
g57
Ntp2291
Rp2292
(dp2293
g69
g2287
sg61
(dp2294
g71
I4
ssg63
(lp2295
S'keep-alive'
p2296
asbasbasbag55
(g73
g57
Ntp2297
Rp2298
(dp2299
g69
g1993
sg61
(dp2300
sg63
(lp2301
g55
(g79
g57
Ntp2302
Rp2303
(dp2304
g69
g2298
sg61
(dp2305
g84
g85
ssg63
(lp2306
S'http_cookie'
p2307
asbag55
(g79
g57
Ntp2308
Rp2309
(dp2310
g69
g2298
sg61
(dp2311
g92
g93
ssg63
(lp2312
g95
asbag55
(g79
g57
Ntp2313
Rp2314
(dp2315
g69
g2298
sg61
(dp2316
sg63
(lp2317
g55
(g56
g57
Ntp2318
Rp2319
(dp2320
g69
g2314
sg61
(dp2321
g71
I4
ssg63
(lp2322
S'__utma=96992031.1881515701.1331265087.1331598672.1331664875.13; __utmz=96992031.1331265087.1.1.utmcsr=(direct)|utmccn=(direct)|utmcmd=(none); session_id_welcome=127.0.0.1-bc1d4fe1-a82f-4886-9661-c21469c577ae; session_id_mulone=127.0.0.1-d00e5c6f-5e23-4faf-8f82-7871a8294546; session_id_pyforum=127.0.0.1-0f1c3970-4880-47c3-9813-2662fd402b76; session_id_admin=127.0.0.1-c99434ee-f1ac-4032-a4a8-a48c94272c40; PHPSESSID=gq50mjm5dcdrobk0o08uhg8uj4; session_id_flisol2012=127.0.0.1-ed1db9bf-ad91-48d9-88d5-043d2b56127d; __utmc=96992031; session_id_fragance=127.0.0.1-4c183531-58d1-419b-bed0-c56856f380cb'
p2323
asbasbasbag55
(g73
g57
Ntp2324
Rp2325
(dp2326
g69
g1993
sg61
(dp2327
sg63
(lp2328
g55
(g79
g57
Ntp2329
Rp2330
(dp2331
g69
g2325
sg61
(dp2332
g84
g85
ssg63
(lp2333
S'http_host'
p2334
asbag55
(g79
g57
Ntp2335
Rp2336
(dp2337
g69
g2325
sg61
(dp2338
g92
g93
ssg63
(lp2339
g95
asbag55
(g79
g57
Ntp2340
Rp2341
(dp2342
g69
g2325
sg61
(dp2343
sg63
(lp2344
g55
(g56
g57
Ntp2345
Rp2346
(dp2347
g69
g2341
sg61
(dp2348
g71
I4
ssg63
(lp2349
S'127.0.0.1:8000'
p2350
asbasbasbag55
(g73
g57
Ntp2351
Rp2352
(dp2353
g69
g1993
sg61
(dp2354
sg63
(lp2355
g55
(g79
g57
Ntp2356
Rp2357
(dp2358
g69
g2352
sg61
(dp2359
g84
g85
ssg63
(lp2360
S'http_referer'
p2361
asbag55
(g79
g57
Ntp2362
Rp2363
(dp2364
g69
g2352
sg61
(dp2365
g92
g93
ssg63
(lp2366
g95
asbag55
(g79
g57
Ntp2367
Rp2368
(dp2369
g69
g2352
sg61
(dp2370
sg63
(lp2371
g55
(g56
g57
Ntp2372
Rp2373
(dp2374
g69
g2368
sg61
(dp2375
g71
I4
ssg63
(lp2376
S'http://127.0.0.1:8000/fragance/appadmin/select/db?query=db.articulo.id%3E0'
p2377
asbasbasbag55
(g73
g57
Ntp2378
Rp2379
(dp2380
g69
g1993
sg61
(dp2381
sg63
(lp2382
g55
(g79
g57
Ntp2383
Rp2384
(dp2385
g69
g2379
sg61
(dp2386
g84
g85
ssg63
(lp2387
S'http_user_agent'
p2388
asbag55
(g79
g57
Ntp2389
Rp2390
(dp2391
g69
g2379
sg61
(dp2392
g92
g93
ssg63
(lp2393
g95
asbag55
(g79
g57
Ntp2394
Rp2395
(dp2396
g69
g2379
sg61
(dp2397
sg63
(lp2398
g55
(g56
g57
Ntp2399
Rp2400
(dp2401
g69
g2395
sg61
(dp2402
g71
I4
ssg63
(lp2403
S'Mozilla/5.0 (X11; Linux x86_64; rv:11.0) Gecko/20100101 Firefox/11.0 Iceweasel/11.0'
p2404
asbasbasbag55
(g73
g57
Ntp2405
Rp2406
(dp2407
g69
g1993
sg61
(dp2408
sg63
(lp2409
g55
(g79
g57
Ntp2410
Rp2411
(dp2412
g69
g2406
sg61
(dp2413
g84
g85
ssg63
(lp2414
S'is_jython'
p2415
asbag55
(g79
g57
Ntp2416
Rp2417
(dp2418
g69
g2406
sg61
(dp2419
g92
g93
ssg63
(lp2420
g95
asbag55
(g79
g57
Ntp2421
Rp2422
(dp2423
g69
g2406
sg61
(dp2424
sg63
(lp2425
g55
(g56
g57
Ntp2426
Rp2427
(dp2428
g69
g2422
sg61
(dp2429
g71
I4
ssg63
(lp2430
g154
asbasbasbag55
(g73
g57
Ntp2431
Rp2432
(dp2433
g69
g1993
sg61
(dp2434
sg63
(lp2435
g55
(g79
g57
Ntp2436
Rp2437
(dp2438
g69
g2432
sg61
(dp2439
g84
g85
ssg63
(lp2440
S'is_pypy'
p2441
asbag55
(g79
g57
Ntp2442
Rp2443
(dp2444
g69
g2432
sg61
(dp2445
g92
g93
ssg63
(lp2446
g95
asbag55
(g79
g57
Ntp2447
Rp2448
(dp2449
g69
g2432
sg61
(dp2450
sg63
(lp2451
g55
(g56
g57
Ntp2452
Rp2453
(dp2454
g69
g2448
sg61
(dp2455
g71
I4
ssg63
(lp2456
S'True'
p2457
asbasbasbag55
(g73
g57
Ntp2458
Rp2459
(dp2460
g69
g1993
sg61
(dp2461
sg63
(lp2462
g55
(g79
g57
Ntp2463
Rp2464
(dp2465
g69
g2459
sg61
(dp2466
g84
g85
ssg63
(lp2467
S'path_info'
p2468
asbag55
(g79
g57
Ntp2469
Rp2470
(dp2471
g69
g2459
sg61
(dp2472
g92
g93
ssg63
(lp2473
g95
asbag55
(g79
g57
Ntp2474
Rp2475
(dp2476
g69
g2459
sg61
(dp2477
sg63
(lp2478
g55
(g56
g57
Ntp2479
Rp2480
(dp2481
g69
g2475
sg61
(dp2482
g71
I4
ssg63
(lp2483
S'/fragance/appadmin/csv/db'
p2484
asbasbasbag55
(g73
g57
Ntp2485
Rp2486
(dp2487
g69
g1993
sg61
(dp2488
sg63
(lp2489
g55
(g79
g57
Ntp2490
Rp2491
(dp2492
g69
g2486
sg61
(dp2493
g84
g85
ssg63
(lp2494
S'query_string'
p2495
asbag55
(g79
g57
Ntp2496
Rp2497
(dp2498
g69
g2486
sg61
(dp2499
g92
g93
ssg63
(lp2500
g95
asbag55
(g79
g57
Ntp2501
Rp2502
(dp2503
g69
g2486
sg61
(dp2504
sg63
(lp2505
g55
(g56
g57
Ntp2506
Rp2507
(dp2508
g69
g2502
sg61
(dp2509
g71
I4
ssg63
(lp2510
S'query=db.articulo.id%3E0'
p2511
asbasbasbag55
(g73
g57
Ntp2512
Rp2513
(dp2514
g69
g1993
sg61
(dp2515
sg63
(lp2516
g55
(g79
g57
Ntp2517
Rp2518
(dp2519
g69
g2513
sg61
(dp2520
g84
g85
ssg63
(lp2521
S'remote_addr'
p2522
asbag55
(g79
g57
Ntp2523
Rp2524
(dp2525
g69
g2513
sg61
(dp2526
g92
g93
ssg63
(lp2527
g95
asbag55
(g79
g57
Ntp2528
Rp2529
(dp2530
g69
g2513
sg61
(dp2531
sg63
(lp2532
g55
(g56
g57
Ntp2533
Rp2534
(dp2535
g69
g2529
sg61
(dp2536
g71
I4
ssg63
(lp2537
g281
asbasbasbag55
(g73
g57
Ntp2538
Rp2539
(dp2540
g69
g1993
sg61
(dp2541
sg63
(lp2542
g55
(g79
g57
Ntp2543
Rp2544
(dp2545
g69
g2539
sg61
(dp2546
g84
g85
ssg63
(lp2547
S'remote_port'
p2548
asbag55
(g79
g57
Ntp2549
Rp2550
(dp2551
g69
g2539
sg61
(dp2552
g92
g93
ssg63
(lp2553
g95
asbag55
(g79
g57
Ntp2554
Rp2555
(dp2556
g69
g2539
sg61
(dp2557
sg63
(lp2558
g55
(g56
g57
Ntp2559
Rp2560
(dp2561
g69
g2555
sg61
(dp2562
g71
I4
ssg63
(lp2563
S'39049'
p2564
asbasbasbag55
(g73
g57
Ntp2565
Rp2566
(dp2567
g69
g1993
sg61
(dp2568
sg63
(lp2569
g55
(g79
g57
Ntp2570
Rp2571
(dp2572
g69
g2566
sg61
(dp2573
g84
g85
ssg63
(lp2574
S'request_method'
p2575
asbag55
(g79
g57
Ntp2576
Rp2577
(dp2578
g69
g2566
sg61
(dp2579
g92
g93
ssg63
(lp2580
g95
asbag55
(g79
g57
Ntp2581
Rp2582
(dp2583
g69
g2566
sg61
(dp2584
sg63
(lp2585
g55
(g56
g57
Ntp2586
Rp2587
(dp2588
g69
g2582
sg61
(dp2589
g71
I4
ssg63
(lp2590
S'GET'
p2591
asbasbasbag55
(g73
g57
Ntp2592
Rp2593
(dp2594
g69
g1993
sg61
(dp2595
sg63
(lp2596
g55
(g79
g57
Ntp2597
Rp2598
(dp2599
g69
g2593
sg61
(dp2600
g84
g85
ssg63
(lp2601
S'script_name'
p2602
asbag55
(g79
g57
Ntp2603
Rp2604
(dp2605
g69
g2593
sg61
(dp2606
g92
g93
ssg63
(lp2607
g95
asbag55
(g79
g57
Ntp2608
Rp2609
(dp2610
g69
g2593
sg61
(dp2611
sg63
(lp2612
g55
(g56
g57
Ntp2613
Rp2614
(dp2615
g69
g2609
sg61
(dp2616
g71
I4
ssg63
(lp2617
S''
p2618
asbasbasbag55
(g73
g57
Ntp2619
Rp2620
(dp2621
g69
g1993
sg61
(dp2622
sg63
(lp2623
g55
(g79
g57
Ntp2624
Rp2625
(dp2626
g69
g2620
sg61
(dp2627
g84
g85
ssg63
(lp2628
S'server_name'
p2629
asbag55
(g79
g57
Ntp2630
Rp2631
(dp2632
g69
g2620
sg61
(dp2633
g92
g93
ssg63
(lp2634
g95
asbag55
(g79
g57
Ntp2635
Rp2636
(dp2637
g69
g2620
sg61
(dp2638
sg63
(lp2639
g55
(g56
g57
Ntp2640
Rp2641
(dp2642
g69
g2636
sg61
(dp2643
g71
I4
ssg63
(lp2644
S'malena'
p2645
asbasbasbag55
(g73
g57
Ntp2646
Rp2647
(dp2648
g69
g1993
sg61
(dp2649
sg63
(lp2650
g55
(g79
g57
Ntp2651
Rp2652
(dp2653
g69
g2647
sg61
(dp2654
g84
g85
ssg63
(lp2655
S'server_port'
p2656
asbag55
(g79
g57
Ntp2657
Rp2658
(dp2659
g69
g2647
sg61
(dp2660
g92
g93
ssg63
(lp2661
g95
asbag55
(g79
g57
Ntp2662
Rp2663
(dp2664
g69
g2647
sg61
(dp2665
sg63
(lp2666
g55
(g56
g57
Ntp2667
Rp2668
(dp2669
g69
g2663
sg61
(dp2670
g71
I4
ssg63
(lp2671
S'8000'
p2672
asbasbasbag55
(g73
g57
Ntp2673
Rp2674
(dp2675
g69
g1993
sg61
(dp2676
sg63
(lp2677
g55
(g79
g57
Ntp2678
Rp2679
(dp2680
g69
g2674
sg61
(dp2681
g84
g85
ssg63
(lp2682
S'server_protocol'
p2683
asbag55
(g79
g57
Ntp2684
Rp2685
(dp2686
g69
g2674
sg61
(dp2687
g92
g93
ssg63
(lp2688
g95
asbag55
(g79
g57
Ntp2689
Rp2690
(dp2691
g69
g2674
sg61
(dp2692
sg63
(lp2693
g55
(g56
g57
Ntp2694
Rp2695
(dp2696
g69
g2690
sg61
(dp2697
g71
I4
ssg63
(lp2698
S'HTTP/1.1'
p2699
asbasbasbag55
(g73
g57
Ntp2700
Rp2701
(dp2702
g69
g1993
sg61
(dp2703
sg63
(lp2704
g55
(g79
g57
Ntp2705
Rp2706
(dp2707
g69
g2701
sg61
(dp2708
g84
g85
ssg63
(lp2709
S'server_software'
p2710
asbag55
(g79
g57
Ntp2711
Rp2712
(dp2713
g69
g2701
sg61
(dp2714
g92
g93
ssg63
(lp2715
g95
asbag55
(g79
g57
Ntp2716
Rp2717
(dp2718
g69
g2701
sg61
(dp2719
sg63
(lp2720
g55
(g56
g57
Ntp2721
Rp2722
(dp2723
g69
g2717
sg61
(dp2724
g71
I4
ssg63
(lp2725
S'Rocket 1.2.4'
p2726
asbasbasbag55
(g73
g57
Ntp2727
Rp2728
(dp2729
g69
g1993
sg61
(dp2730
sg63
(lp2731
g55
(g79
g57
Ntp2732
Rp2733
(dp2734
g69
g2728
sg61
(dp2735
g84
g85
ssg63
(lp2736
S'web2py_crontype'
p2737
asbag55
(g79
g57
Ntp2738
Rp2739
(dp2740
g69
g2728
sg61
(dp2741
g92
g93
ssg63
(lp2742
g95
asbag55
(g79
g57
Ntp2743
Rp2744
(dp2745
g69
g2728
sg61
(dp2746
sg63
(lp2747
g55
(g56
g57
Ntp2748
Rp2749
(dp2750
g69
g2744
sg61
(dp2751
g71
I4
ssg63
(lp2752
S'hard'
p2753
asbasbasbag55
(g73
g57
Ntp2754
Rp2755
(dp2756
g69
g1993
sg61
(dp2757
sg63
(lp2758
g55
(g79
g57
Ntp2759
Rp2760
(dp2761
g69
g2755
sg61
(dp2762
g84
g85
ssg63
(lp2763
S'web2py_path'
p2764
asbag55
(g79
g57
Ntp2765
Rp2766
(dp2767
g69
g2755
sg61
(dp2768
g92
g93
ssg63
(lp2769
g95
asbag55
(g79
g57
Ntp2770
Rp2771
(dp2772
g69
g2755
sg61
(dp2773
sg63
(lp2774
g55
(g56
g57
Ntp2775
Rp2776
(dp2777
g69
g2771
sg61
(dp2778
g71
I4
ssg63
(lp2779
g2050
asbasbasbag55
(g73
g57
Ntp2780
Rp2781
(dp2782
g69
g1993
sg61
(dp2783
sg63
(lp2784
g55
(g79
g57
Ntp2785
Rp2786
(dp2787
g69
g2781
sg61
(dp2788
g84
g85
ssg63
(lp2789
S'web2py_version'
p2790
asbag55
(g79
g57
Ntp2791
Rp2792
(dp2793
g69
g2781
sg61
(dp2794
g92
g93
ssg63
(lp2795
g95
asbag55
(g79
g57
Ntp2796
Rp2797
(dp2798
g69
g2781
sg61
(dp2799
sg63
(lp2800
g55
(g56
g57
Ntp2801
Rp2802
(dp2803
g69
g2797
sg61
(dp2804
g71
I4
ssg63
(lp2805
g55
(g65
g57
Ntp2806
Rp2807
(dp2808
g69
Nsg61
(dp2809
g71
I3
ssg63
(lp2810
g55
(g73
g57
Ntp2811
Rp2812
(dp2813
g69
g2807
sg61
(dp2814
sg63
(lp2815
g55
(g79
g57
Ntp2816
Rp2817
(dp2818
g69
g2812
sg61
(dp2819
sg63
(lp2820
g55
(g56
g57
Ntp2821
Rp2822
(dp2823
g69
g2817
sg61
(dp2824
g71
I3
ssg63
(lp2825
S'1'
p2826
asbasbasbag55
(g73
g57
Ntp2827
Rp2828
(dp2829
g69
g2807
sg61
(dp2830
sg63
(lp2831
g55
(g79
g57
Ntp2832
Rp2833
(dp2834
g69
g2828
sg61
(dp2835
sg63
(lp2836
g55
(g56
g57
Ntp2837
Rp2838
(dp2839
g69
g2833
sg61
(dp2840
g71
I3
ssg63
(lp2841
S'99'
p2842
asbasbasbag55
(g73
g57
Ntp2843
Rp2844
(dp2845
g69
g2807
sg61
(dp2846
sg63
(lp2847
g55
(g79
g57
Ntp2848
Rp2849
(dp2850
g69
g2844
sg61
(dp2851
sg63
(lp2852
g55
(g56
g57
Ntp2853
Rp2854
(dp2855
g69
g2849
sg61
(dp2856
g71
I3
ssg63
(lp2857
S'7'
p2858
asbasbasbag55
(g73
g57
Ntp2859
Rp2860
(dp2861
g69
g2807
sg61
(dp2862
sg63
(lp2863
g55
(g79
g57
Ntp2864
Rp2865
(dp2866
g69
g2860
sg61
(dp2867
sg63
(lp2868
g55
(g56
g57
Ntp2869
Rp2870
(dp2871
g69
g2865
sg61
(dp2872
g71
I3
ssg63
(lp2873
S'datetime.datetime(2012, 3, 4, 22, 12, 8)'
p2874
asbasbasbag55
(g73
g57
Ntp2875
Rp2876
(dp2877
g69
g2807
sg61
(dp2878
sg63
(lp2879
g55
(g79
g57
Ntp2880
Rp2881
(dp2882
g69
g2876
sg61
(dp2883
sg63
(lp2884
g55
(g56
g57
Ntp2885
Rp2886
(dp2887
g69
g2881
sg61
(dp2888
g71
I3
ssg63
(lp2889
S'stable'
p2890
asbasbasbasbasbasbasbag55
(g73
g57
Ntp2891
Rp2892
(dp2893
g69
g1993
sg61
(dp2894
sg63
(lp2895
g55
(g79
g57
Ntp2896
Rp2897
(dp2898
g69
g2892
sg61
(dp2899
g84
g85
ssg63
(lp2900
S'wsgi_errors'
p2901
asbag55
(g79
g57
Ntp2902
Rp2903
(dp2904
g69
g2892
sg61
(dp2905
g92
g93
ssg63
(lp2906
g95
asbag55
(g79
g57
Ntp2907
Rp2908
(dp2909
g69
g2892
sg61
(dp2910
sg63
(lp2911
g55
(g56
g57
Ntp2912
Rp2913
(dp2914
g69
g2908
sg61
(dp2915
g71
I4
ssg63
(lp2916
S"<open file '<fdopen>', mode 'w' at 0x0000000002ed4b40>"
p2917
asbasbasbag55
(g73
g57
Ntp2918
Rp2919
(dp2920
g69
g1993
sg61
(dp2921
sg63
(lp2922
g55
(g79
g57
Ntp2923
Rp2924
(dp2925
g69
g2919
sg61
(dp2926
g84
g85
ssg63
(lp2927
S'wsgi_file_wrapper'
p2928
asbag55
(g79
g57
Ntp2929
Rp2930
(dp2931
g69
g2919
sg61
(dp2932
g92
g93
ssg63
(lp2933
g95
asbag55
(g79
g57
Ntp2934
Rp2935
(dp2936
g69
g2919
sg61
(dp2937
sg63
(lp2938
g55
(g56
g57
Ntp2939
Rp2940
(dp2941
g69
g2935
sg61
(dp2942
g71
I4
ssg63
(lp2943
S'<class wsgiref.util.FileWrapper at 0x0000000006f105c0>'
p2944
asbasbasbag55
(g73
g57
Ntp2945
Rp2946
(dp2947
g69
g1993
sg61
(dp2948
sg63
(lp2949
g55
(g79
g57
Ntp2950
Rp2951
(dp2952
g69
g2946
sg61
(dp2953
g84
g85
ssg63
(lp2954
S'wsgi_input'
p2955
asbag55
(g79
g57
Ntp2956
Rp2957
(dp2958
g69
g2946
sg61
(dp2959
g92
g93
ssg63
(lp2960
g95
asbag55
(g79
g57
Ntp2961
Rp2962
(dp2963
g69
g2946
sg61
(dp2964
sg63
(lp2965
g55
(g56
g57
Ntp2966
Rp2967
(dp2968
g69
g2962
sg61
(dp2969
g71
I4
ssg63
(lp2970
S'<socket._fileobject object at 0x000000000813f7d8>'
p2971
asbasbasbag55
(g73
g57
Ntp2972
Rp2973
(dp2974
g69
g1993
sg61
(dp2975
sg63
(lp2976
g55
(g79
g57
Ntp2977
Rp2978
(dp2979
g69
g2973
sg61
(dp2980
g84
g85
ssg63
(lp2981
S'wsgi_multiprocess'
p2982
asbag55
(g79
g57
Ntp2983
Rp2984
(dp2985
g69
g2973
sg61
(dp2986
g92
g93
ssg63
(lp2987
g95
asbag55
(g79
g57
Ntp2988
Rp2989
(dp2990
g69
g2973
sg61
(dp2991
sg63
(lp2992
g55
(g56
g57
Ntp2993
Rp2994
(dp2995
g69
g2989
sg61
(dp2996
g71
I4
ssg63
(lp2997
g154
asbasbasbag55
(g73
g57
Ntp2998
Rp2999
(dp3000
g69
g1993
sg61
(dp3001
sg63
(lp3002
g55
(g79
g57
Ntp3003
Rp3004
(dp3005
g69
g2999
sg61
(dp3006
g84
g85
ssg63
(lp3007
S'wsgi_multithread'
p3008
asbag55
(g79
g57
Ntp3009
Rp3010
(dp3011
g69
g2999
sg61
(dp3012
g92
g93
ssg63
(lp3013
g95
asbag55
(g79
g57
Ntp3014
Rp3015
(dp3016
g69
g2999
sg61
(dp3017
sg63
(lp3018
g55
(g56
g57
Ntp3019
Rp3020
(dp3021
g69
g3015
sg61
(dp3022
g71
I4
ssg63
(lp3023
g2457
asbasbasbag55
(g73
g57
Ntp3024
Rp3025
(dp3026
g69
g1993
sg61
(dp3027
sg63
(lp3028
g55
(g79
g57
Ntp3029
Rp3030
(dp3031
g69
g3025
sg61
(dp3032
g84
g85
ssg63
(lp3033
S'wsgi_run_once'
p3034
asbag55
(g79
g57
Ntp3035
Rp3036
(dp3037
g69
g3025
sg61
(dp3038
g92
g93
ssg63
(lp3039
g95
asbag55
(g79
g57
Ntp3040
Rp3041
(dp3042
g69
g3025
sg61
(dp3043
sg63
(lp3044
g55
(g56
g57
Ntp3045
Rp3046
(dp3047
g69
g3041
sg61
(dp3048
g71
I4
ssg63
(lp3049
g154
asbasbasbag55
(g73
g57
Ntp3050
Rp3051
(dp3052
g69
g1993
sg61
(dp3053
sg63
(lp3054
g55
(g79
g57
Ntp3055
Rp3056
(dp3057
g69
g3051
sg61
(dp3058
g84
g85
ssg63
(lp3059
S'wsgi_url_scheme'
p3060
asbag55
(g79
g57
Ntp3061
Rp3062
(dp3063
g69
g3051
sg61
(dp3064
g92
g93
ssg63
(lp3065
g95
asbag55
(g79
g57
Ntp3066
Rp3067
(dp3068
g69
g3051
sg61
(dp3069
sg63
(lp3070
g55
(g56
g57
Ntp3071
Rp3072
(dp3073
g69
g3067
sg61
(dp3074
g71
I4
ssg63
(lp3075
S'http'
p3076
asbasbasbag55
(g73
g57
Ntp3077
Rp3078
(dp3079
g69
g1993
sg61
(dp3080
sg63
(lp3081
g55
(g79
g57
Ntp3082
Rp3083
(dp3084
g69
g3078
sg61
(dp3085
g84
g85
ssg63
(lp3086
S'wsgi_version'
p3087
asbag55
(g79
g57
Ntp3088
Rp3089
(dp3090
g69
g3078
sg61
(dp3091
g92
g93
ssg63
(lp3092
g95
asbag55
(g79
g57
Ntp3093
Rp3094
(dp3095
g69
g3078
sg61
(dp3096
sg63
(lp3097
g55
(g56
g57
Ntp3098
Rp3099
(dp3100
g69
g3094
sg61
(dp3101
g71
I4
ssg63
(lp3102
g55
(g65
g57
Ntp3103
Rp3104
(dp3105
g69
Nsg61
(dp3106
g71
I3
ssg63
(lp3107
g55
(g73
g57
Ntp3108
Rp3109
(dp3110
g69
g3104
sg61
(dp3111
sg63
(lp3112
g55
(g79
g57
Ntp3113
Rp3114
(dp3115
g69
g3109
sg61
(dp3116
sg63
(lp3117
g55
(g56
g57
Ntp3118
Rp3119
(dp3120
g69
g3114
sg61
(dp3121
g71
I3
ssg63
(lp3122
S'1'
p3123
asbasbasbag55
(g73
g57
Ntp3124
Rp3125
(dp3126
g69
g3104
sg61
(dp3127
sg63
(lp3128
g55
(g79
g57
Ntp3129
Rp3130
(dp3131
g69
g3125
sg61
(dp3132
sg63
(lp3133
g55
(g56
g57
Ntp3134
Rp3135
(dp3136
g69
g3130
sg61
(dp3137
g71
I3
ssg63
(lp3138
S'0'
p3139
asbasbasbasbasbasbasbasbasbasbasbag55
(g73
g57
Ntp3140
Rp3141
(dp3142
g69
g124
sg61
(dp3143
sg63
(lp3144
g55
(g79
g57
Ntp3145
Rp3146
(dp3147
g69
g3141
sg61
(dp3148
g84
g85
ssg63
(lp3149
S'extension'
p3150
asbag55
(g79
g57
Ntp3151
Rp3152
(dp3153
g69
g3141
sg61
(dp3154
g92
g93
ssg63
(lp3155
g95
asbag55
(g79
g57
Ntp3156
Rp3157
(dp3158
g69
g3141
sg61
(dp3159
sg63
(lp3160
g55
(g56
g57
Ntp3161
Rp3162
(dp3163
g69
g3157
sg61
(dp3164
g71
I5
ssg63
(lp3165
S'html'
p3166
asbasbasbag55
(g73
g57
Ntp3167
Rp3168
(dp3169
g69
g124
sg61
(dp3170
sg63
(lp3171
g55
(g79
g57
Ntp3172
Rp3173
(dp3174
g69
g3168
sg61
(dp3175
g84
g85
ssg63
(lp3176
S'folder'
p3177
asbag55
(g79
g57
Ntp3178
Rp3179
(dp3180
g69
g3168
sg61
(dp3181
g92
g93
ssg63
(lp3182
g95
asbag55
(g79
g57
Ntp3183
Rp3184
(dp3185
g69
g3168
sg61
(dp3186
sg63
(lp3187
g55
(g56
g57
Ntp3188
Rp3189
(dp3190
g69
g3184
sg61
(dp3191
g71
I5
ssg63
(lp3192
S'/home/marco/projects/milanel/web2py/applications/fragance/'
p3193
asbasbasbag55
(g73
g57
Ntp3194
Rp3195
(dp3196
g69
g124
sg61
(dp3197
sg63
(lp3198
g55
(g79
g57
Ntp3199
Rp3200
(dp3201
g69
g3195
sg61
(dp3202
g84
g85
ssg63
(lp3203
S'function'
p3204
asbag55
(g79
g57
Ntp3205
Rp3206
(dp3207
g69
g3195
sg61
(dp3208
g92
g93
ssg63
(lp3209
g95
asbag55
(g79
g57
Ntp3210
Rp3211
(dp3212
g69
g3195
sg61
(dp3213
sg63
(lp3214
g55
(g56
g57
Ntp3215
Rp3216
(dp3217
g69
g3211
sg61
(dp3218
g71
I5
ssg63
(lp3219
S'csv'
p3220
asbasbasbag55
(g73
g57
Ntp3221
Rp3222
(dp3223
g69
g124
sg61
(dp3224
sg63
(lp3225
g55
(g79
g57
Ntp3226
Rp3227
(dp3228
g69
g3222
sg61
(dp3229
g84
g85
ssg63
(lp3230
S'get_vars'
p3231
asbag55
(g79
g57
Ntp3232
Rp3233
(dp3234
g69
g3222
sg61
(dp3235
g92
g93
ssg63
(lp3236
g95
asbag55
(g79
g57
Ntp3237
Rp3238
(dp3239
g69
g3222
sg61
(dp3240
sg63
(lp3241
g55
(g56
g57
Ntp3242
Rp3243
(dp3244
g69
g3238
sg61
(dp3245
g71
I5
ssg63
(lp3246
g55
(g65
g57
Ntp3247
Rp3248
(dp3249
g69
Nsg61
(dp3250
g71
I4
ssg63
(lp3251
g55
(g73
g57
Ntp3252
Rp3253
(dp3254
g69
g3248
sg61
(dp3255
sg63
(lp3256
g55
(g79
g57
Ntp3257
Rp3258
(dp3259
g69
g3253
sg61
(dp3260
g84
g85
ssg63
(lp3261
S'query'
p3262
asbag55
(g79
g57
Ntp3263
Rp3264
(dp3265
g69
g3253
sg61
(dp3266
g92
g93
ssg63
(lp3267
g95
asbag55
(g79
g57
Ntp3268
Rp3269
(dp3270
g69
g3253
sg61
(dp3271
sg63
(lp3272
g55
(g56
g57
Ntp3273
Rp3274
(dp3275
g69
g3269
sg61
(dp3276
g71
I4
ssg63
(lp3277
S'db.articulo.id>0'
p3278
asbasbasbasbasbasbasbag55
(g73
g57
Ntp3279
Rp3280
(dp3281
g69
g124
sg61
(dp3282
sg63
(lp3283
g55
(g79
g57
Ntp3284
Rp3285
(dp3286
g69
g3280
sg61
(dp3287
g84
g85
ssg63
(lp3288
S'global_settings'
p3289
asbag55
(g79
g57
Ntp3290
Rp3291
(dp3292
g69
g3280
sg61
(dp3293
g92
g93
ssg63
(lp3294
g95
asbag55
(g79
g57
Ntp3295
Rp3296
(dp3297
g69
g3280
sg61
(dp3298
sg63
(lp3299
g55
(g56
g57
Ntp3300
Rp3301
(dp3302
g69
g3296
sg61
(dp3303
g71
I5
ssg63
(lp3304
g55
(g65
g57
Ntp3305
Rp3306
(dp3307
g69
Nsg61
(dp3308
g71
I4
ssg63
(lp3309
g55
(g73
g57
Ntp3310
Rp3311
(dp3312
g69
g3306
sg61
(dp3313
sg63
(lp3314
g55
(g79
g57
Ntp3315
Rp3316
(dp3317
g69
g3311
sg61
(dp3318
g84
g85
ssg63
(lp3319
g2007
asbag55
(g79
g57
Ntp3320
Rp3321
(dp3322
g69
g3311
sg61
(dp3323
g92
g93
ssg63
(lp3324
g95
asbag55
(g79
g57
Ntp3325
Rp3326
(dp3327
g69
g3311
sg61
(dp3328
sg63
(lp3329
g55
(g56
g57
Ntp3330
Rp3331
(dp3332
g69
g3326
sg61
(dp3333
g71
I4
ssg63
(lp3334
S"set(['/home/marco/projects/milanel/web2py/applications/fragance/', '/home/marco/projects/milanel/web2py/applications/admin/'])"
p3335
asbasbasbag55
(g73
g57
Ntp3336
Rp3337
(dp3338
g69
g3306
sg61
(dp3339
sg63
(lp3340
g55
(g79
g57
Ntp3341
Rp3342
(dp3343
g69
g3337
sg61
(dp3344
g84
g85
ssg63
(lp3345
g2034
asbag55
(g79
g57
Ntp3346
Rp3347
(dp3348
g69
g3337
sg61
(dp3349
g92
g93
ssg63
(lp3350
g95
asbag55
(g79
g57
Ntp3351
Rp3352
(dp3353
g69
g3337
sg61
(dp3354
sg63
(lp3355
g55
(g56
g57
Ntp3356
Rp3357
(dp3358
g69
g3352
sg61
(dp3359
g71
I4
ssg63
(lp3360
g2050
asbasbasbag55
(g73
g57
Ntp3361
Rp3362
(dp3363
g69
g3306
sg61
(dp3364
sg63
(lp3365
g55
(g79
g57
Ntp3366
Rp3367
(dp3368
g69
g3362
sg61
(dp3369
g84
g85
ssg63
(lp3370
g2061
asbag55
(g79
g57
Ntp3371
Rp3372
(dp3373
g69
g3362
sg61
(dp3374
g92
g93
ssg63
(lp3375
g95
asbag55
(g79
g57
Ntp3376
Rp3377
(dp3378
g69
g3362
sg61
(dp3379
sg63
(lp3380
g55
(g56
g57
Ntp3381
Rp3382
(dp3383
g69
g3377
sg61
(dp3384
g71
I4
ssg63
(lp3385
g55
(g65
g57
Ntp3386
Rp3387
(dp3388
g69
Nsg61
(dp3389
g71
I3
ssg63
(lp3390
sbasbasbasbag55
(g73
g57
Ntp3391
Rp3392
(dp3393
g69
g3306
sg61
(dp3394
sg63
(lp3395
g55
(g79
g57
Ntp3396
Rp3397
(dp3398
g69
g3392
sg61
(dp3399
g84
g85
ssg63
(lp3400
g2092
asbag55
(g79
g57
Ntp3401
Rp3402
(dp3403
g69
g3392
sg61
(dp3404
g92
g93
ssg63
(lp3405
g95
asbag55
(g79
g57
Ntp3406
Rp3407
(dp3408
g69
g3392
sg61
(dp3409
sg63
(lp3410
g55
(g56
g57
Ntp3411
Rp3412
(dp3413
g69
g3407
sg61
(dp3414
g71
I4
ssg63
(lp3415
S"<Values at 0x64d26c0: {'plain': False, 'winservice': '', 'pid_filename': 'httpserver.pid', 'nobanner': False, 'folder': '/home/marco/projects/milanel/web2py', 'import_models': False, 'test': None, 'socket_timeout': 5, 'timeout': 10, 'minthreads': None, 'extcron': False, 'nocron': False, 'interfaces': None, 'quiet': False, 'nogui': False, 'shutdown_timeout': 5, 'numthreads': None, 'bpython': False, 'server_name': 'malena', 'softcron': False, 'maxthreads': None, 'cronjob': False, 'ssl_certificate': '', 'request_queue_size': 5, 'port': 8000, 'password': 'asd', 'ssl_private_key': '', 'profiler_filename': None, 'taskbar': False, 'scheduler': None, 'config': '', 'ssl_ca_certificate': None, 'debuglevel': 30, 'args': [''], 'log_filename': 'httpserver.log', 'ip': '127.0.0.1', 'verbose': False, 'run': '', 'shell': None}>"
p3416
asbasbasbag55
(g73
g57
Ntp3417
Rp3418
(dp3419
g69
g3306
sg61
(dp3420
sg63
(lp3421
g55
(g79
g57
Ntp3422
Rp3423
(dp3424
g69
g3418
sg61
(dp3425
g84
g85
ssg63
(lp3426
g2119
asbag55
(g79
g57
Ntp3427
Rp3428
(dp3429
g69
g3418
sg61
(dp3430
g92
g93
ssg63
(lp3431
g95
asbag55
(g79
g57
Ntp3432
Rp3433
(dp3434
g69
g3418
sg61
(dp3435
sg63
(lp3436
g55
(g56
g57
Ntp3437
Rp3438
(dp3439
g69
g3433
sg61
(dp3440
g71
I4
ssg63
(lp3441
S'set([])'
p3442
asbasbasbag55
(g73
g57
Ntp3443
Rp3444
(dp3445
g69
g3306
sg61
(dp3446
sg63
(lp3447
g55
(g79
g57
Ntp3448
Rp3449
(dp3450
g69
g3444
sg61
(dp3451
g84
g85
ssg63
(lp3452
g2146
asbag55
(g79
g57
Ntp3453
Rp3454
(dp3455
g69
g3444
sg61
(dp3456
g92
g93
ssg63
(lp3457
g95
asbag55
(g79
g57
Ntp3458
Rp3459
(dp3460
g69
g3444
sg61
(dp3461
sg63
(lp3462
g55
(g56
g57
Ntp3463
Rp3464
(dp3465
g69
g3459
sg61
(dp3466
g71
I4
ssg63
(lp3467
g154
asbasbasbag55
(g73
g57
Ntp3468
Rp3469
(dp3470
g69
g3306
sg61
(dp3471
sg63
(lp3472
g55
(g79
g57
Ntp3473
Rp3474
(dp3475
g69
g3469
sg61
(dp3476
g84
g85
ssg63
(lp3477
g2172
asbag55
(g79
g57
Ntp3478
Rp3479
(dp3480
g69
g3469
sg61
(dp3481
g92
g93
ssg63
(lp3482
g95
asbag55
(g79
g57
Ntp3483
Rp3484
(dp3485
g69
g3469
sg61
(dp3486
sg63
(lp3487
g55
(g56
g57
Ntp3488
Rp3489
(dp3490
g69
g3484
sg61
(dp3491
g71
I4
ssg63
(lp3492
g2188
asbasbasbag55
(g73
g57
Ntp3493
Rp3494
(dp3495
g69
g3306
sg61
(dp3496
sg63
(lp3497
g55
(g79
g57
Ntp3498
Rp3499
(dp3500
g69
g3494
sg61
(dp3501
g84
g85
ssg63
(lp3502
g2415
asbag55
(g79
g57
Ntp3503
Rp3504
(dp3505
g69
g3494
sg61
(dp3506
g92
g93
ssg63
(lp3507
g95
asbag55
(g79
g57
Ntp3508
Rp3509
(dp3510
g69
g3494
sg61
(dp3511
sg63
(lp3512
g55
(g56
g57
Ntp3513
Rp3514
(dp3515
g69
g3509
sg61
(dp3516
g71
I4
ssg63
(lp3517
g154
asbasbasbag55
(g73
g57
Ntp3518
Rp3519
(dp3520
g69
g3306
sg61
(dp3521
sg63
(lp3522
g55
(g79
g57
Ntp3523
Rp3524
(dp3525
g69
g3519
sg61
(dp3526
g84
g85
ssg63
(lp3527
g2441
asbag55
(g79
g57
Ntp3528
Rp3529
(dp3530
g69
g3519
sg61
(dp3531
g92
g93
ssg63
(lp3532
g95
asbag55
(g79
g57
Ntp3533
Rp3534
(dp3535
g69
g3519
sg61
(dp3536
sg63
(lp3537
g55
(g56
g57
Ntp3538
Rp3539
(dp3540
g69
g3534
sg61
(dp3541
g71
I4
ssg63
(lp3542
g2457
asbasbasbag55
(g73
g57
Ntp3543
Rp3544
(dp3545
g69
g3306
sg61
(dp3546
sg63
(lp3547
g55
(g79
g57
Ntp3548
Rp3549
(dp3550
g69
g3544
sg61
(dp3551
g84
g85
ssg63
(lp3552
g2737
asbag55
(g79
g57
Ntp3553
Rp3554
(dp3555
g69
g3544
sg61
(dp3556
g92
g93
ssg63
(lp3557
g95
asbag55
(g79
g57
Ntp3558
Rp3559
(dp3560
g69
g3544
sg61
(dp3561
sg63
(lp3562
g55
(g56
g57
Ntp3563
Rp3564
(dp3565
g69
g3559
sg61
(dp3566
g71
I4
ssg63
(lp3567
g2753
asbasbasbag55
(g73
g57
Ntp3568
Rp3569
(dp3570
g69
g3306
sg61
(dp3571
sg63
(lp3572
g55
(g79
g57
Ntp3573
Rp3574
(dp3575
g69
g3569
sg61
(dp3576
g84
g85
ssg63
(lp3577
g2790
asbag55
(g79
g57
Ntp3578
Rp3579
(dp3580
g69
g3569
sg61
(dp3581
g92
g93
ssg63
(lp3582
g95
asbag55
(g79
g57
Ntp3583
Rp3584
(dp3585
g69
g3569
sg61
(dp3586
sg63
(lp3587
g55
(g56
g57
Ntp3588
Rp3589
(dp3590
g69
g3584
sg61
(dp3591
g71
I4
ssg63
(lp3592
g55
(g65
g57
Ntp3593
Rp3594
(dp3595
g69
Nsg61
(dp3596
g71
I3
ssg63
(lp3597
g55
(g73
g57
Ntp3598
Rp3599
(dp3600
g69
g3594
sg61
(dp3601
sg63
(lp3602
g55
(g79
g57
Ntp3603
Rp3604
(dp3605
g69
g3599
sg61
(dp3606
sg63
(lp3607
g55
(g56
g57
Ntp3608
Rp3609
(dp3610
g69
g3604
sg61
(dp3611
g71
I3
ssg63
(lp3612
S'1'
p3613
asbasbasbag55
(g73
g57
Ntp3614
Rp3615
(dp3616
g69
g3594
sg61
(dp3617
sg63
(lp3618
g55
(g79
g57
Ntp3619
Rp3620
(dp3621
g69
g3615
sg61
(dp3622
sg63
(lp3623
g55
(g56
g57
Ntp3624
Rp3625
(dp3626
g69
g3620
sg61
(dp3627
g71
I3
ssg63
(lp3628
S'99'
p3629
asbasbasbag55
(g73
g57
Ntp3630
Rp3631
(dp3632
g69
g3594
sg61
(dp3633
sg63
(lp3634
g55
(g79
g57
Ntp3635
Rp3636
(dp3637
g69
g3631
sg61
(dp3638
sg63
(lp3639
g55
(g56
g57
Ntp3640
Rp3641
(dp3642
g69
g3636
sg61
(dp3643
g71
I3
ssg63
(lp3644
S'7'
p3645
asbasbasbag55
(g73
g57
Ntp3646
Rp3647
(dp3648
g69
g3594
sg61
(dp3649
sg63
(lp3650
g55
(g79
g57
Ntp3651
Rp3652
(dp3653
g69
g3647
sg61
(dp3654
sg63
(lp3655
g55
(g56
g57
Ntp3656
Rp3657
(dp3658
g69
g3652
sg61
(dp3659
g71
I3
ssg63
(lp3660
S'datetime.datetime(2012, 3, 4, 22, 12, 8)'
p3661
asbasbasbag55
(g73
g57
Ntp3662
Rp3663
(dp3664
g69
g3594
sg61
(dp3665
sg63
(lp3666
g55
(g79
g57
Ntp3667
Rp3668
(dp3669
g69
g3663
sg61
(dp3670
sg63
(lp3671
g55
(g56
g57
Ntp3672
Rp3673
(dp3674
g69
g3668
sg61
(dp3675
g71
I3
ssg63
(lp3676
g2890
asbasbasbasbasbasbasbasbasbasbasbag55
(g73
g57
Ntp3677
Rp3678
(dp3679
g69
g124
sg61
(dp3680
sg63
(lp3681
g55
(g79
g57
Ntp3682
Rp3683
(dp3684
g69
g3678
sg61
(dp3685
g84
g85
ssg63
(lp3686
S'is_https'
p3687
asbag55
(g79
g57
Ntp3688
Rp3689
(dp3690
g69
g3678
sg61
(dp3691
g92
g93
ssg63
(lp3692
g95
asbag55
(g79
g57
Ntp3693
Rp3694
(dp3695
g69
g3678
sg61
(dp3696
sg63
(lp3697
g55
(g56
g57
Ntp3698
Rp3699
(dp3700
g69
g3694
sg61
(dp3701
g71
I5
ssg63
(lp3702
g154
asbasbasbag55
(g73
g57
Ntp3703
Rp3704
(dp3705
g69
g124
sg61
(dp3706
sg63
(lp3707
g55
(g79
g57
Ntp3708
Rp3709
(dp3710
g69
g3704
sg61
(dp3711
g84
g85
ssg63
(lp3712
S'is_local'
p3713
asbag55
(g79
g57
Ntp3714
Rp3715
(dp3716
g69
g3704
sg61
(dp3717
g92
g93
ssg63
(lp3718
g95
asbag55
(g79
g57
Ntp3719
Rp3720
(dp3721
g69
g3704
sg61
(dp3722
sg63
(lp3723
g55
(g56
g57
Ntp3724
Rp3725
(dp3726
g69
g3720
sg61
(dp3727
g71
I5
ssg63
(lp3728
g2457
asbasbasbag55
(g73
g57
Ntp3729
Rp3730
(dp3731
g69
g124
sg61
(dp3732
sg63
(lp3733
g55
(g79
g57
Ntp3734
Rp3735
(dp3736
g69
g3730
sg61
(dp3737
g84
g85
ssg63
(lp3738
S'is_restful'
p3739
asbag55
(g79
g57
Ntp3740
Rp3741
(dp3742
g69
g3730
sg61
(dp3743
g92
g93
ssg63
(lp3744
g95
asbag55
(g79
g57
Ntp3745
Rp3746
(dp3747
g69
g3730
sg61
(dp3748
sg63
(lp3749
g55
(g56
g57
Ntp3750
Rp3751
(dp3752
g69
g3746
sg61
(dp3753
g71
I5
ssg63
(lp3754
g154
asbasbasbag55
(g73
g57
Ntp3755
Rp3756
(dp3757
g69
g124
sg61
(dp3758
sg63
(lp3759
g55
(g79
g57
Ntp3760
Rp3761
(dp3762
g69
g3756
sg61
(dp3763
g84
g85
ssg63
(lp3764
S'now'
p3765
asbag55
(g79
g57
Ntp3766
Rp3767
(dp3768
g69
g3756
sg61
(dp3769
g92
g93
ssg63
(lp3770
g95
asbag55
(g79
g57
Ntp3771
Rp3772
(dp3773
g69
g3756
sg61
(dp3774
sg63
(lp3775
g55
(g56
g57
Ntp3776
Rp3777
(dp3778
g69
g3772
sg61
(dp3779
g71
I5
ssg63
(lp3780
S'datetime.datetime(2012, 3, 14, 12, 13, 23, 368396)'
p3781
asbasbasbag55
(g73
g57
Ntp3782
Rp3783
(dp3784
g69
g124
sg61
(dp3785
sg63
(lp3786
g55
(g79
g57
Ntp3787
Rp3788
(dp3789
g69
g3783
sg61
(dp3790
g84
g85
ssg63
(lp3791
S'post_vars'
p3792
asbag55
(g79
g57
Ntp3793
Rp3794
(dp3795
g69
g3783
sg61
(dp3796
g92
g93
ssg63
(lp3797
g95
asbag55
(g79
g57
Ntp3798
Rp3799
(dp3800
g69
g3783
sg61
(dp3801
sg63
(lp3802
g55
(g56
g57
Ntp3803
Rp3804
(dp3805
g69
g3799
sg61
(dp3806
g71
I5
ssg63
(lp3807
g55
(g65
g57
Ntp3808
Rp3809
(dp3810
g69
Nsg61
(dp3811
g71
I4
ssg63
(lp3812
sbasbasbasbag55
(g73
g57
Ntp3813
Rp3814
(dp3815
g69
g124
sg61
(dp3816
sg63
(lp3817
g55
(g79
g57
Ntp3818
Rp3819
(dp3820
g69
g3814
sg61
(dp3821
g84
g85
ssg63
(lp3822
S'raw_args'
p3823
asbag55
(g79
g57
Ntp3824
Rp3825
(dp3826
g69
g3814
sg61
(dp3827
g92
g93
ssg63
(lp3828
g95
asbag55
(g79
g57
Ntp3829
Rp3830
(dp3831
g69
g3814
sg61
(dp3832
sg63
(lp3833
g55
(g56
g57
Ntp3834
Rp3835
(dp3836
g69
g3830
sg61
(dp3837
g71
I5
ssg63
(lp3838
S'db'
p3839
asbasbasbag55
(g73
g57
Ntp3840
Rp3841
(dp3842
g69
g124
sg61
(dp3843
sg63
(lp3844
g55
(g79
g57
Ntp3845
Rp3846
(dp3847
g69
g3841
sg61
(dp3848
g84
g85
ssg63
(lp3849
S'url'
p3850
asbag55
(g79
g57
Ntp3851
Rp3852
(dp3853
g69
g3841
sg61
(dp3854
g92
g93
ssg63
(lp3855
g95
asbag55
(g79
g57
Ntp3856
Rp3857
(dp3858
g69
g3841
sg61
(dp3859
sg63
(lp3860
g55
(g56
g57
Ntp3861
Rp3862
(dp3863
g69
g3857
sg61
(dp3864
g71
I5
ssg63
(lp3865
S'/fragance/appadmin/csv/db'
p3866
asbasbasbag55
(g73
g57
Ntp3867
Rp3868
(dp3869
g69
g124
sg61
(dp3870
sg63
(lp3871
g55
(g79
g57
Ntp3872
Rp3873
(dp3874
g69
g3868
sg61
(dp3875
g84
g85
ssg63
(lp3876
S'utcnow'
p3877
asbag55
(g79
g57
Ntp3878
Rp3879
(dp3880
g69
g3868
sg61
(dp3881
g92
g93
ssg63
(lp3882
g95
asbag55
(g79
g57
Ntp3883
Rp3884
(dp3885
g69
g3868
sg61
(dp3886
sg63
(lp3887
g55
(g56
g57
Ntp3888
Rp3889
(dp3890
g69
g3884
sg61
(dp3891
g71
I5
ssg63
(lp3892
S'datetime.datetime(2012, 3, 14, 15, 13, 23, 368513.0)'
p3893
asbasbasbag55
(g73
g57
Ntp3894
Rp3895
(dp3896
g69
g124
sg61
(dp3897
sg63
(lp3898
g55
(g79
g57
Ntp3899
Rp3900
(dp3901
g69
g3895
sg61
(dp3902
g84
g85
ssg63
(lp3903
S'uuid'
p3904
asbag55
(g79
g57
Ntp3905
Rp3906
(dp3907
g69
g3895
sg61
(dp3908
g92
g93
ssg63
(lp3909
g95
asbag55
(g79
g57
Ntp3910
Rp3911
(dp3912
g69
g3895
sg61
(dp3913
sg63
(lp3914
g55
(g56
g57
Ntp3915
Rp3916
(dp3917
g69
g3911
sg61
(dp3918
g71
I5
ssg63
(lp3919
S'fragance/127.0.0.1.2012-03-14.12-13-23.9ca12c56-9696-4539-94da-e2248c5bf14f'
p3920
asbasbasbag55
(g73
g57
Ntp3921
Rp3922
(dp3923
g69
g124
sg61
(dp3924
sg63
(lp3925
g55
(g79
g57
Ntp3926
Rp3927
(dp3928
g69
g3922
sg61
(dp3929
g84
g85
ssg63
(lp3930
S'vars'
p3931
asbag55
(g79
g57
Ntp3932
Rp3933
(dp3934
g69
g3922
sg61
(dp3935
g92
g93
ssg63
(lp3936
g95
asbag55
(g79
g57
Ntp3937
Rp3938
(dp3939
g69
g3922
sg61
(dp3940
sg63
(lp3941
g55
(g56
g57
Ntp3942
Rp3943
(dp3944
g69
g3938
sg61
(dp3945
g71
I5
ssg63
(lp3946
g55
(g65
g57
Ntp3947
Rp3948
(dp3949
g69
Nsg61
(dp3950
g71
I4
ssg63
(lp3951
g55
(g73
g57
Ntp3952
Rp3953
(dp3954
g69
g3948
sg61
(dp3955
sg63
(lp3956
g55
(g79
g57
Ntp3957
Rp3958
(dp3959
g69
g3953
sg61
(dp3960
g84
g85
ssg63
(lp3961
g3262
asbag55
(g79
g57
Ntp3962
Rp3963
(dp3964
g69
g3953
sg61
(dp3965
g92
g93
ssg63
(lp3966
g95
asbag55
(g79
g57
Ntp3967
Rp3968
(dp3969
g69
g3953
sg61
(dp3970
sg63
(lp3971
g55
(g56
g57
Ntp3972
Rp3973
(dp3974
g69
g3968
sg61
(dp3975
g71
I4
ssg63
(lp3976
g3278
asbasbasbasbasbasbasbag55
(g73
g57
Ntp3977
Rp3978
(dp3979
g69
g124
sg61
(dp3980
sg63
(lp3981
g55
(g79
g57
Ntp3982
Rp3983
(dp3984
g69
g3978
sg61
(dp3985
g84
g85
ssg63
(lp3986
S'wsgi'
p3987
asbag55
(g79
g57
Ntp3988
Rp3989
(dp3990
g69
g3978
sg61
(dp3991
g92
g93
ssg63
(lp3992
g95
asbag55
(g79
g57
Ntp3993
Rp3994
(dp3995
g69
g3978
sg61
(dp3996
sg63
(lp3997
g55
(g56
g57
Ntp3998
Rp3999
(dp4000
g69
g3994
sg61
(dp4001
g71
I5
ssg63
(lp4002
g55
(g65
g57
Ntp4003
Rp4004
(dp4005
g69
Nsg61
(dp4006
g71
I4
ssg63
(lp4007
g55
(g73
g57
Ntp4008
Rp4009
(dp4010
g69
g4004
sg61
(dp4011
sg63
(lp4012
g55
(g79
g57
Ntp4013
Rp4014
(dp4015
g69
g4009
sg61
(dp4016
g84
g85
ssg63
(lp4017
S'environ'
p4018
asbag55
(g79
g57
Ntp4019
Rp4020
(dp4021
g69
g4009
sg61
(dp4022
g92
g93
ssg63
(lp4023
g95
asbag55
(g79
g57
Ntp4024
Rp4025
(dp4026
g69
g4009
sg61
(dp4027
sg63
(lp4028
g55
(g56
g57
Ntp4029
Rp4030
(dp4031
g69
g4025
sg61
(dp4032
g71
I4
ssg63
(lp4033
g55
(g65
g57
Ntp4034
Rp4035
(dp4036
g69
Nsg61
(dp4037
g71
I3
ssg63
(lp4038
g55
(g73
g57
Ntp4039
Rp4040
(dp4041
g69
g4035
sg61
(dp4042
sg63
(lp4043
g55
(g79
g57
Ntp4044
Rp4045
(dp4046
g69
g4040
sg61
(dp4047
g84
g85
ssg63
(lp4048
S'HTTP_ACCEPT'
p4049
asbag55
(g79
g57
Ntp4050
Rp4051
(dp4052
g69
g4040
sg61
(dp4053
g92
g93
ssg63
(lp4054
g95
asbag55
(g79
g57
Ntp4055
Rp4056
(dp4057
g69
g4040
sg61
(dp4058
sg63
(lp4059
g55
(g56
g57
Ntp4060
Rp4061
(dp4062
g69
g4056
sg61
(dp4063
g71
I3
ssg63
(lp4064
g2215
asbasbasbag55
(g73
g57
Ntp4065
Rp4066
(dp4067
g69
g4035
sg61
(dp4068
sg63
(lp4069
g55
(g79
g57
Ntp4070
Rp4071
(dp4072
g69
g4066
sg61
(dp4073
g84
g85
ssg63
(lp4074
S'HTTP_ACCEPT_ENCODING'
p4075
asbag55
(g79
g57
Ntp4076
Rp4077
(dp4078
g69
g4066
sg61
(dp4079
g92
g93
ssg63
(lp4080
g95
asbag55
(g79
g57
Ntp4081
Rp4082
(dp4083
g69
g4066
sg61
(dp4084
sg63
(lp4085
g55
(g56
g57
Ntp4086
Rp4087
(dp4088
g69
g4082
sg61
(dp4089
g71
I3
ssg63
(lp4090
g2242
asbasbasbag55
(g73
g57
Ntp4091
Rp4092
(dp4093
g69
g4035
sg61
(dp4094
sg63
(lp4095
g55
(g79
g57
Ntp4096
Rp4097
(dp4098
g69
g4092
sg61
(dp4099
g84
g85
ssg63
(lp4100
S'HTTP_ACCEPT_LANGUAGE'
p4101
asbag55
(g79
g57
Ntp4102
Rp4103
(dp4104
g69
g4092
sg61
(dp4105
g92
g93
ssg63
(lp4106
g95
asbag55
(g79
g57
Ntp4107
Rp4108
(dp4109
g69
g4092
sg61
(dp4110
sg63
(lp4111
g55
(g56
g57
Ntp4112
Rp4113
(dp4114
g69
g4108
sg61
(dp4115
g71
I3
ssg63
(lp4116
g2269
asbasbasbag55
(g73
g57
Ntp4117
Rp4118
(dp4119
g69
g4035
sg61
(dp4120
sg63
(lp4121
g55
(g79
g57
Ntp4122
Rp4123
(dp4124
g69
g4118
sg61
(dp4125
g84
g85
ssg63
(lp4126
S'HTTP_CONNECTION'
p4127
asbag55
(g79
g57
Ntp4128
Rp4129
(dp4130
g69
g4118
sg61
(dp4131
g92
g93
ssg63
(lp4132
g95
asbag55
(g79
g57
Ntp4133
Rp4134
(dp4135
g69
g4118
sg61
(dp4136
sg63
(lp4137
g55
(g56
g57
Ntp4138
Rp4139
(dp4140
g69
g4134
sg61
(dp4141
g71
I3
ssg63
(lp4142
g2296
asbasbasbag55
(g73
g57
Ntp4143
Rp4144
(dp4145
g69
g4035
sg61
(dp4146
sg63
(lp4147
g55
(g79
g57
Ntp4148
Rp4149
(dp4150
g69
g4144
sg61
(dp4151
g84
g85
ssg63
(lp4152
S'HTTP_COOKIE'
p4153
asbag55
(g79
g57
Ntp4154
Rp4155
(dp4156
g69
g4144
sg61
(dp4157
g92
g93
ssg63
(lp4158
g95
asbag55
(g79
g57
Ntp4159
Rp4160
(dp4161
g69
g4144
sg61
(dp4162
sg63
(lp4163
g55
(g56
g57
Ntp4164
Rp4165
(dp4166
g69
g4160
sg61
(dp4167
g71
I3
ssg63
(lp4168
g2323
asbasbasbag55
(g73
g57
Ntp4169
Rp4170
(dp4171
g69
g4035
sg61
(dp4172
sg63
(lp4173
g55
(g79
g57
Ntp4174
Rp4175
(dp4176
g69
g4170
sg61
(dp4177
g84
g85
ssg63
(lp4178
S'HTTP_HOST'
p4179
asbag55
(g79
g57
Ntp4180
Rp4181
(dp4182
g69
g4170
sg61
(dp4183
g92
g93
ssg63
(lp4184
g95
asbag55
(g79
g57
Ntp4185
Rp4186
(dp4187
g69
g4170
sg61
(dp4188
sg63
(lp4189
g55
(g56
g57
Ntp4190
Rp4191
(dp4192
g69
g4186
sg61
(dp4193
g71
I3
ssg63
(lp4194
g2350
asbasbasbag55
(g73
g57
Ntp4195
Rp4196
(dp4197
g69
g4035
sg61
(dp4198
sg63
(lp4199
g55
(g79
g57
Ntp4200
Rp4201
(dp4202
g69
g4196
sg61
(dp4203
g84
g85
ssg63
(lp4204
S'HTTP_REFERER'
p4205
asbag55
(g79
g57
Ntp4206
Rp4207
(dp4208
g69
g4196
sg61
(dp4209
g92
g93
ssg63
(lp4210
g95
asbag55
(g79
g57
Ntp4211
Rp4212
(dp4213
g69
g4196
sg61
(dp4214
sg63
(lp4215
g55
(g56
g57
Ntp4216
Rp4217
(dp4218
g69
g4212
sg61
(dp4219
g71
I3
ssg63
(lp4220
g2377
asbasbasbag55
(g73
g57
Ntp4221
Rp4222
(dp4223
g69
g4035
sg61
(dp4224
sg63
(lp4225
g55
(g79
g57
Ntp4226
Rp4227
(dp4228
g69
g4222
sg61
(dp4229
g84
g85
ssg63
(lp4230
S'HTTP_USER_AGENT'
p4231
asbag55
(g79
g57
Ntp4232
Rp4233
(dp4234
g69
g4222
sg61
(dp4235
g92
g93
ssg63
(lp4236
g95
asbag55
(g79
g57
Ntp4237
Rp4238
(dp4239
g69
g4222
sg61
(dp4240
sg63
(lp4241
g55
(g56
g57
Ntp4242
Rp4243
(dp4244
g69
g4238
sg61
(dp4245
g71
I3
ssg63
(lp4246
g2404
asbasbasbag55
(g73
g57
Ntp4247
Rp4248
(dp4249
g69
g4035
sg61
(dp4250
sg63
(lp4251
g55
(g79
g57
Ntp4252
Rp4253
(dp4254
g69
g4248
sg61
(dp4255
g84
g85
ssg63
(lp4256
S'PATH_INFO'
p4257
asbag55
(g79
g57
Ntp4258
Rp4259
(dp4260
g69
g4248
sg61
(dp4261
g92
g93
ssg63
(lp4262
g95
asbag55
(g79
g57
Ntp4263
Rp4264
(dp4265
g69
g4248
sg61
(dp4266
sg63
(lp4267
g55
(g56
g57
Ntp4268
Rp4269
(dp4270
g69
g4264
sg61
(dp4271
g71
I3
ssg63
(lp4272
g2484
asbasbasbag55
(g73
g57
Ntp4273
Rp4274
(dp4275
g69
g4035
sg61
(dp4276
sg63
(lp4277
g55
(g79
g57
Ntp4278
Rp4279
(dp4280
g69
g4274
sg61
(dp4281
g84
g85
ssg63
(lp4282
S'QUERY_STRING'
p4283
asbag55
(g79
g57
Ntp4284
Rp4285
(dp4286
g69
g4274
sg61
(dp4287
g92
g93
ssg63
(lp4288
g95
asbag55
(g79
g57
Ntp4289
Rp4290
(dp4291
g69
g4274
sg61
(dp4292
sg63
(lp4293
g55
(g56
g57
Ntp4294
Rp4295
(dp4296
g69
g4290
sg61
(dp4297
g71
I3
ssg63
(lp4298
g2511
asbasbasbag55
(g73
g57
Ntp4299
Rp4300
(dp4301
g69
g4035
sg61
(dp4302
sg63
(lp4303
g55
(g79
g57
Ntp4304
Rp4305
(dp4306
g69
g4300
sg61
(dp4307
g84
g85
ssg63
(lp4308
S'REMOTE_ADDR'
p4309
asbag55
(g79
g57
Ntp4310
Rp4311
(dp4312
g69
g4300
sg61
(dp4313
g92
g93
ssg63
(lp4314
g95
asbag55
(g79
g57
Ntp4315
Rp4316
(dp4317
g69
g4300
sg61
(dp4318
sg63
(lp4319
g55
(g56
g57
Ntp4320
Rp4321
(dp4322
g69
g4316
sg61
(dp4323
g71
I3
ssg63
(lp4324
g281
asbasbasbag55
(g73
g57
Ntp4325
Rp4326
(dp4327
g69
g4035
sg61
(dp4328
sg63
(lp4329
g55
(g79
g57
Ntp4330
Rp4331
(dp4332
g69
g4326
sg61
(dp4333
g84
g85
ssg63
(lp4334
S'REMOTE_PORT'
p4335
asbag55
(g79
g57
Ntp4336
Rp4337
(dp4338
g69
g4326
sg61
(dp4339
g92
g93
ssg63
(lp4340
g95
asbag55
(g79
g57
Ntp4341
Rp4342
(dp4343
g69
g4326
sg61
(dp4344
sg63
(lp4345
g55
(g56
g57
Ntp4346
Rp4347
(dp4348
g69
g4342
sg61
(dp4349
g71
I3
ssg63
(lp4350
g2564
asbasbasbag55
(g73
g57
Ntp4351
Rp4352
(dp4353
g69
g4035
sg61
(dp4354
sg63
(lp4355
g55
(g79
g57
Ntp4356
Rp4357
(dp4358
g69
g4352
sg61
(dp4359
g84
g85
ssg63
(lp4360
S'REQUEST_METHOD'
p4361
asbag55
(g79
g57
Ntp4362
Rp4363
(dp4364
g69
g4352
sg61
(dp4365
g92
g93
ssg63
(lp4366
g95
asbag55
(g79
g57
Ntp4367
Rp4368
(dp4369
g69
g4352
sg61
(dp4370
sg63
(lp4371
g55
(g56
g57
Ntp4372
Rp4373
(dp4374
g69
g4368
sg61
(dp4375
g71
I3
ssg63
(lp4376
g2591
asbasbasbag55
(g73
g57
Ntp4377
Rp4378
(dp4379
g69
g4035
sg61
(dp4380
sg63
(lp4381
g55
(g79
g57
Ntp4382
Rp4383
(dp4384
g69
g4378
sg61
(dp4385
g84
g85
ssg63
(lp4386
S'SCRIPT_NAME'
p4387
asbag55
(g79
g57
Ntp4388
Rp4389
(dp4390
g69
g4378
sg61
(dp4391
g92
g93
ssg63
(lp4392
g95
asbag55
(g79
g57
Ntp4393
Rp4394
(dp4395
g69
g4378
sg61
(dp4396
sg63
(lp4397
g55
(g56
g57
Ntp4398
Rp4399
(dp4400
g69
g4394
sg61
(dp4401
g71
I3
ssg63
(lp4402
g2618
asbasbasbag55
(g73
g57
Ntp4403
Rp4404
(dp4405
g69
g4035
sg61
(dp4406
sg63
(lp4407
g55
(g79
g57
Ntp4408
Rp4409
(dp4410
g69
g4404
sg61
(dp4411
g84
g85
ssg63
(lp4412
S'SERVER_NAME'
p4413
asbag55
(g79
g57
Ntp4414
Rp4415
(dp4416
g69
g4404
sg61
(dp4417
g92
g93
ssg63
(lp4418
g95
asbag55
(g79
g57
Ntp4419
Rp4420
(dp4421
g69
g4404
sg61
(dp4422
sg63
(lp4423
g55
(g56
g57
Ntp4424
Rp4425
(dp4426
g69
g4420
sg61
(dp4427
g71
I3
ssg63
(lp4428
g2645
asbasbasbag55
(g73
g57
Ntp4429
Rp4430
(dp4431
g69
g4035
sg61
(dp4432
sg63
(lp4433
g55
(g79
g57
Ntp4434
Rp4435
(dp4436
g69
g4430
sg61
(dp4437
g84
g85
ssg63
(lp4438
S'SERVER_PORT'
p4439
asbag55
(g79
g57
Ntp4440
Rp4441
(dp4442
g69
g4430
sg61
(dp4443
g92
g93
ssg63
(lp4444
g95
asbag55
(g79
g57
Ntp4445
Rp4446
(dp4447
g69
g4430
sg61
(dp4448
sg63
(lp4449
g55
(g56
g57
Ntp4450
Rp4451
(dp4452
g69
g4446
sg61
(dp4453
g71
I3
ssg63
(lp4454
g2672
asbasbasbag55
(g73
g57
Ntp4455
Rp4456
(dp4457
g69
g4035
sg61
(dp4458
sg63
(lp4459
g55
(g79
g57
Ntp4460
Rp4461
(dp4462
g69
g4456
sg61
(dp4463
g84
g85
ssg63
(lp4464
S'SERVER_PROTOCOL'
p4465
asbag55
(g79
g57
Ntp4466
Rp4467
(dp4468
g69
g4456
sg61
(dp4469
g92
g93
ssg63
(lp4470
g95
asbag55
(g79
g57
Ntp4471
Rp4472
(dp4473
g69
g4456
sg61
(dp4474
sg63
(lp4475
g55
(g56
g57
Ntp4476
Rp4477
(dp4478
g69
g4472
sg61
(dp4479
g71
I3
ssg63
(lp4480
g2699
asbasbasbag55
(g73
g57
Ntp4481
Rp4482
(dp4483
g69
g4035
sg61
(dp4484
sg63
(lp4485
g55
(g79
g57
Ntp4486
Rp4487
(dp4488
g69
g4482
sg61
(dp4489
g84
g85
ssg63
(lp4490
S'SERVER_SOFTWARE'
p4491
asbag55
(g79
g57
Ntp4492
Rp4493
(dp4494
g69
g4482
sg61
(dp4495
g92
g93
ssg63
(lp4496
g95
asbag55
(g79
g57
Ntp4497
Rp4498
(dp4499
g69
g4482
sg61
(dp4500
sg63
(lp4501
g55
(g56
g57
Ntp4502
Rp4503
(dp4504
g69
g4498
sg61
(dp4505
g71
I3
ssg63
(lp4506
g2726
asbasbasbag55
(g73
g57
Ntp4507
Rp4508
(dp4509
g69
g4035
sg61
(dp4510
sg63
(lp4511
g55
(g79
g57
Ntp4512
Rp4513
(dp4514
g69
g4508
sg61
(dp4515
g84
g85
ssg63
(lp4516
S'wsgi.errors'
p4517
asbag55
(g79
g57
Ntp4518
Rp4519
(dp4520
g69
g4508
sg61
(dp4521
g92
g93
ssg63
(lp4522
g95
asbag55
(g79
g57
Ntp4523
Rp4524
(dp4525
g69
g4508
sg61
(dp4526
sg63
(lp4527
g55
(g56
g57
Ntp4528
Rp4529
(dp4530
g69
g4524
sg61
(dp4531
g71
I3
ssg63
(lp4532
S"<open file '<fdopen>', mode 'w' at 0x0000000002ed4b40>"
p4533
asbasbasbag55
(g73
g57
Ntp4534
Rp4535
(dp4536
g69
g4035
sg61
(dp4537
sg63
(lp4538
g55
(g79
g57
Ntp4539
Rp4540
(dp4541
g69
g4535
sg61
(dp4542
g84
g85
ssg63
(lp4543
S'wsgi.file_wrapper'
p4544
asbag55
(g79
g57
Ntp4545
Rp4546
(dp4547
g69
g4535
sg61
(dp4548
g92
g93
ssg63
(lp4549
g95
asbag55
(g79
g57
Ntp4550
Rp4551
(dp4552
g69
g4535
sg61
(dp4553
sg63
(lp4554
g55
(g56
g57
Ntp4555
Rp4556
(dp4557
g69
g4551
sg61
(dp4558
g71
I3
ssg63
(lp4559
S'<class wsgiref.util.FileWrapper at 0x0000000006f105c0>'
p4560
asbasbasbag55
(g73
g57
Ntp4561
Rp4562
(dp4563
g69
g4035
sg61
(dp4564
sg63
(lp4565
g55
(g79
g57
Ntp4566
Rp4567
(dp4568
g69
g4562
sg61
(dp4569
g84
g85
ssg63
(lp4570
S'wsgi.input'
p4571
asbag55
(g79
g57
Ntp4572
Rp4573
(dp4574
g69
g4562
sg61
(dp4575
g92
g93
ssg63
(lp4576
g95
asbag55
(g79
g57
Ntp4577
Rp4578
(dp4579
g69
g4562
sg61
(dp4580
sg63
(lp4581
g55
(g56
g57
Ntp4582
Rp4583
(dp4584
g69
g4578
sg61
(dp4585
g71
I3
ssg63
(lp4586
S'<cStringIO.StringO object at 0x00007f2b58cda330>'
p4587
asbasbasbag55
(g73
g57
Ntp4588
Rp4589
(dp4590
g69
g4035
sg61
(dp4591
sg63
(lp4592
g55
(g79
g57
Ntp4593
Rp4594
(dp4595
g69
g4589
sg61
(dp4596
g84
g85
ssg63
(lp4597
S'wsgi.multiprocess'
p4598
asbag55
(g79
g57
Ntp4599
Rp4600
(dp4601
g69
g4589
sg61
(dp4602
g92
g93
ssg63
(lp4603
g95
asbag55
(g79
g57
Ntp4604
Rp4605
(dp4606
g69
g4589
sg61
(dp4607
sg63
(lp4608
g55
(g56
g57
Ntp4609
Rp4610
(dp4611
g69
g4605
sg61
(dp4612
g71
I3
ssg63
(lp4613
g154
asbasbasbag55
(g73
g57
Ntp4614
Rp4615
(dp4616
g69
g4035
sg61
(dp4617
sg63
(lp4618
g55
(g79
g57
Ntp4619
Rp4620
(dp4621
g69
g4615
sg61
(dp4622
g84
g85
ssg63
(lp4623
S'wsgi.multithread'
p4624
asbag55
(g79
g57
Ntp4625
Rp4626
(dp4627
g69
g4615
sg61
(dp4628
g92
g93
ssg63
(lp4629
g95
asbag55
(g79
g57
Ntp4630
Rp4631
(dp4632
g69
g4615
sg61
(dp4633
sg63
(lp4634
g55
(g56
g57
Ntp4635
Rp4636
(dp4637
g69
g4631
sg61
(dp4638
g71
I3
ssg63
(lp4639
g2457
asbasbasbag55
(g73
g57
Ntp4640
Rp4641
(dp4642
g69
g4035
sg61
(dp4643
sg63
(lp4644
g55
(g79
g57
Ntp4645
Rp4646
(dp4647
g69
g4641
sg61
(dp4648
g84
g85
ssg63
(lp4649
S'wsgi.run_once'
p4650
asbag55
(g79
g57
Ntp4651
Rp4652
(dp4653
g69
g4641
sg61
(dp4654
g92
g93
ssg63
(lp4655
g95
asbag55
(g79
g57
Ntp4656
Rp4657
(dp4658
g69
g4641
sg61
(dp4659
sg63
(lp4660
g55
(g56
g57
Ntp4661
Rp4662
(dp4663
g69
g4657
sg61
(dp4664
g71
I3
ssg63
(lp4665
g154
asbasbasbag55
(g73
g57
Ntp4666
Rp4667
(dp4668
g69
g4035
sg61
(dp4669
sg63
(lp4670
g55
(g79
g57
Ntp4671
Rp4672
(dp4673
g69
g4667
sg61
(dp4674
g84
g85
ssg63
(lp4675
S'wsgi.url_scheme'
p4676
asbag55
(g79
g57
Ntp4677
Rp4678
(dp4679
g69
g4667
sg61
(dp4680
g92
g93
ssg63
(lp4681
g95
asbag55
(g79
g57
Ntp4682
Rp4683
(dp4684
g69
g4667
sg61
(dp4685
sg63
(lp4686
g55
(g56
g57
Ntp4687
Rp4688
(dp4689
g69
g4683
sg61
(dp4690
g71
I3
ssg63
(lp4691
g3076
asbasbasbag55
(g73
g57
Ntp4692
Rp4693
(dp4694
g69
g4035
sg61
(dp4695
sg63
(lp4696
g55
(g79
g57
Ntp4697
Rp4698
(dp4699
g69
g4693
sg61
(dp4700
g84
g85
ssg63
(lp4701
S'wsgi.version'
p4702
asbag55
(g79
g57
Ntp4703
Rp4704
(dp4705
g69
g4693
sg61
(dp4706
g92
g93
ssg63
(lp4707
g95
asbag55
(g79
g57
Ntp4708
Rp4709
(dp4710
g69
g4693
sg61
(dp4711
sg63
(lp4712
g55
(g56
g57
Ntp4713
Rp4714
(dp4715
g69
g4709
sg61
(dp4716
g71
I3
ssg63
(lp4717
S'1'
p4718
asbasbasbasbasbasbasbasbasbasbasbasbasbsS'response'
p4719
g55
(g56
g57
Ntp4720
Rp4721
(dp4722
g61
(dp4723
sg63
(lp4724
g55
(g65
g57
Ntp4725
Rp4726
(dp4727
g69
Nsg61
(dp4728
g71
I5
ssg63
(lp4729
g55
(g73
g57
Ntp4730
Rp4731
(dp4732
g69
g4726
sg61
(dp4733
sg63
(lp4734
g55
(g79
g57
Ntp4735
Rp4736
(dp4737
g69
g4731
sg61
(dp4738
g84
g85
ssg63
(lp4739
g238
asbag55
(g79
g57
Ntp4740
Rp4741
(dp4742
g69
g4731
sg61
(dp4743
g92
g93
ssg63
(lp4744
g95
asbag55
(g79
g57
Ntp4745
Rp4746
(dp4747
g69
g4731
sg61
(dp4748
sg63
(lp4749
g55
(g56
g57
Ntp4750
Rp4751
(dp4752
g69
g4746
sg61
(dp4753
g71
I5
ssg63
(lp4754
S'<cStringIO.StringO object at 0x00007f2b58cda100>'
p4755
asbasbasbag55
(g73
g57
Ntp4756
Rp4757
(dp4758
g69
g4726
sg61
(dp4759
sg63
(lp4760
g55
(g79
g57
Ntp4761
Rp4762
(dp4763
g69
g4757
sg61
(dp4764
g84
g85
ssg63
(lp4765
g319
asbag55
(g79
g57
Ntp4766
Rp4767
(dp4768
g69
g4757
sg61
(dp4769
g92
g93
ssg63
(lp4770
g95
asbag55
(g79
g57
Ntp4771
Rp4772
(dp4773
g69
g4757
sg61
(dp4774
sg63
(lp4775
g55
(g56
g57
Ntp4776
Rp4777
(dp4778
g69
g4772
sg61
(dp4779
g71
I5
ssg63
(lp4780
g55
(g65
g57
Ntp4781
Rp4782
(dp4783
g69
Nsg61
(dp4784
g71
I4
ssg63
(lp4785
g55
(g73
g57
Ntp4786
Rp4787
(dp4788
g69
g4782
sg61
(dp4789
sg63
(lp4790
g55
(g79
g57
Ntp4791
Rp4792
(dp4793
g69
g4787
sg61
(dp4794
g84
g85
ssg63
(lp4795
S'session_id_fragance'
p4796
asbag55
(g79
g57
Ntp4797
Rp4798
(dp4799
g69
g4787
sg61
(dp4800
g92
g93
ssg63
(lp4801
g95
asbag55
(g79
g57
Ntp4802
Rp4803
(dp4804
g69
g4787
sg61
(dp4805
sg63
(lp4806
g55
(g56
g57
Ntp4807
Rp4808
(dp4809
g69
g4803
sg61
(dp4810
g71
I4
ssg63
(lp4811
g55
(g65
g57
Ntp4812
Rp4813
(dp4814
g69
Nsg61
(dp4815
g71
I3
ssg63
(lp4816
g55
(g73
g57
Ntp4817
Rp4818
(dp4819
g69
g4813
sg61
(dp4820
sg63
(lp4821
g55
(g79
g57
Ntp4822
Rp4823
(dp4824
g69
g4818
sg61
(dp4825
g84
g85
ssg63
(lp4826
g381
asbag55
(g79
g57
Ntp4827
Rp4828
(dp4829
g69
g4818
sg61
(dp4830
g92
g93
ssg63
(lp4831
g95
asbag55
(g79
g57
Ntp4832
Rp4833
(dp4834
g69
g4818
sg61
(dp4835
sg63
(lp4836
g55
(g56
g57
Ntp4837
Rp4838
(dp4839
g69
g4833
sg61
(dp4840
g71
I3
ssg63
(lp4841
g397
asbasbasbag55
(g73
g57
Ntp4842
Rp4843
(dp4844
g69
g4813
sg61
(dp4845
sg63
(lp4846
g55
(g79
g57
Ntp4847
Rp4848
(dp4849
g69
g4843
sg61
(dp4850
g84
g85
ssg63
(lp4851
g408
asbag55
(g79
g57
Ntp4852
Rp4853
(dp4854
g69
g4843
sg61
(dp4855
g92
g93
ssg63
(lp4856
g95
asbag55
(g79
g57
Ntp4857
Rp4858
(dp4859
g69
g4843
sg61
(dp4860
sg63
(lp4861
g55
(g56
g57
Ntp4862
Rp4863
(dp4864
g69
g4858
sg61
(dp4865
g71
I3
ssg63
(lp4866
g397
asbasbasbag55
(g73
g57
Ntp4867
Rp4868
(dp4869
g69
g4813
sg61
(dp4870
sg63
(lp4871
g55
(g79
g57
Ntp4872
Rp4873
(dp4874
g69
g4868
sg61
(dp4875
g84
g85
ssg63
(lp4876
g434
asbag55
(g79
g57
Ntp4877
Rp4878
(dp4879
g69
g4868
sg61
(dp4880
g92
g93
ssg63
(lp4881
g95
asbag55
(g79
g57
Ntp4882
Rp4883
(dp4884
g69
g4868
sg61
(dp4885
sg63
(lp4886
g55
(g56
g57
Ntp4887
Rp4888
(dp4889
g69
g4883
sg61
(dp4890
g71
I3
ssg63
(lp4891
g397
asbasbasbag55
(g73
g57
Ntp4892
Rp4893
(dp4894
g69
g4813
sg61
(dp4895
sg63
(lp4896
g55
(g79
g57
Ntp4897
Rp4898
(dp4899
g69
g4893
sg61
(dp4900
g84
g85
ssg63
(lp4901
g460
asbag55
(g79
g57
Ntp4902
Rp4903
(dp4904
g69
g4893
sg61
(dp4905
g92
g93
ssg63
(lp4906
g95
asbag55
(g79
g57
Ntp4907
Rp4908
(dp4909
g69
g4893
sg61
(dp4910
sg63
(lp4911
g55
(g56
g57
Ntp4912
Rp4913
(dp4914
g69
g4908
sg61
(dp4915
g71
I3
ssg63
(lp4916
g397
asbasbasbag55
(g73
g57
Ntp4917
Rp4918
(dp4919
g69
g4813
sg61
(dp4920
sg63
(lp4921
g55
(g79
g57
Ntp4922
Rp4923
(dp4924
g69
g4918
sg61
(dp4925
g84
g85
ssg63
(lp4926
g486
asbag55
(g79
g57
Ntp4927
Rp4928
(dp4929
g69
g4918
sg61
(dp4930
g92
g93
ssg63
(lp4931
g95
asbag55
(g79
g57
Ntp4932
Rp4933
(dp4934
g69
g4918
sg61
(dp4935
sg63
(lp4936
g55
(g56
g57
Ntp4937
Rp4938
(dp4939
g69
g4933
sg61
(dp4940
g71
I3
ssg63
(lp4941
g397
asbasbasbag55
(g73
g57
Ntp4942
Rp4943
(dp4944
g69
g4813
sg61
(dp4945
sg63
(lp4946
g55
(g79
g57
Ntp4947
Rp4948
(dp4949
g69
g4943
sg61
(dp4950
g84
g85
ssg63
(lp4951
g512
asbag55
(g79
g57
Ntp4952
Rp4953
(dp4954
g69
g4943
sg61
(dp4955
g92
g93
ssg63
(lp4956
g95
asbag55
(g79
g57
Ntp4957
Rp4958
(dp4959
g69
g4943
sg61
(dp4960
sg63
(lp4961
g55
(g56
g57
Ntp4962
Rp4963
(dp4964
g69
g4958
sg61
(dp4965
g71
I3
ssg63
(lp4966
S'/'
p4967
asbasbasbag55
(g73
g57
Ntp4968
Rp4969
(dp4970
g69
g4813
sg61
(dp4971
sg63
(lp4972
g55
(g79
g57
Ntp4973
Rp4974
(dp4975
g69
g4969
sg61
(dp4976
g84
g85
ssg63
(lp4977
g538
asbag55
(g79
g57
Ntp4978
Rp4979
(dp4980
g69
g4969
sg61
(dp4981
g92
g93
ssg63
(lp4982
g95
asbag55
(g79
g57
Ntp4983
Rp4984
(dp4985
g69
g4969
sg61
(dp4986
sg63
(lp4987
g55
(g56
g57
Ntp4988
Rp4989
(dp4990
g69
g4984
sg61
(dp4991
g71
I3
ssg63
(lp4992
g397
asbasbasbag55
(g73
g57
Ntp4993
Rp4994
(dp4995
g69
g4813
sg61
(dp4996
sg63
(lp4997
g55
(g79
g57
Ntp4998
Rp4999
(dp5000
g69
g4994
sg61
(dp5001
g84
g85
ssg63
(lp5002
g564
asbag55
(g79
g57
Ntp5003
Rp5004
(dp5005
g69
g4994
sg61
(dp5006
g92
g93
ssg63
(lp5007
g95
asbag55
(g79
g57
Ntp5008
Rp5009
(dp5010
g69
g4994
sg61
(dp5011
sg63
(lp5012
g55
(g56
g57
Ntp5013
Rp5014
(dp5015
g69
g5009
sg61
(dp5016
g71
I3
ssg63
(lp5017
g397
asbasbasbasbasbasbasbasbasbasbasbag55
(g73
g57
Ntp5018
Rp5019
(dp5020
g69
g4726
sg61
(dp5021
sg63
(lp5022
g55
(g79
g57
Ntp5023
Rp5024
(dp5025
g69
g5019
sg61
(dp5026
g84
g85
ssg63
(lp5027
S'delimiters'
p5028
asbag55
(g79
g57
Ntp5029
Rp5030
(dp5031
g69
g5019
sg61
(dp5032
g92
g93
ssg63
(lp5033
g95
asbag55
(g79
g57
Ntp5034
Rp5035
(dp5036
g69
g5019
sg61
(dp5037
sg63
(lp5038
g55
(g56
g57
Ntp5039
Rp5040
(dp5041
g69
g5035
sg61
(dp5042
g71
I5
ssg63
(lp5043
g55
(g65
g57
Ntp5044
Rp5045
(dp5046
g69
Nsg61
(dp5047
g71
I4
ssg63
(lp5048
g55
(g73
g57
Ntp5049
Rp5050
(dp5051
g69
g5045
sg61
(dp5052
sg63
(lp5053
g55
(g79
g57
Ntp5054
Rp5055
(dp5056
g69
g5050
sg61
(dp5057
sg63
(lp5058
g55
(g56
g57
Ntp5059
Rp5060
(dp5061
g69
g5055
sg61
(dp5062
g71
I4
ssg63
(lp5063
S'{{'
p5064
asbasbasbag55
(g73
g57
Ntp5065
Rp5066
(dp5067
g69
g5045
sg61
(dp5068
sg63
(lp5069
g55
(g79
g57
Ntp5070
Rp5071
(dp5072
g69
g5066
sg61
(dp5073
sg63
(lp5074
g55
(g56
g57
Ntp5075
Rp5076
(dp5077
g69
g5071
sg61
(dp5078
g71
I4
ssg63
(lp5079
S'}}'
p5080
asbasbasbasbasbasbasbag55
(g73
g57
Ntp5081
Rp5082
(dp5083
g69
g4726
sg61
(dp5084
sg63
(lp5085
g55
(g79
g57
Ntp5086
Rp5087
(dp5088
g69
g5082
sg61
(dp5089
g84
g85
ssg63
(lp5090
S'files'
p5091
asbag55
(g79
g57
Ntp5092
Rp5093
(dp5094
g69
g5082
sg61
(dp5095
g92
g93
ssg63
(lp5096
g95
asbag55
(g79
g57
Ntp5097
Rp5098
(dp5099
g69
g5082
sg61
(dp5100
sg63
(lp5101
g55
(g56
g57
Ntp5102
Rp5103
(dp5104
g69
g5098
sg61
(dp5105
g71
I5
ssg63
(lp5106
g55
(g65
g57
Ntp5107
Rp5108
(dp5109
g69
Nsg61
(dp5110
g71
I4
ssg63
(lp5111
sbasbasbasbag55
(g73
g57
Ntp5112
Rp5113
(dp5114
g69
g4726
sg61
(dp5115
sg63
(lp5116
g55
(g79
g57
Ntp5117
Rp5118
(dp5119
g69
g5113
sg61
(dp5120
g84
g85
ssg63
(lp5121
S'flash'
p5122
asbag55
(g79
g57
Ntp5123
Rp5124
(dp5125
g69
g5113
sg61
(dp5126
g92
g93
ssg63
(lp5127
g95
asbag55
(g79
g57
Ntp5128
Rp5129
(dp5130
g69
g5113
sg61
(dp5131
sg63
(lp5132
g55
(g56
g57
Ntp5133
Rp5134
(dp5135
g69
g5129
sg61
(dp5136
g71
I5
ssg63
(lp5137
S''
p5138
asbasbasbag55
(g73
g57
Ntp5139
Rp5140
(dp5141
g69
g4726
sg61
(dp5142
sg63
(lp5143
g55
(g79
g57
Ntp5144
Rp5145
(dp5146
g69
g5140
sg61
(dp5147
g84
g85
ssg63
(lp5148
S'generic_patterns'
p5149
asbag55
(g79
g57
Ntp5150
Rp5151
(dp5152
g69
g5140
sg61
(dp5153
g92
g93
ssg63
(lp5154
g95
asbag55
(g79
g57
Ntp5155
Rp5156
(dp5157
g69
g5140
sg61
(dp5158
sg63
(lp5159
g55
(g56
g57
Ntp5160
Rp5161
(dp5162
g69
g5156
sg61
(dp5163
g71
I5
ssg63
(lp5164
g55
(g65
g57
Ntp5165
Rp5166
(dp5167
g69
Nsg61
(dp5168
g71
I4
ssg63
(lp5169
g55
(g73
g57
Ntp5170
Rp5171
(dp5172
g69
g5166
sg61
(dp5173
sg63
(lp5174
g55
(g79
g57
Ntp5175
Rp5176
(dp5177
g69
g5171
sg61
(dp5178
sg63
(lp5179
g55
(g56
g57
Ntp5180
Rp5181
(dp5182
g69
g5176
sg61
(dp5183
g71
I4
ssg63
(lp5184
S'*'
p5185
asbasbasbasbasbasbasbag55
(g73
g57
Ntp5186
Rp5187
(dp5188
g69
g4726
sg61
(dp5189
sg63
(lp5190
g55
(g79
g57
Ntp5191
Rp5192
(dp5193
g69
g5187
sg61
(dp5194
g84
g85
ssg63
(lp5195
S'headers'
p5196
asbag55
(g79
g57
Ntp5197
Rp5198
(dp5199
g69
g5187
sg61
(dp5200
g92
g93
ssg63
(lp5201
g95
asbag55
(g79
g57
Ntp5202
Rp5203
(dp5204
g69
g5187
sg61
(dp5205
sg63
(lp5206
g55
(g56
g57
Ntp5207
Rp5208
(dp5209
g69
g5203
sg61
(dp5210
g71
I5
ssg63
(lp5211
g55
(g65
g57
Ntp5212
Rp5213
(dp5214
g69
Nsg61
(dp5215
g71
I4
ssg63
(lp5216
g55
(g73
g57
Ntp5217
Rp5218
(dp5219
g69
g5213
sg61
(dp5220
sg63
(lp5221
g55
(g79
g57
Ntp5222
Rp5223
(dp5224
g69
g5218
sg61
(dp5225
g84
g85
ssg63
(lp5226
S'Cache-Control'
p5227
asbag55
(g79
g57
Ntp5228
Rp5229
(dp5230
g69
g5218
sg61
(dp5231
g92
g93
ssg63
(lp5232
g95
asbag55
(g79
g57
Ntp5233
Rp5234
(dp5235
g69
g5218
sg61
(dp5236
sg63
(lp5237
g55
(g56
g57
Ntp5238
Rp5239
(dp5240
g69
g5234
sg61
(dp5241
g71
I4
ssg63
(lp5242
S'no-store, no-cache, must-revalidate, post-check=0, pre-check=0'
p5243
asbasbasbag55
(g73
g57
Ntp5244
Rp5245
(dp5246
g69
g5213
sg61
(dp5247
sg63
(lp5248
g55
(g79
g57
Ntp5249
Rp5250
(dp5251
g69
g5245
sg61
(dp5252
g84
g85
ssg63
(lp5253
S'Content-Type'
p5254
asbag55
(g79
g57
Ntp5255
Rp5256
(dp5257
g69
g5245
sg61
(dp5258
g92
g93
ssg63
(lp5259
g95
asbag55
(g79
g57
Ntp5260
Rp5261
(dp5262
g69
g5245
sg61
(dp5263
sg63
(lp5264
g55
(g56
g57
Ntp5265
Rp5266
(dp5267
g69
g5261
sg61
(dp5268
g71
I4
ssg63
(lp5269
S'text/csv; charset=utf-8'
p5270
asbasbasbag55
(g73
g57
Ntp5271
Rp5272
(dp5273
g69
g5213
sg61
(dp5274
sg63
(lp5275
g55
(g79
g57
Ntp5276
Rp5277
(dp5278
g69
g5272
sg61
(dp5279
g84
g85
ssg63
(lp5280
S'Content-disposition'
p5281
asbag55
(g79
g57
Ntp5282
Rp5283
(dp5284
g69
g5272
sg61
(dp5285
g92
g93
ssg63
(lp5286
g95
asbag55
(g79
g57
Ntp5287
Rp5288
(dp5289
g69
g5272
sg61
(dp5290
sg63
(lp5291
g55
(g56
g57
Ntp5292
Rp5293
(dp5294
g69
g5288
sg61
(dp5295
g71
I4
ssg63
(lp5296
S'attachment; filename=db_articulo.csv'
p5297
asbasbasbag55
(g73
g57
Ntp5298
Rp5299
(dp5300
g69
g5213
sg61
(dp5301
sg63
(lp5302
g55
(g79
g57
Ntp5303
Rp5304
(dp5305
g69
g5299
sg61
(dp5306
g84
g85
ssg63
(lp5307
S'Expires'
p5308
asbag55
(g79
g57
Ntp5309
Rp5310
(dp5311
g69
g5299
sg61
(dp5312
g92
g93
ssg63
(lp5313
g95
asbag55
(g79
g57
Ntp5314
Rp5315
(dp5316
g69
g5299
sg61
(dp5317
sg63
(lp5318
g55
(g56
g57
Ntp5319
Rp5320
(dp5321
g69
g5315
sg61
(dp5322
g71
I4
ssg63
(lp5323
S'Wed, 14 Mar 2012 15:13:23 GMT'
p5324
asbasbasbag55
(g73
g57
Ntp5325
Rp5326
(dp5327
g69
g5213
sg61
(dp5328
sg63
(lp5329
g55
(g79
g57
Ntp5330
Rp5331
(dp5332
g69
g5326
sg61
(dp5333
g84
g85
ssg63
(lp5334
S'Pragma'
p5335
asbag55
(g79
g57
Ntp5336
Rp5337
(dp5338
g69
g5326
sg61
(dp5339
g92
g93
ssg63
(lp5340
g95
asbag55
(g79
g57
Ntp5341
Rp5342
(dp5343
g69
g5326
sg61
(dp5344
sg63
(lp5345
g55
(g56
g57
Ntp5346
Rp5347
(dp5348
g69
g5342
sg61
(dp5349
g71
I4
ssg63
(lp5350
S'no-cache'
p5351
asbasbasbag55
(g73
g57
Ntp5352
Rp5353
(dp5354
g69
g5213
sg61
(dp5355
sg63
(lp5356
g55
(g79
g57
Ntp5357
Rp5358
(dp5359
g69
g5353
sg61
(dp5360
g84
g85
ssg63
(lp5361
S'X-Powered-By'
p5362
asbag55
(g79
g57
Ntp5363
Rp5364
(dp5365
g69
g5353
sg61
(dp5366
g92
g93
ssg63
(lp5367
g95
asbag55
(g79
g57
Ntp5368
Rp5369
(dp5370
g69
g5353
sg61
(dp5371
sg63
(lp5372
g55
(g56
g57
Ntp5373
Rp5374
(dp5375
g69
g5369
sg61
(dp5376
g71
I4
ssg63
(lp5377
S'web2py'
p5378
asbasbasbasbasbasbasbag55
(g73
g57
Ntp5379
Rp5380
(dp5381
g69
g4726
sg61
(dp5382
sg63
(lp5383
g55
(g79
g57
Ntp5384
Rp5385
(dp5386
g69
g5380
sg61
(dp5387
g84
g85
ssg63
(lp5388
S'menu'
p5389
asbag55
(g79
g57
Ntp5390
Rp5391
(dp5392
g69
g5380
sg61
(dp5393
g92
g93
ssg63
(lp5394
g95
asbag55
(g79
g57
Ntp5395
Rp5396
(dp5397
g69
g5380
sg61
(dp5398
sg63
(lp5399
g55
(g56
g57
Ntp5400
Rp5401
(dp5402
g69
g5396
sg61
(dp5403
g71
I5
ssg63
(lp5404
g55
(g65
g57
Ntp5405
Rp5406
(dp5407
g69
Nsg61
(dp5408
g71
I4
ssg63
(lp5409
g55
(g73
g57
Ntp5410
Rp5411
(dp5412
g69
g5406
sg61
(dp5413
sg63
(lp5414
g55
(g79
g57
Ntp5415
Rp5416
(dp5417
g69
g5411
sg61
(dp5418
sg63
(lp5419
g55
(g56
g57
Ntp5420
Rp5421
(dp5422
g69
g5416
sg61
(dp5423
g71
I4
ssg63
(lp5424
g55
(g65
g57
Ntp5425
Rp5426
(dp5427
g69
Nsg61
(dp5428
g71
I3
ssg63
(lp5429
g55
(g73
g57
Ntp5430
Rp5431
(dp5432
g69
g5426
sg61
(dp5433
sg63
(lp5434
g55
(g79
g57
Ntp5435
Rp5436
(dp5437
g69
g5431
sg61
(dp5438
sg63
(lp5439
g55
(g56
g57
Ntp5440
Rp5441
(dp5442
g69
g5436
sg61
(dp5443
g71
I3
ssg63
(lp5444
cgluon.languages
lazyT_unpickle
p5445
(S's\x06\x00\x00\x00design'
p5446
tp5447
Rp5448
asbasbasbag55
(g73
g57
Ntp5449
Rp5450
(dp5451
g69
g5426
sg61
(dp5452
sg63
(lp5453
g55
(g79
g57
Ntp5454
Rp5455
(dp5456
g69
g5450
sg61
(dp5457
sg63
(lp5458
g55
(g56
g57
Ntp5459
Rp5460
(dp5461
g69
g5455
sg61
(dp5462
g71
I3
ssg63
(lp5463
g154
asbasbasbag55
(g73
g57
Ntp5464
Rp5465
(dp5466
g69
g5426
sg61
(dp5467
sg63
(lp5468
g55
(g79
g57
Ntp5469
Rp5470
(dp5471
g69
g5465
sg61
(dp5472
sg63
(lp5473
g55
(g56
g57
Ntp5474
Rp5475
(dp5476
g69
g5470
sg61
(dp5477
g71
I3
ssg63
(lp5478
S'/admin/default/design/fragance'
p5479
asbasbasbasbasbasbasbag55
(g73
g57
Ntp5480
Rp5481
(dp5482
g69
g5406
sg61
(dp5483
sg63
(lp5484
g55
(g79
g57
Ntp5485
Rp5486
(dp5487
g69
g5481
sg61
(dp5488
sg63
(lp5489
g55
(g56
g57
Ntp5490
Rp5491
(dp5492
g69
g5486
sg61
(dp5493
g71
I4
ssg63
(lp5494
g55
(g65
g57
Ntp5495
Rp5496
(dp5497
g69
Nsg61
(dp5498
g71
I3
ssg63
(lp5499
g55
(g73
g57
Ntp5500
Rp5501
(dp5502
g69
g5496
sg61
(dp5503
sg63
(lp5504
g55
(g79
g57
Ntp5505
Rp5506
(dp5507
g69
g5501
sg61
(dp5508
sg63
(lp5509
g55
(g56
g57
Ntp5510
Rp5511
(dp5512
g69
g5506
sg61
(dp5513
g71
I3
ssg63
(lp5514
g5445
(S's\x02\x00\x00\x00db'
p5515
tp5516
Rp5517
asbasbasbag55
(g73
g57
Ntp5518
Rp5519
(dp5520
g69
g5496
sg61
(dp5521
sg63
(lp5522
g55
(g79
g57
Ntp5523
Rp5524
(dp5525
g69
g5519
sg61
(dp5526
sg63
(lp5527
g55
(g56
g57
Ntp5528
Rp5529
(dp5530
g69
g5524
sg61
(dp5531
g71
I3
ssg63
(lp5532
g154
asbasbasbag55
(g73
g57
Ntp5533
Rp5534
(dp5535
g69
g5496
sg61
(dp5536
sg63
(lp5537
g55
(g79
g57
Ntp5538
Rp5539
(dp5540
g69
g5534
sg61
(dp5541
sg63
(lp5542
g55
(g56
g57
Ntp5543
Rp5544
(dp5545
g69
g5539
sg61
(dp5546
g71
I3
ssg63
(lp5547
S'/fragance/appadmin/index'
p5548
asbasbasbasbasbasbasbag55
(g73
g57
Ntp5549
Rp5550
(dp5551
g69
g5406
sg61
(dp5552
sg63
(lp5553
g55
(g79
g57
Ntp5554
Rp5555
(dp5556
g69
g5550
sg61
(dp5557
sg63
(lp5558
g55
(g56
g57
Ntp5559
Rp5560
(dp5561
g69
g5555
sg61
(dp5562
g71
I4
ssg63
(lp5563
g55
(g65
g57
Ntp5564
Rp5565
(dp5566
g69
Nsg61
(dp5567
g71
I3
ssg63
(lp5568
g55
(g73
g57
Ntp5569
Rp5570
(dp5571
g69
g5565
sg61
(dp5572
sg63
(lp5573
g55
(g79
g57
Ntp5574
Rp5575
(dp5576
g69
g5570
sg61
(dp5577
sg63
(lp5578
g55
(g56
g57
Ntp5579
Rp5580
(dp5581
g69
g5575
sg61
(dp5582
g71
I3
ssg63
(lp5583
g5445
(S's\x05\x00\x00\x00state'
p5584
tp5585
Rp5586
asbasbasbag55
(g73
g57
Ntp5587
Rp5588
(dp5589
g69
g5565
sg61
(dp5590
sg63
(lp5591
g55
(g79
g57
Ntp5592
Rp5593
(dp5594
g69
g5588
sg61
(dp5595
sg63
(lp5596
g55
(g56
g57
Ntp5597
Rp5598
(dp5599
g69
g5593
sg61
(dp5600
g71
I3
ssg63
(lp5601
g154
asbasbasbag55
(g73
g57
Ntp5602
Rp5603
(dp5604
g69
g5565
sg61
(dp5605
sg63
(lp5606
g55
(g79
g57
Ntp5607
Rp5608
(dp5609
g69
g5603
sg61
(dp5610
sg63
(lp5611
g55
(g56
g57
Ntp5612
Rp5613
(dp5614
g69
g5608
sg61
(dp5615
g71
I3
ssg63
(lp5616
S'/fragance/appadmin/state'
p5617
asbasbasbasbasbasbasbag55
(g73
g57
Ntp5618
Rp5619
(dp5620
g69
g5406
sg61
(dp5621
sg63
(lp5622
g55
(g79
g57
Ntp5623
Rp5624
(dp5625
g69
g5619
sg61
(dp5626
sg63
(lp5627
g55
(g56
g57
Ntp5628
Rp5629
(dp5630
g69
g5624
sg61
(dp5631
g71
I4
ssg63
(lp5632
g55
(g65
g57
Ntp5633
Rp5634
(dp5635
g69
Nsg61
(dp5636
g71
I3
ssg63
(lp5637
g55
(g73
g57
Ntp5638
Rp5639
(dp5640
g69
g5634
sg61
(dp5641
sg63
(lp5642
g55
(g79
g57
Ntp5643
Rp5644
(dp5645
g69
g5639
sg61
(dp5646
sg63
(lp5647
g55
(g56
g57
Ntp5648
Rp5649
(dp5650
g69
g5644
sg61
(dp5651
g71
I3
ssg63
(lp5652
g5445
(S's\x05\x00\x00\x00cache'
p5653
tp5654
Rp5655
asbasbasbag55
(g73
g57
Ntp5656
Rp5657
(dp5658
g69
g5634
sg61
(dp5659
sg63
(lp5660
g55
(g79
g57
Ntp5661
Rp5662
(dp5663
g69
g5657
sg61
(dp5664
sg63
(lp5665
g55
(g56
g57
Ntp5666
Rp5667
(dp5668
g69
g5662
sg61
(dp5669
g71
I3
ssg63
(lp5670
g154
asbasbasbag55
(g73
g57
Ntp5671
Rp5672
(dp5673
g69
g5634
sg61
(dp5674
sg63
(lp5675
g55
(g79
g57
Ntp5676
Rp5677
(dp5678
g69
g5672
sg61
(dp5679
sg63
(lp5680
g55
(g56
g57
Ntp5681
Rp5682
(dp5683
g69
g5677
sg61
(dp5684
g71
I3
ssg63
(lp5685
S'/fragance/appadmin/ccache'
p5686
asbasbasbasbasbasbasbasbasbasbasbag55
(g73
g57
Ntp5687
Rp5688
(dp5689
g69
g4726
sg61
(dp5690
sg63
(lp5691
g55
(g79
g57
Ntp5692
Rp5693
(dp5694
g69
g5688
sg61
(dp5695
g84
g85
ssg63
(lp5696
S'meta'
p5697
asbag55
(g79
g57
Ntp5698
Rp5699
(dp5700
g69
g5688
sg61
(dp5701
g92
g93
ssg63
(lp5702
g95
asbag55
(g79
g57
Ntp5703
Rp5704
(dp5705
g69
g5688
sg61
(dp5706
sg63
(lp5707
g55
(g56
g57
Ntp5708
Rp5709
(dp5710
g69
g5704
sg61
(dp5711
g71
I5
ssg63
(lp5712
g55
(g65
g57
Ntp5713
Rp5714
(dp5715
g69
Nsg61
(dp5716
g71
I4
ssg63
(lp5717
g55
(g73
g57
Ntp5718
Rp5719
(dp5720
g69
g5714
sg61
(dp5721
sg63
(lp5722
g55
(g79
g57
Ntp5723
Rp5724
(dp5725
g69
g5719
sg61
(dp5726
g84
g85
ssg63
(lp5727
S'author'
p5728
asbag55
(g79
g57
Ntp5729
Rp5730
(dp5731
g69
g5719
sg61
(dp5732
g92
g93
ssg63
(lp5733
g95
asbag55
(g79
g57
Ntp5734
Rp5735
(dp5736
g69
g5719
sg61
(dp5737
sg63
(lp5738
g55
(g56
g57
Ntp5739
Rp5740
(dp5741
g69
g5735
sg61
(dp5742
g71
I4
ssg63
(lp5743
S'Your Name <you@example.com>'
p5744
asbasbasbag55
(g73
g57
Ntp5745
Rp5746
(dp5747
g69
g5714
sg61
(dp5748
sg63
(lp5749
g55
(g79
g57
Ntp5750
Rp5751
(dp5752
g69
g5746
sg61
(dp5753
g84
g85
ssg63
(lp5754
S'copyright'
p5755
asbag55
(g79
g57
Ntp5756
Rp5757
(dp5758
g69
g5746
sg61
(dp5759
g92
g93
ssg63
(lp5760
g95
asbag55
(g79
g57
Ntp5761
Rp5762
(dp5763
g69
g5746
sg61
(dp5764
sg63
(lp5765
g55
(g56
g57
Ntp5766
Rp5767
(dp5768
g69
g5762
sg61
(dp5769
g71
I4
ssg63
(lp5770
S'Copyright 2011'
p5771
asbasbasbag55
(g73
g57
Ntp5772
Rp5773
(dp5774
g69
g5714
sg61
(dp5775
sg63
(lp5776
g55
(g79
g57
Ntp5777
Rp5778
(dp5779
g69
g5773
sg61
(dp5780
g84
g85
ssg63
(lp5781
S'description'
p5782
asbag55
(g79
g57
Ntp5783
Rp5784
(dp5785
g69
g5773
sg61
(dp5786
g92
g93
ssg63
(lp5787
g95
asbag55
(g79
g57
Ntp5788
Rp5789
(dp5790
g69
g5773
sg61
(dp5791
sg63
(lp5792
g55
(g56
g57
Ntp5793
Rp5794
(dp5795
g69
g5789
sg61
(dp5796
g71
I4
ssg63
(lp5797
S'a cool new app'
p5798
asbasbasbag55
(g73
g57
Ntp5799
Rp5800
(dp5801
g69
g5714
sg61
(dp5802
sg63
(lp5803
g55
(g79
g57
Ntp5804
Rp5805
(dp5806
g69
g5800
sg61
(dp5807
g84
g85
ssg63
(lp5808
S'generator'
p5809
asbag55
(g79
g57
Ntp5810
Rp5811
(dp5812
g69
g5800
sg61
(dp5813
g92
g93
ssg63
(lp5814
g95
asbag55
(g79
g57
Ntp5815
Rp5816
(dp5817
g69
g5800
sg61
(dp5818
sg63
(lp5819
g55
(g56
g57
Ntp5820
Rp5821
(dp5822
g69
g5816
sg61
(dp5823
g71
I4
ssg63
(lp5824
S'Web2py Web Framework'
p5825
asbasbasbag55
(g73
g57
Ntp5826
Rp5827
(dp5828
g69
g5714
sg61
(dp5829
sg63
(lp5830
g55
(g79
g57
Ntp5831
Rp5832
(dp5833
g69
g5827
sg61
(dp5834
g84
g85
ssg63
(lp5835
S'keywords'
p5836
asbag55
(g79
g57
Ntp5837
Rp5838
(dp5839
g69
g5827
sg61
(dp5840
g92
g93
ssg63
(lp5841
g95
asbag55
(g79
g57
Ntp5842
Rp5843
(dp5844
g69
g5827
sg61
(dp5845
sg63
(lp5846
g55
(g56
g57
Ntp5847
Rp5848
(dp5849
g69
g5843
sg61
(dp5850
g71
I4
ssg63
(lp5851
S'web2py, python, framework'
p5852
asbasbasbasbasbasbasbag55
(g73
g57
Ntp5853
Rp5854
(dp5855
g69
g4726
sg61
(dp5856
sg63
(lp5857
g55
(g79
g57
Ntp5858
Rp5859
(dp5860
g69
g5854
sg61
(dp5861
g84
g85
ssg63
(lp5862
S'postprocessing'
p5863
asbag55
(g79
g57
Ntp5864
Rp5865
(dp5866
g69
g5854
sg61
(dp5867
g92
g93
ssg63
(lp5868
g95
asbag55
(g79
g57
Ntp5869
Rp5870
(dp5871
g69
g5854
sg61
(dp5872
sg63
(lp5873
g55
(g56
g57
Ntp5874
Rp5875
(dp5876
g69
g5870
sg61
(dp5877
g71
I5
ssg63
(lp5878
g55
(g65
g57
Ntp5879
Rp5880
(dp5881
g69
Nsg61
(dp5882
g71
I4
ssg63
(lp5883
sbasbasbasbag55
(g73
g57
Ntp5884
Rp5885
(dp5886
g69
g4726
sg61
(dp5887
sg63
(lp5888
g55
(g79
g57
Ntp5889
Rp5890
(dp5891
g69
g5885
sg61
(dp5892
g84
g85
ssg63
(lp5893
S'session_file'
p5894
asbag55
(g79
g57
Ntp5895
Rp5896
(dp5897
g69
g5885
sg61
(dp5898
g92
g93
ssg63
(lp5899
g95
asbag55
(g79
g57
Ntp5900
Rp5901
(dp5902
g69
g5885
sg61
(dp5903
sg63
(lp5904
g55
(g56
g57
Ntp5905
Rp5906
(dp5907
g69
g5901
sg61
(dp5908
g71
I5
ssg63
(lp5909
S"<open file '/home/marco/projects/milanel/web2py/applications/fragance/sessions/127.0.0.1-4c183531-58d1-419b-bed0-c56856f380cb', mode 'rb+' at 0x00000000063467d8>"
p5910
asbasbasbag55
(g73
g57
Ntp5911
Rp5912
(dp5913
g69
g4726
sg61
(dp5914
sg63
(lp5915
g55
(g79
g57
Ntp5916
Rp5917
(dp5918
g69
g5912
sg61
(dp5919
g84
g85
ssg63
(lp5920
S'session_filename'
p5921
asbag55
(g79
g57
Ntp5922
Rp5923
(dp5924
g69
g5912
sg61
(dp5925
g92
g93
ssg63
(lp5926
g95
asbag55
(g79
g57
Ntp5927
Rp5928
(dp5929
g69
g5912
sg61
(dp5930
sg63
(lp5931
g55
(g56
g57
Ntp5932
Rp5933
(dp5934
g69
g5928
sg61
(dp5935
g71
I5
ssg63
(lp5936
S'/home/marco/projects/milanel/web2py/applications/fragance/sessions/127.0.0.1-4c183531-58d1-419b-bed0-c56856f380cb'
p5937
asbasbasbag55
(g73
g57
Ntp5938
Rp5939
(dp5940
g69
g4726
sg61
(dp5941
sg63
(lp5942
g55
(g79
g57
Ntp5943
Rp5944
(dp5945
g69
g5939
sg61
(dp5946
g84
g85
ssg63
(lp5947
S'session_id'
p5948
asbag55
(g79
g57
Ntp5949
Rp5950
(dp5951
g69
g5939
sg61
(dp5952
g92
g93
ssg63
(lp5953
g95
asbag55
(g79
g57
Ntp5954
Rp5955
(dp5956
g69
g5939
sg61
(dp5957
sg63
(lp5958
g55
(g56
g57
Ntp5959
Rp5960
(dp5961
g69
g5955
sg61
(dp5962
g71
I5
ssg63
(lp5963
S'127.0.0.1-4c183531-58d1-419b-bed0-c56856f380cb'
p5964
asbasbasbag55
(g73
g57
Ntp5965
Rp5966
(dp5967
g69
g4726
sg61
(dp5968
sg63
(lp5969
g55
(g79
g57
Ntp5970
Rp5971
(dp5972
g69
g5966
sg61
(dp5973
g84
g85
ssg63
(lp5974
S'session_id_name'
p5975
asbag55
(g79
g57
Ntp5976
Rp5977
(dp5978
g69
g5966
sg61
(dp5979
g92
g93
ssg63
(lp5980
g95
asbag55
(g79
g57
Ntp5981
Rp5982
(dp5983
g69
g5966
sg61
(dp5984
sg63
(lp5985
g55
(g56
g57
Ntp5986
Rp5987
(dp5988
g69
g5982
sg61
(dp5989
g71
I5
ssg63
(lp5990
g4796
asbasbasbag55
(g73
g57
Ntp5991
Rp5992
(dp5993
g69
g4726
sg61
(dp5994
sg63
(lp5995
g55
(g79
g57
Ntp5996
Rp5997
(dp5998
g69
g5992
sg61
(dp5999
g84
g85
ssg63
(lp6000
S'session_locked'
p6001
asbag55
(g79
g57
Ntp6002
Rp6003
(dp6004
g69
g5992
sg61
(dp6005
g92
g93
ssg63
(lp6006
g95
asbag55
(g79
g57
Ntp6007
Rp6008
(dp6009
g69
g5992
sg61
(dp6010
sg63
(lp6011
g55
(g56
g57
Ntp6012
Rp6013
(dp6014
g69
g6008
sg61
(dp6015
g71
I5
ssg63
(lp6016
g2457
asbasbasbag55
(g73
g57
Ntp6017
Rp6018
(dp6019
g69
g4726
sg61
(dp6020
sg63
(lp6021
g55
(g79
g57
Ntp6022
Rp6023
(dp6024
g69
g6018
sg61
(dp6025
g84
g85
ssg63
(lp6026
S'session_new'
p6027
asbag55
(g79
g57
Ntp6028
Rp6029
(dp6030
g69
g6018
sg61
(dp6031
g92
g93
ssg63
(lp6032
g95
asbag55
(g79
g57
Ntp6033
Rp6034
(dp6035
g69
g6018
sg61
(dp6036
sg63
(lp6037
g55
(g56
g57
Ntp6038
Rp6039
(dp6040
g69
g6034
sg61
(dp6041
g71
I5
ssg63
(lp6042
g154
asbasbasbag55
(g73
g57
Ntp6043
Rp6044
(dp6045
g69
g4726
sg61
(dp6046
sg63
(lp6047
g55
(g79
g57
Ntp6048
Rp6049
(dp6050
g69
g6044
sg61
(dp6051
g84
g85
ssg63
(lp6052
S'status'
p6053
asbag55
(g79
g57
Ntp6054
Rp6055
(dp6056
g69
g6044
sg61
(dp6057
g92
g93
ssg63
(lp6058
g95
asbag55
(g79
g57
Ntp6059
Rp6060
(dp6061
g69
g6044
sg61
(dp6062
sg63
(lp6063
g55
(g56
g57
Ntp6064
Rp6065
(dp6066
g69
g6060
sg61
(dp6067
g71
I5
ssg63
(lp6068
S'200'
p6069
asbasbasbag55
(g73
g57
Ntp6070
Rp6071
(dp6072
g69
g4726
sg61
(dp6073
sg63
(lp6074
g55
(g79
g57
Ntp6075
Rp6076
(dp6077
g69
g6071
sg61
(dp6078
g84
g85
ssg63
(lp6079
S'subtitle'
p6080
asbag55
(g79
g57
Ntp6081
Rp6082
(dp6083
g69
g6071
sg61
(dp6084
g92
g93
ssg63
(lp6085
g95
asbag55
(g79
g57
Ntp6086
Rp6087
(dp6088
g69
g6071
sg61
(dp6089
sg63
(lp6090
g55
(g56
g57
Ntp6091
Rp6092
(dp6093
g69
g6087
sg61
(dp6094
g71
I5
ssg63
(lp6095
g5445
(S's\r\x00\x00\x00customize me!'
p6096
tp6097
Rp6098
asbasbasbag55
(g73
g57
Ntp6099
Rp6100
(dp6101
g69
g4726
sg61
(dp6102
sg63
(lp6103
g55
(g79
g57
Ntp6104
Rp6105
(dp6106
g69
g6100
sg61
(dp6107
g84
g85
ssg63
(lp6108
S'title'
p6109
asbag55
(g79
g57
Ntp6110
Rp6111
(dp6112
g69
g6100
sg61
(dp6113
g92
g93
ssg63
(lp6114
g95
asbag55
(g79
g57
Ntp6115
Rp6116
(dp6117
g69
g6100
sg61
(dp6118
sg63
(lp6119
g55
(g56
g57
Ntp6120
Rp6121
(dp6122
g69
g6116
sg61
(dp6123
g71
I5
ssg63
(lp6124
S'Fragance'
p6125
asbasbasbag55
(g73
g57
Ntp6126
Rp6127
(dp6128
g69
g4726
sg61
(dp6129
sg63
(lp6130
g55
(g79
g57
Ntp6131
Rp6132
(dp6133
g69
g6127
sg61
(dp6134
g84
g85
ssg63
(lp6135
g3904
asbag55
(g79
g57
Ntp6136
Rp6137
(dp6138
g69
g6127
sg61
(dp6139
g92
g93
ssg63
(lp6140
g95
asbag55
(g79
g57
Ntp6141
Rp6142
(dp6143
g69
g6127
sg61
(dp6144
sg63
(lp6145
g55
(g56
g57
Ntp6146
Rp6147
(dp6148
g69
g6142
sg61
(dp6149
g71
I5
ssg63
(lp6150
g3920
asbasbasbag55
(g73
g57
Ntp6151
Rp6152
(dp6153
g69
g4726
sg61
(dp6154
sg63
(lp6155
g55
(g79
g57
Ntp6156
Rp6157
(dp6158
g69
g6152
sg61
(dp6159
g84
g85
ssg63
(lp6160
S'view'
p6161
asbag55
(g79
g57
Ntp6162
Rp6163
(dp6164
g69
g6152
sg61
(dp6165
g92
g93
ssg63
(lp6166
g95
asbag55
(g79
g57
Ntp6167
Rp6168
(dp6169
g69
g6152
sg61
(dp6170
sg63
(lp6171
g55
(g56
g57
Ntp6172
Rp6173
(dp6174
g69
g6168
sg61
(dp6175
g71
I5
ssg63
(lp6176
S'appadmin.html'
p6177
asbasbasbasbasbsS'frames'
p6178
(lp6179
(dp6180
S'file'
p6181
S'/home/marco/projects/milanel/web2py/gluon/restricted.py'
p6182
sS'call'
p6183
S"(code='# -*- coding: utf-8 -*-\\n\\n# #####################... False)\\n\\n\\n\\n\\nresponse._vars=response._caller(csv)\\n', environment={'A': <class 'gluon.html.A'>, 'Auth': <class 'gluon.tools.Auth'>, 'B': <class 'gluon.html.B'>, 'BEAUTIFY': <class 'gluon.html.BEAUTIFY'>, 'BODY': <class 'gluon.html.BODY'>, 'BR': <class 'gluon.html.BR'>, 'BUTTON': <class 'gluon.html.BUTTON'>, 'CAT': <class 'gluon.html.CAT'>, 'CENTER': <class 'gluon.html.CENTER'>, 'CLEANUP': <class 'gluon.validators.CLEANUP'>, ...}, layer='/home/marco/projects/milanel/web2py/applications/fragance/controllers/appadmin.py')"
p6184
sS'func'
p6185
S'restricted'
p6186
sS'dump'
p6187
(dp6188
S'environment'
p6189
S"{'A': <class 'gluon.html.A'>, 'Auth': <class 'gluon.tools.Auth'>, 'B': <class 'gluon.html.B'>, 'BEAUTIFY': <class 'gluon.html.BEAUTIFY'>, 'BODY': <class 'gluon.html.BODY'>, 'BR': <class 'gluon.html.BR'>, 'BUTTON': <class 'gluon.html.BUTTON'>, 'CAT': <class 'gluon.html.CAT'>, 'CENTER': <class 'gluon.html.CENTER'>, 'CLEANUP': <class 'gluon.validators.CLEANUP'>, ...}"
p6190
sS'ccode'
p6191
S"<code object <module>, file '/home/marco/project...ations/fragance/controllers/appadmin.py', line 7>"
p6192
ssS'lnum'
p6193
I205
sS'lines'
p6194
(dp6195
I208
S'    except RestrictedError:'
p6196
sI209
S'        # do not encapsulate (obfuscate) the original RestrictedError'
p6197
sI200
S'    try:'
p6198
sI201
S'        if type(code) == types.CodeType:'
p6199
sI202
S'            ccode = code'
p6200
sI203
S'        else:'
p6201
sI204
S'            ccode = compile2(code,layer)'
p6202
sI205
S'        exec ccode in environment'
p6203
sI206
S'    except HTTP:'
p6204
sI207
S'        raise'
p6205
ssa(dp6206
g6181
S'/home/marco/projects/milanel/web2py/applications/fragance/controllers/appadmin.py'
p6207
sg6183
S'()'
p6208
sg6185
S'<module>'
p6209
sg6187
(dp6210
sg6193
I433
sg6194
(dp6211
I422
S''
p6212
sI423
S"    ram['keys'] = key_table(ram['keys'])"
p6213
sI424
S"    disk['keys'] = key_table(disk['keys'])"
p6214
sI425
S"    total['keys'] = key_table(total['keys'])"
p6215
sI426
S''
p6216
sI427
S'    return dict(form=form, total=total,'
p6217
sI428
S'                ram=ram, disk=disk, object_stats=hp != False)'
p6218
sI429
S''
p6219
sI430
S''
p6220
sI431
S''
p6221
ssa(dp6222
g6181
S'/home/marco/projects/milanel/web2py/gluon/globals.py'
p6223
sg6183
S'(f=<function csv>)'
p6224
sg6185
S'<lambda>'
p6225
sg6187
(dp6226
S'self'
p6227
S'undefined'
p6228
sS'f'
p6229
S'<function csv>'
p6230
ssg6193
I173
sg6194
(dp6231
I176
S'        self._custom_rollback = None'
p6232
sI177
S''
p6233
sI168
S'        self.menu = []             # used by the default view layout'
p6234
sI169
S'        self.files = []            # used by web2py_ajax.html'
p6235
sI170
S'        self.generic_patterns = [] # patterns to allow generic views'
p6236
sI171
S"        self.delimiters = ('{{','}}')"
p6237
sI172
S'        self._vars = None'
p6238
sI173
S'        self._caller = lambda f: f()'
p6239
sI174
S'        self._view_environment = None'
p6240
sI175
S'        self._custom_commit = None'
p6241
ssa(dp6242
g6181
S'/home/marco/projects/milanel/web2py/applications/fragance/controllers/appadmin.py'
p6243
sg6183
S'()'
p6244
sg6185
S'csv'
p6245
sg6187
(dp6246
S'query'
p6247
S'<gluon.dal.Query object>'
p6248
sS'True'
p6249
g6228
sS'ignore_common_filters'
p6250
g6228
sS'db'
p6251
S"<DAL {'_migrate_enabled': True, 'auth_event': <T...gluon.dal.Field object at 0x00007f2b58ec9980>}>}>"
p6252
sS'str'
p6253
g6228
ssg6193
I153
sg6194
(dp6254
I148
S'    query = get_query(request)'
p6255
sI149
S'    if not query:'
p6256
sI150
S'        return None'
p6257
sI151
S"    response.headers['Content-disposition'] = 'attachment; filename=%s_%s.csv'\\"
p6258
sI152
S"         % tuple(request.vars.query.split('.')[:2])"
p6259
sI153
S'    return str(db(query,ignore_common_filters=True).select())'
p6260
sI154
S''
p6261
sI155
S''
p6262
sI156
S'def import_csv(table, file):'
p6263
sI157
S'    table.import_from_csv_file(file)'
p6264
ssa(dp6265
g6181
S'/home/marco/projects/milanel/web2py/gluon/dal.py'
p6266
sg6183
S'(self=<gluon.dal.Set object>, *fields=[<gluon.dal.Field object>, <gluon.dal.Field object>, <gluon.dal.Field object>, <gluon.dal.Field object>, <gluon.dal.Field object>, <gluon.dal.Field object>, <gluon.dal.Field object>], **attributes={})'
p6267
sg6185
S'select'
p6268
sg6187
(dp6269
S'self.query'
p6270
S'<gluon.dal.Query object>'
p6271
sS'attributes'
p6272
g37
sS'fields'
p6273
S'[<gluon.dal.Field object>, <gluon.dal.Field object>, <gluon.dal.Field object>, <gluon.dal.Field object>, <gluon.dal.Field object>, <gluon.dal.Field object>, <gluon.dal.Field object>]'
p6274
sS'adapter'
p6275
S'<gluon.dal.SQLiteAdapter object>'
p6276
sS'adapter.select'
p6277
S'<bound method SQLiteAdapter.select of <gluon.dal.SQLiteAdapter object>>'
p6278
sS'self'
p6279
S'<gluon.dal.Set object>'
p6280
ssg6193
I7578
sg6194
(dp6281
I7573
S'        return self.db._adapter.count(self.query,distinct)'
p6282
sI7574
S''
p6283
sI7575
S'    def select(self, *fields, **attributes):'
p6284
sI7576
S'        adapter = self.db._adapter'
p6285
sI7577
S'        fields = adapter.expand_all(fields, adapter.tables(self.query))'
p6286
sI7578
S'        return adapter.select(self.query,fields,attributes)'
p6287
sI7579
S''
p6288
sI7580
S'    def delete(self):'
p6289
sI7581
S'        tablename=self.db._adapter.get_table(self.query)'
p6290
sI7582
S'        self.delete_uploaded_files()'
p6291
ssa(dp6292
g6181
S'/home/marco/projects/milanel/web2py/gluon/dal.py'
p6293
sg6183
S'(self=<gluon.dal.SQLiteAdapter object>, query=<gluon.dal.Query object>, fields=[<gluon.dal.Field object>, <gluon.dal.Field object>, <gluon.dal.Field object>, <gluon.dal.Field object>, <gluon.dal.Field object>, <gluon.dal.Field object>, <gluon.dal.Field object>], attributes={})'
p6294
sg6185
S'select'
p6295
sg6187
(dp6296
S'rows'
p6297
g6228
sS'response'
p6298
S'<function response>'
p6299
sS'sql'
p6300
S"'SELECT  articulo.id, articulo.codigo, articulo.d...o.uingreso FROM articulo WHERE (articulo.id > 0);'"
p6301
ssg6193
I1315
sg6194
(dp6302
I1312
S'            key = (len(key)<=200) and key or hashlib.md5(key).hexdigest()'
p6303
sI1313
S'            rows = cache_model(key, lambda: response(sql), time_expire)'
p6304
sI1314
S'        else:'
p6305
sI1315
S'            rows = response(sql)'
p6306
sI1316
S'        if isinstance(rows,tuple):'
p6307
sI1317
S'            rows = list(rows)'
p6308
sI1318
S"        limitby = attributes.get('limitby', None) or (0,)"
p6309
sI1319
S'        rows = self.rowslice(rows,limitby[0],None)'
p6310
sI1310
S"            del attributes['cache']"
p6311
sI1311
S"            key = self.uri + '/' + sql"
p6312
ssa(dp6313
g6181
S'/home/marco/projects/milanel/web2py/gluon/dal.py'
p6314
sg6183
S"(sql='SELECT  articulo.id, articulo.codigo, articulo.d...o.uingreso FROM articulo WHERE (articulo.id > 0);')"
p6315
sg6185
S'response'
p6316
sg6187
(dp6317
S'self'
p6318
S'<gluon.dal.SQLiteAdapter object>'
p6319
sS'self.execute'
p6320
S'<bound method SQLiteAdapter.execute of <gluon.dal.SQLiteAdapter object>>'
p6321
sS'sql'
p6322
S"'SELECT  articulo.id, articulo.codigo, articulo.d...o.uingreso FROM articulo WHERE (articulo.id > 0);'"
p6323
ssg6193
I1305
sg6194
(dp6324
I1300
S'    def select(self, query, fields, attributes):'
p6325
sI1301
S'        """'
p6326
sI1302
S'        Always returns a Rows object, possibly empty.'
p6327
sI1303
S'        """'
p6328
sI1304
S'        def response(sql):'
p6329
sI1305
S'            self.execute(sql)'
p6330
sI1306
S'            return self.cursor.fetchall()'
p6331
sI1307
S'        sql = self._select(query, fields, attributes)'
p6332
sI1308
S"        if attributes.get('cache', None):"
p6333
sI1309
S"            (cache_model, time_expire) = attributes['cache']"
p6334
ssa(dp6335
g6181
S'/home/marco/projects/milanel/web2py/gluon/dal.py'
p6336
sg6183
S"(self=<gluon.dal.SQLiteAdapter object>, *a=('SELECT  articulo.id, articulo.codigo, articulo.d...o.uingreso FROM articulo WHERE (articulo.id > 0);',), **b={})"
p6337
sg6185
S'execute'
p6338
sg6187
(dp6339
S'a'
p6340
S"('SELECT  articulo.id, articulo.codigo, articulo.d...o.uingreso FROM articulo WHERE (articulo.id > 0);',)"
p6341
sS'self'
p6342
S'<gluon.dal.SQLiteAdapter object>'
p6343
sS'b'
p6344
g37
sS'self.log_execute'
p6345
S'<bound method SQLiteAdapter.log_execute of <gluon.dal.SQLiteAdapter object>>'
p6346
ssg6193
I1392
sg6194
(dp6347
I1392
S'        return self.log_execute(*a, **b)'
p6348
sI1393
S''
p6349
sI1394
S'    def represent(self, obj, fieldtype):'
p6350
sI1395
S'        if isinstance(obj, CALLABLETYPES):'
p6351
sI1396
S'            obj = obj()'
p6352
sI1387
S'        self.db._timings.append((a[0],time.time()-t0))'
p6353
sI1388
S'        del self.db._timings[:-TIMINGSSIZE]'
p6354
sI1389
S'        return ret'
p6355
sI1390
S''
p6356
sI1391
S'    def execute(self, *a, **b):'
p6357
ssa(dp6358
g6181
S'/home/marco/projects/milanel/web2py/gluon/dal.py'
p6359
sg6183
S"(self=<gluon.dal.SQLiteAdapter object>, *a=('SELECT  articulo.id, articulo.codigo, articulo.d...o.uingreso FROM articulo WHERE (articulo.id > 0);',), **b={})"
p6360
sg6185
S'log_execute'
p6361
sg6187
(dp6362
S'a'
p6363
S"('SELECT  articulo.id, articulo.codigo, articulo.d...o.uingreso FROM articulo WHERE (articulo.id > 0);',)"
p6364
sS'self.cursor'
p6365
S'<_sqlite3.Cursor object>'
p6366
sS'b'
p6367
g37
sS'self.cursor.execute'
p6368
S'<bound method Cursor.execute of <_sqlite3.Cursor object>>'
p6369
sS'self'
p6370
S'<gluon.dal.SQLiteAdapter object>'
p6371
sS'ret'
p6372
g6228
ssg6193
I1386
sg6194
(dp6373
I1381
S'        self.execute(query)'
p6374
sI1382
S''
p6375
sI1383
S'    def log_execute(self, *a, **b):'
p6376
sI1384
S'        self.db._lastsql = a[0]'
p6377
sI1385
S'        t0 = time.time()'
p6378
sI1386
S'        ret = self.cursor.execute(*a, **b)'
p6379
sI1387
S'        self.db._timings.append((a[0],time.time()-t0))'
p6380
sI1388
S'        del self.db._timings[:-TIMINGSSIZE]'
p6381
sI1389
S'        return ret'
p6382
sI1390
S''
p6383
ssa(dp6384
g6181
S'/usr/lib/pypy/lib_pypy/_sqlite3.py'
p6385
sg6183
S"(self=<_sqlite3.Cursor object>, sql='SELECT  articulo.id, articulo.codigo, articulo.d...o.uingreso FROM articulo WHERE (articulo.id > 0);', params=None)"
p6386
sg6185
S'execute'
p6387
sg6187
(dp6388
S'self.statement._readahead'
p6389
S'<bound method Statement._readahead of <_sqlite3.Statement object>>'
p6390
sS'self'
p6391
S'<_sqlite3.Cursor object>'
p6392
sS'self.statement'
p6393
S'<_sqlite3.Statement object>'
p6394
ssg6193
I770
sg6194
(dp6395
I768
S'        if self.statement.kind == DQL and ret == SQLITE_ROW:'
p6396
sI769
S'            self.statement._build_row_cast_map()'
p6397
sI770
S'            self.statement._readahead(self)'
p6398
sI771
S'        else:'
p6399
sI772
S'            self.statement.item = None'
p6400
sI773
S'            self.statement.exhausted = True'
p6401
sI774
S''
p6402
sI765
S'            self.statement.reset()'
p6403
sI766
S'            raise self.connection._get_exception(ret)'
p6404
sI767
S''
p6405
ssa(dp6406
g6181
S'/usr/lib/pypy/lib_pypy/_sqlite3.py'
p6407
sg6183
S'(self=<_sqlite3.Statement object>, cursor=<_sqlite3.Cursor object>)'
p6408
sg6185
S'_readahead'
p6409
sg6187
(dp6410
S'converter'
p6411
S'<function convert_date>'
p6412
sS'val'
p6413
S"'15/12/2011'"
p6414
ssg6193
I1104
sg6194
(dp6415
I1104
S'                    val = converter(val)'
p6416
sI1105
S'            row.append(val)'
p6417
sI1106
S''
p6418
sI1107
S'        row = tuple(row)'
p6419
sI1108
S'        if self.row_factory is not None:'
p6420
sI1099
S'                if not blob:'
p6421
sI1100
S'                    val = None'
p6422
sI1101
S'                else:'
p6423
sI1102
S'                    blob_len = sqlite.sqlite3_column_bytes(self.statement, i)'
p6424
sI1103
S'                    val = string_at(blob, blob_len)'
p6425
ssa(dp6426
g6181
S'/usr/lib/pypy/lib-python/modified-2.7/sqlite3/dbapi2.py'
p6427
sg6183
S"(val='15/12/2011')"
p6428
sg6185
S'convert_date'
p6429
sg6187
(dp6430
S'datetime.date'
p6431
S"<class 'datetime.date'>"
p6432
sS'val'
p6433
S"'15/12/2011'"
p6434
sS'val.split'
p6435
S"<bound method str.split of '15/12/2011'>"
p6436
sS'global datetime'
p6437
S"<module 'datetime' from '/usr/lib/pypy/lib_pypy/datetime.py'>"
p6438
sS'builtinint'
p6439
S"<type 'int'>"
p6440
sS'builtinmap'
p6441
S'<built-in function map>'
p6442
ssg6193
I63
sg6194
(dp6443
I64
S''
p6444
sI65
S'    def convert_timestamp(val):'
p6445
sI66
S'        datepart, timepart = val.split(" ")'
p6446
sI67
S'        year, month, day = map(int, datepart.split("-"))'
p6447
sI58
S''
p6448
sI59
S'    def adapt_datetime(val):'
p6449
sI60
S'        return val.isoformat(" ")'
p6450
sI61
S''
p6451
sI62
S'    def convert_date(val):'
p6452
sI63
S'        return datetime.date(*map(int, val.split("-")))'
p6453
ssassS'traceback'
p6454
S'Traceback (most recent call last):\n  File "/home/marco/projects/milanel/web2py/gluon/restricted.py", line 205, in restricted\n    exec ccode in environment\n  File "/home/marco/projects/milanel/web2py/applications/fragance/controllers/appadmin.py", line 433, in <module>\n  File "/home/marco/projects/milanel/web2py/gluon/globals.py", line 173, in <lambda>\n    self._caller = lambda f: f()\n  File "/home/marco/projects/milanel/web2py/applications/fragance/controllers/appadmin.py", line 153, in csv\n    return str(db(query,ignore_common_filters=True).select())\n  File "/home/marco/projects/milanel/web2py/gluon/dal.py", line 7578, in select\n    return adapter.select(self.query,fields,attributes)\n  File "/home/marco/projects/milanel/web2py/gluon/dal.py", line 1315, in select\n    rows = response(sql)\n  File "/home/marco/projects/milanel/web2py/gluon/dal.py", line 1305, in response\n    self.execute(sql)\n  File "/home/marco/projects/milanel/web2py/gluon/dal.py", line 1392, in execute\n    return self.log_execute(*a, **b)\n  File "/home/marco/projects/milanel/web2py/gluon/dal.py", line 1386, in log_execute\n    ret = self.cursor.execute(*a, **b)\n  File "/usr/lib/pypy/lib_pypy/_sqlite3.py", line 770, in execute\n    self.statement._readahead(self)\n  File "/usr/lib/pypy/lib_pypy/_sqlite3.py", line 1104, in _readahead\n    val = converter(val)\n  File "/usr/lib/pypy/lib-python/modified-2.7/sqlite3/dbapi2.py", line 63, in convert_date\n    return datetime.date(*map(int, val.split("-")))\nValueError: invalid literal for int() with base 10: \'15/12/2011\'\n'
p6455
s.