(dp1
S'output'
p2
S"<type 'exceptions.SyntaxError'> Field: unknown field type: float for plista"
p3
sS'layer'
p4
S'/home/marco/projects/milanel/web2py/applications/fragance/models/db_interno.py'
p5
sS'code'
p6
S"# coding: utf8\n\ndb.define_table('proveedor',\n    Field('nombre'),\n    Field('telefono','integer'),\n    Field('domicilio'),\n    Field('email','string'),\n    format='$(id)s - $(nombre)s'\n    \n    )\n\ndb.define_table('articulo',\n    Field('codigo','integer'),\n    Field('descripcion','string'),\n    Field('cantidad','integer'),\n    Field('plista','float'),\n    Field('proveedor',db.proveedor),\n    Field('uingreso','datetime')\n    )\n"
p7
sS'snapshot'
p8
(dp9
S'pyver'
p10
S'Python 2.7.2: /usr/bin/pypy'
p11
sS'exception'
p12
(dp13
S'__module__'
p14
S"'exceptions'"
p15
sS'__getitem__'
p16
S"<bound method SyntaxError.__getitem__ of SyntaxE...('Field: unknown field type: float for plista',)>"
p17
sS'__setstate__'
p18
S"<bound method SyntaxError.__setstate__ of Syntax...('Field: unknown field type: float for plista',)>"
p19
sS'__getattribute__'
p20
S"<bound method SyntaxError.__getattribute__ of Sy...('Field: unknown field type: float for plista',)>"
p21
sS'__str__'
p22
S"<bound method SyntaxError.__str__ of SyntaxError('Field: unknown field type: float for plista',)>"
p23
sS'args'
p24
S"('Field: unknown field type: float for plista',)"
p25
sS'__reduce__'
p26
S"<bound method SyntaxError.__reduce__ of SyntaxError('Field: unknown field type: float for plista',)>"
p27
sS'msg'
p28
S"'Field: unknown field type: float for plista'"
p29
sS'__subclasshook__'
p30
S"<bound method type.__subclasshook__ of <type 'exceptions.SyntaxError'>>"
p31
sS'offset'
p32
S'None'
p33
sS'__dict__'
p34
S'{}'
p35
sS'lastlineno'
p36
g33
sS'__unicode__'
p37
S"<bound method SyntaxError.__unicode__ of SyntaxE...('Field: unknown field type: float for plista',)>"
p38
sS'__setattr__'
p39
S"<bound method SyntaxError.__setattr__ of SyntaxE...('Field: unknown field type: float for plista',)>"
p40
sS'__reduce_ex__'
p41
S"<bound method SyntaxError.__reduce_ex__ of Synta...('Field: unknown field type: float for plista',)>"
p42
sS'print_file_and_line'
p43
g33
sS'__new__'
p44
S'<function __new__>'
p45
sS'__format__'
p46
S"<bound method SyntaxError.__format__ of SyntaxError('Field: unknown field type: float for plista',)>"
p47
sS'__class__'
p48
S"<type 'exceptions.SyntaxError'>"
p49
sS'filename'
p50
g33
sS'__delattr__'
p51
S"<bound method SyntaxError.__delattr__ of SyntaxE...('Field: unknown field type: float for plista',)>"
p52
sS'__repr__'
p53
S"<bound method SyntaxError.__repr__ of SyntaxError('Field: unknown field type: float for plista',)>"
p54
sS'__init__'
p55
S"<bound method SyntaxError.__init__ of SyntaxError('Field: unknown field type: float for plista',)>"
p56
sS'text'
p57
g33
sS'__hash__'
p58
S"<bound method SyntaxError.__hash__ of SyntaxError('Field: unknown field type: float for plista',)>"
p59
sS'__doc__'
p60
S"'Invalid syntax.'"
p61
sS'lineno'
p62
g33
ssS'session'
p63
ccopy_reg
_reconstructor
p64
(cgluon.html
BEAUTIFY
p65
c__builtin__
object
p66
Ntp67
Rp68
(dp69
S'attributes'
p70
(dp71
sS'components'
p72
(lp73
g64
(cgluon.html
TABLE
p74
g66
Ntp75
Rp76
(dp77
S'parent'
p78
Nsg70
(dp79
S'level'
p80
I5
ssg72
(lp81
sbasbsS'locals'
p82
(dp83
S'polymodel'
p84
g33
sS'sortable'
p85
S'5'
p86
sS'sql_fields_aux'
p87
S"{'cantidad': {'sql': 'INTEGER'}, 'codigo': {'sql': 'INTEGER'}, 'descripcion': {'sql': 'CHAR(512)'}, 'id': {'sql': 'INTEGER PRIMARY KEY AUTOINCREMENT'}}"
p88
sS'TFK'
p89
g35
sS'migrate'
p90
S'True'
p91
sS'fields'
p92
S"['id INTEGER PRIMARY KEY AUTOINCREMENT', 'codigo INTEGER', 'descripcion CHAR(512)', 'cantidad INTEGER']"
p93
sS'self'
p94
S'<gluon.dal.SQLiteAdapter object>'
p95
sS'tablename'
p96
S"'articulo'"
p97
sS'fake_migrate'
p98
S'False'
p99
sS'field'
p100
S'<gluon.dal.Field object>'
p101
sS'ftype'
p102
S"'INTEGER'"
p103
sS'table'
p104
S"<Table {'plista': <gluon.dal.Field object at 0x0... <gluon.dal.Field object at 0x00007f2b59285fa0>}>"
p105
sS'sql_fields'
p106
S"{'cantidad': {'sortable': 4, 'sql': 'INTEGER', 'type': 'integer'}, 'codigo': {'sortable': 2, 'sql': 'INTEGER', 'type': 'integer'}, 'descripcion': {'sortable': 3, 'sql': 'CHAR(512)', 'type': 'string'}, 'id': {'sortable': 1, 'sql': 'INTEGER PRIMARY KEY AUTOINCREMENT', 'type': 'id'}}"
p107
sS'k'
p108
S"'plista'"
p109
ssS'etype'
p110
S"<type 'exceptions.SyntaxError'>"
p111
sS'date'
p112
S'Tue Mar 13 23:25:08 2012'
p113
sS'evalue'
p114
S'Field: unknown field type: float for plista'
p115
sS'request'
p116
g64
(g65
g66
Ntp117
Rp118
(dp119
g70
(dp120
sg72
(lp121
g64
(g74
g66
Ntp122
Rp123
(dp124
g78
Nsg70
(dp125
g80
I5
ssg72
(lp126
g64
(cgluon.html
TR
p127
g66
Ntp128
Rp129
(dp130
g78
g123
sg70
(dp131
sg72
(lp132
g64
(cgluon.html
TD
p133
g66
Ntp134
Rp135
(dp136
g78
g129
sg70
(dp137
S'_style'
p138
S'font-weight:bold;vertical-align:top'
p139
ssg72
(lp140
S'ajax'
p141
asbag64
(g133
g66
Ntp142
Rp143
(dp144
g78
g129
sg70
(dp145
S'_valign'
p146
S'top'
p147
ssg72
(lp148
S':'
p149
asbag64
(g133
g66
Ntp150
Rp151
(dp152
g78
g129
sg70
(dp153
sg72
(lp154
g64
(g65
g66
Ntp155
Rp156
(dp157
g78
g151
sg70
(dp158
g80
I5
ssg72
(lp159
g99
asbasbasbag64
(g127
g66
Ntp160
Rp161
(dp162
g78
g123
sg70
(dp163
sg72
(lp164
g64
(g133
g66
Ntp165
Rp166
(dp167
g78
g161
sg70
(dp168
g138
g139
ssg72
(lp169
S'application'
p170
asbag64
(g133
g66
Ntp171
Rp172
(dp173
g78
g161
sg70
(dp174
g146
g147
ssg72
(lp175
g149
asbag64
(g133
g66
Ntp176
Rp177
(dp178
g78
g161
sg70
(dp179
sg72
(lp180
g64
(g65
g66
Ntp181
Rp182
(dp183
g78
g177
sg70
(dp184
g80
I5
ssg72
(lp185
S'fragance'
p186
asbasbasbag64
(g127
g66
Ntp187
Rp188
(dp189
g78
g123
sg70
(dp190
sg72
(lp191
g64
(g133
g66
Ntp192
Rp193
(dp194
g78
g188
sg70
(dp195
g138
g139
ssg72
(lp196
g24
asbag64
(g133
g66
Ntp197
Rp198
(dp199
g78
g188
sg70
(dp200
g146
g147
ssg72
(lp201
g149
asbag64
(g133
g66
Ntp202
Rp203
(dp204
g78
g188
sg70
(dp205
sg72
(lp206
g64
(g65
g66
Ntp207
Rp208
(dp209
g78
g203
sg70
(dp210
g80
I5
ssg72
(lp211
g64
(g74
g66
Ntp212
Rp213
(dp214
g78
Nsg70
(dp215
g80
I4
ssg72
(lp216
sbasbasbasbag64
(g127
g66
Ntp217
Rp218
(dp219
g78
g123
sg70
(dp220
sg72
(lp221
g64
(g133
g66
Ntp222
Rp223
(dp224
g78
g218
sg70
(dp225
g138
g139
ssg72
(lp226
S'body'
p227
asbag64
(g133
g66
Ntp228
Rp229
(dp230
g78
g218
sg70
(dp231
g146
g147
ssg72
(lp232
g149
asbag64
(g133
g66
Ntp233
Rp234
(dp235
g78
g218
sg70
(dp236
sg72
(lp237
g64
(g65
g66
Ntp238
Rp239
(dp240
g78
g234
sg70
(dp241
g80
I5
ssg72
(lp242
S'<cStringIO.StringO object at 0x0000000006bb4410>'
p243
asbasbasbag64
(g127
g66
Ntp244
Rp245
(dp246
g78
g123
sg70
(dp247
sg72
(lp248
g64
(g133
g66
Ntp249
Rp250
(dp251
g78
g245
sg70
(dp252
g138
g139
ssg72
(lp253
S'client'
p254
asbag64
(g133
g66
Ntp255
Rp256
(dp257
g78
g245
sg70
(dp258
g146
g147
ssg72
(lp259
g149
asbag64
(g133
g66
Ntp260
Rp261
(dp262
g78
g245
sg70
(dp263
sg72
(lp264
g64
(g65
g66
Ntp265
Rp266
(dp267
g78
g261
sg70
(dp268
g80
I5
ssg72
(lp269
S'127.0.0.1'
p270
asbasbasbag64
(g127
g66
Ntp271
Rp272
(dp273
g78
g123
sg70
(dp274
sg72
(lp275
g64
(g133
g66
Ntp276
Rp277
(dp278
g78
g272
sg70
(dp279
g138
g139
ssg72
(lp280
S'controller'
p281
asbag64
(g133
g66
Ntp282
Rp283
(dp284
g78
g272
sg70
(dp285
g146
g147
ssg72
(lp286
g149
asbag64
(g133
g66
Ntp287
Rp288
(dp289
g78
g272
sg70
(dp290
sg72
(lp291
g64
(g65
g66
Ntp292
Rp293
(dp294
g78
g288
sg70
(dp295
g80
I5
ssg72
(lp296
S'default'
p297
asbasbasbag64
(g127
g66
Ntp298
Rp299
(dp300
g78
g123
sg70
(dp301
sg72
(lp302
g64
(g133
g66
Ntp303
Rp304
(dp305
g78
g299
sg70
(dp306
g138
g139
ssg72
(lp307
S'cookies'
p308
asbag64
(g133
g66
Ntp309
Rp310
(dp311
g78
g299
sg70
(dp312
g146
g147
ssg72
(lp313
g149
asbag64
(g133
g66
Ntp314
Rp315
(dp316
g78
g299
sg70
(dp317
sg72
(lp318
g64
(g65
g66
Ntp319
Rp320
(dp321
g78
g315
sg70
(dp322
g80
I5
ssg72
(lp323
g64
(g74
g66
Ntp324
Rp325
(dp326
g78
Nsg70
(dp327
g80
I4
ssg72
(lp328
g64
(g127
g66
Ntp329
Rp330
(dp331
g78
g325
sg70
(dp332
sg72
(lp333
g64
(g133
g66
Ntp334
Rp335
(dp336
g78
g330
sg70
(dp337
g138
g139
ssg72
(lp338
S'PHPSESSID'
p339
asbag64
(g133
g66
Ntp340
Rp341
(dp342
g78
g330
sg70
(dp343
g146
g147
ssg72
(lp344
g149
asbag64
(g133
g66
Ntp345
Rp346
(dp347
g78
g330
sg70
(dp348
sg72
(lp349
g64
(g65
g66
Ntp350
Rp351
(dp352
g78
g346
sg70
(dp353
g80
I4
ssg72
(lp354
g64
(g74
g66
Ntp355
Rp356
(dp357
g78
Nsg70
(dp358
g80
I3
ssg72
(lp359
g64
(g127
g66
Ntp360
Rp361
(dp362
g78
g356
sg70
(dp363
sg72
(lp364
g64
(g133
g66
Ntp365
Rp366
(dp367
g78
g361
sg70
(dp368
g138
g139
ssg72
(lp369
S'comment'
p370
asbag64
(g133
g66
Ntp371
Rp372
(dp373
g78
g361
sg70
(dp374
g146
g147
ssg72
(lp375
g149
asbag64
(g133
g66
Ntp376
Rp377
(dp378
g78
g361
sg70
(dp379
sg72
(lp380
g64
(g65
g66
Ntp381
Rp382
(dp383
g78
g377
sg70
(dp384
g80
I3
ssg72
(lp385
S''
p386
asbasbasbag64
(g127
g66
Ntp387
Rp388
(dp389
g78
g356
sg70
(dp390
sg72
(lp391
g64
(g133
g66
Ntp392
Rp393
(dp394
g78
g388
sg70
(dp395
g138
g139
ssg72
(lp396
S'domain'
p397
asbag64
(g133
g66
Ntp398
Rp399
(dp400
g78
g388
sg70
(dp401
g146
g147
ssg72
(lp402
g149
asbag64
(g133
g66
Ntp403
Rp404
(dp405
g78
g388
sg70
(dp406
sg72
(lp407
g64
(g65
g66
Ntp408
Rp409
(dp410
g78
g404
sg70
(dp411
g80
I3
ssg72
(lp412
g386
asbasbasbag64
(g127
g66
Ntp413
Rp414
(dp415
g78
g356
sg70
(dp416
sg72
(lp417
g64
(g133
g66
Ntp418
Rp419
(dp420
g78
g414
sg70
(dp421
g138
g139
ssg72
(lp422
S'expires'
p423
asbag64
(g133
g66
Ntp424
Rp425
(dp426
g78
g414
sg70
(dp427
g146
g147
ssg72
(lp428
g149
asbag64
(g133
g66
Ntp429
Rp430
(dp431
g78
g414
sg70
(dp432
sg72
(lp433
g64
(g65
g66
Ntp434
Rp435
(dp436
g78
g430
sg70
(dp437
g80
I3
ssg72
(lp438
g386
asbasbasbag64
(g127
g66
Ntp439
Rp440
(dp441
g78
g356
sg70
(dp442
sg72
(lp443
g64
(g133
g66
Ntp444
Rp445
(dp446
g78
g440
sg70
(dp447
g138
g139
ssg72
(lp448
S'httponly'
p449
asbag64
(g133
g66
Ntp450
Rp451
(dp452
g78
g440
sg70
(dp453
g146
g147
ssg72
(lp454
g149
asbag64
(g133
g66
Ntp455
Rp456
(dp457
g78
g440
sg70
(dp458
sg72
(lp459
g64
(g65
g66
Ntp460
Rp461
(dp462
g78
g456
sg70
(dp463
g80
I3
ssg72
(lp464
g386
asbasbasbag64
(g127
g66
Ntp465
Rp466
(dp467
g78
g356
sg70
(dp468
sg72
(lp469
g64
(g133
g66
Ntp470
Rp471
(dp472
g78
g466
sg70
(dp473
g138
g139
ssg72
(lp474
S'max-age'
p475
asbag64
(g133
g66
Ntp476
Rp477
(dp478
g78
g466
sg70
(dp479
g146
g147
ssg72
(lp480
g149
asbag64
(g133
g66
Ntp481
Rp482
(dp483
g78
g466
sg70
(dp484
sg72
(lp485
g64
(g65
g66
Ntp486
Rp487
(dp488
g78
g482
sg70
(dp489
g80
I3
ssg72
(lp490
g386
asbasbasbag64
(g127
g66
Ntp491
Rp492
(dp493
g78
g356
sg70
(dp494
sg72
(lp495
g64
(g133
g66
Ntp496
Rp497
(dp498
g78
g492
sg70
(dp499
g138
g139
ssg72
(lp500
S'path'
p501
asbag64
(g133
g66
Ntp502
Rp503
(dp504
g78
g492
sg70
(dp505
g146
g147
ssg72
(lp506
g149
asbag64
(g133
g66
Ntp507
Rp508
(dp509
g78
g492
sg70
(dp510
sg72
(lp511
g64
(g65
g66
Ntp512
Rp513
(dp514
g78
g508
sg70
(dp515
g80
I3
ssg72
(lp516
g386
asbasbasbag64
(g127
g66
Ntp517
Rp518
(dp519
g78
g356
sg70
(dp520
sg72
(lp521
g64
(g133
g66
Ntp522
Rp523
(dp524
g78
g518
sg70
(dp525
g138
g139
ssg72
(lp526
S'secure'
p527
asbag64
(g133
g66
Ntp528
Rp529
(dp530
g78
g518
sg70
(dp531
g146
g147
ssg72
(lp532
g149
asbag64
(g133
g66
Ntp533
Rp534
(dp535
g78
g518
sg70
(dp536
sg72
(lp537
g64
(g65
g66
Ntp538
Rp539
(dp540
g78
g534
sg70
(dp541
g80
I3
ssg72
(lp542
g386
asbasbasbag64
(g127
g66
Ntp543
Rp544
(dp545
g78
g356
sg70
(dp546
sg72
(lp547
g64
(g133
g66
Ntp548
Rp549
(dp550
g78
g544
sg70
(dp551
g138
g139
ssg72
(lp552
S'version'
p553
asbag64
(g133
g66
Ntp554
Rp555
(dp556
g78
g544
sg70
(dp557
g146
g147
ssg72
(lp558
g149
asbag64
(g133
g66
Ntp559
Rp560
(dp561
g78
g544
sg70
(dp562
sg72
(lp563
g64
(g65
g66
Ntp564
Rp565
(dp566
g78
g560
sg70
(dp567
g80
I3
ssg72
(lp568
g386
asbasbasbasbasbasbasbag64
(g127
g66
Ntp569
Rp570
(dp571
g78
g325
sg70
(dp572
sg72
(lp573
g64
(g133
g66
Ntp574
Rp575
(dp576
g78
g570
sg70
(dp577
g138
g139
ssg72
(lp578
S'session_id_admin'
p579
asbag64
(g133
g66
Ntp580
Rp581
(dp582
g78
g570
sg70
(dp583
g146
g147
ssg72
(lp584
g149
asbag64
(g133
g66
Ntp585
Rp586
(dp587
g78
g570
sg70
(dp588
sg72
(lp589
g64
(g65
g66
Ntp590
Rp591
(dp592
g78
g586
sg70
(dp593
g80
I4
ssg72
(lp594
g64
(g74
g66
Ntp595
Rp596
(dp597
g78
Nsg70
(dp598
g80
I3
ssg72
(lp599
g64
(g127
g66
Ntp600
Rp601
(dp602
g78
g596
sg70
(dp603
sg72
(lp604
g64
(g133
g66
Ntp605
Rp606
(dp607
g78
g601
sg70
(dp608
g138
g139
ssg72
(lp609
g370
asbag64
(g133
g66
Ntp610
Rp611
(dp612
g78
g601
sg70
(dp613
g146
g147
ssg72
(lp614
g149
asbag64
(g133
g66
Ntp615
Rp616
(dp617
g78
g601
sg70
(dp618
sg72
(lp619
g64
(g65
g66
Ntp620
Rp621
(dp622
g78
g616
sg70
(dp623
g80
I3
ssg72
(lp624
g386
asbasbasbag64
(g127
g66
Ntp625
Rp626
(dp627
g78
g596
sg70
(dp628
sg72
(lp629
g64
(g133
g66
Ntp630
Rp631
(dp632
g78
g626
sg70
(dp633
g138
g139
ssg72
(lp634
g397
asbag64
(g133
g66
Ntp635
Rp636
(dp637
g78
g626
sg70
(dp638
g146
g147
ssg72
(lp639
g149
asbag64
(g133
g66
Ntp640
Rp641
(dp642
g78
g626
sg70
(dp643
sg72
(lp644
g64
(g65
g66
Ntp645
Rp646
(dp647
g78
g641
sg70
(dp648
g80
I3
ssg72
(lp649
g386
asbasbasbag64
(g127
g66
Ntp650
Rp651
(dp652
g78
g596
sg70
(dp653
sg72
(lp654
g64
(g133
g66
Ntp655
Rp656
(dp657
g78
g651
sg70
(dp658
g138
g139
ssg72
(lp659
g423
asbag64
(g133
g66
Ntp660
Rp661
(dp662
g78
g651
sg70
(dp663
g146
g147
ssg72
(lp664
g149
asbag64
(g133
g66
Ntp665
Rp666
(dp667
g78
g651
sg70
(dp668
sg72
(lp669
g64
(g65
g66
Ntp670
Rp671
(dp672
g78
g666
sg70
(dp673
g80
I3
ssg72
(lp674
g386
asbasbasbag64
(g127
g66
Ntp675
Rp676
(dp677
g78
g596
sg70
(dp678
sg72
(lp679
g64
(g133
g66
Ntp680
Rp681
(dp682
g78
g676
sg70
(dp683
g138
g139
ssg72
(lp684
g449
asbag64
(g133
g66
Ntp685
Rp686
(dp687
g78
g676
sg70
(dp688
g146
g147
ssg72
(lp689
g149
asbag64
(g133
g66
Ntp690
Rp691
(dp692
g78
g676
sg70
(dp693
sg72
(lp694
g64
(g65
g66
Ntp695
Rp696
(dp697
g78
g691
sg70
(dp698
g80
I3
ssg72
(lp699
g386
asbasbasbag64
(g127
g66
Ntp700
Rp701
(dp702
g78
g596
sg70
(dp703
sg72
(lp704
g64
(g133
g66
Ntp705
Rp706
(dp707
g78
g701
sg70
(dp708
g138
g139
ssg72
(lp709
g475
asbag64
(g133
g66
Ntp710
Rp711
(dp712
g78
g701
sg70
(dp713
g146
g147
ssg72
(lp714
g149
asbag64
(g133
g66
Ntp715
Rp716
(dp717
g78
g701
sg70
(dp718
sg72
(lp719
g64
(g65
g66
Ntp720
Rp721
(dp722
g78
g716
sg70
(dp723
g80
I3
ssg72
(lp724
g386
asbasbasbag64
(g127
g66
Ntp725
Rp726
(dp727
g78
g596
sg70
(dp728
sg72
(lp729
g64
(g133
g66
Ntp730
Rp731
(dp732
g78
g726
sg70
(dp733
g138
g139
ssg72
(lp734
g501
asbag64
(g133
g66
Ntp735
Rp736
(dp737
g78
g726
sg70
(dp738
g146
g147
ssg72
(lp739
g149
asbag64
(g133
g66
Ntp740
Rp741
(dp742
g78
g726
sg70
(dp743
sg72
(lp744
g64
(g65
g66
Ntp745
Rp746
(dp747
g78
g741
sg70
(dp748
g80
I3
ssg72
(lp749
g386
asbasbasbag64
(g127
g66
Ntp750
Rp751
(dp752
g78
g596
sg70
(dp753
sg72
(lp754
g64
(g133
g66
Ntp755
Rp756
(dp757
g78
g751
sg70
(dp758
g138
g139
ssg72
(lp759
g527
asbag64
(g133
g66
Ntp760
Rp761
(dp762
g78
g751
sg70
(dp763
g146
g147
ssg72
(lp764
g149
asbag64
(g133
g66
Ntp765
Rp766
(dp767
g78
g751
sg70
(dp768
sg72
(lp769
g64
(g65
g66
Ntp770
Rp771
(dp772
g78
g766
sg70
(dp773
g80
I3
ssg72
(lp774
g386
asbasbasbag64
(g127
g66
Ntp775
Rp776
(dp777
g78
g596
sg70
(dp778
sg72
(lp779
g64
(g133
g66
Ntp780
Rp781
(dp782
g78
g776
sg70
(dp783
g138
g139
ssg72
(lp784
g553
asbag64
(g133
g66
Ntp785
Rp786
(dp787
g78
g776
sg70
(dp788
g146
g147
ssg72
(lp789
g149
asbag64
(g133
g66
Ntp790
Rp791
(dp792
g78
g776
sg70
(dp793
sg72
(lp794
g64
(g65
g66
Ntp795
Rp796
(dp797
g78
g791
sg70
(dp798
g80
I3
ssg72
(lp799
g386
asbasbasbasbasbasbasbag64
(g127
g66
Ntp800
Rp801
(dp802
g78
g325
sg70
(dp803
sg72
(lp804
g64
(g133
g66
Ntp805
Rp806
(dp807
g78
g801
sg70
(dp808
g138
g139
ssg72
(lp809
S'session_id_flisol2012'
p810
asbag64
(g133
g66
Ntp811
Rp812
(dp813
g78
g801
sg70
(dp814
g146
g147
ssg72
(lp815
g149
asbag64
(g133
g66
Ntp816
Rp817
(dp818
g78
g801
sg70
(dp819
sg72
(lp820
g64
(g65
g66
Ntp821
Rp822
(dp823
g78
g817
sg70
(dp824
g80
I4
ssg72
(lp825
g64
(g74
g66
Ntp826
Rp827
(dp828
g78
Nsg70
(dp829
g80
I3
ssg72
(lp830
g64
(g127
g66
Ntp831
Rp832
(dp833
g78
g827
sg70
(dp834
sg72
(lp835
g64
(g133
g66
Ntp836
Rp837
(dp838
g78
g832
sg70
(dp839
g138
g139
ssg72
(lp840
g370
asbag64
(g133
g66
Ntp841
Rp842
(dp843
g78
g832
sg70
(dp844
g146
g147
ssg72
(lp845
g149
asbag64
(g133
g66
Ntp846
Rp847
(dp848
g78
g832
sg70
(dp849
sg72
(lp850
g64
(g65
g66
Ntp851
Rp852
(dp853
g78
g847
sg70
(dp854
g80
I3
ssg72
(lp855
g386
asbasbasbag64
(g127
g66
Ntp856
Rp857
(dp858
g78
g827
sg70
(dp859
sg72
(lp860
g64
(g133
g66
Ntp861
Rp862
(dp863
g78
g857
sg70
(dp864
g138
g139
ssg72
(lp865
g397
asbag64
(g133
g66
Ntp866
Rp867
(dp868
g78
g857
sg70
(dp869
g146
g147
ssg72
(lp870
g149
asbag64
(g133
g66
Ntp871
Rp872
(dp873
g78
g857
sg70
(dp874
sg72
(lp875
g64
(g65
g66
Ntp876
Rp877
(dp878
g78
g872
sg70
(dp879
g80
I3
ssg72
(lp880
g386
asbasbasbag64
(g127
g66
Ntp881
Rp882
(dp883
g78
g827
sg70
(dp884
sg72
(lp885
g64
(g133
g66
Ntp886
Rp887
(dp888
g78
g882
sg70
(dp889
g138
g139
ssg72
(lp890
g423
asbag64
(g133
g66
Ntp891
Rp892
(dp893
g78
g882
sg70
(dp894
g146
g147
ssg72
(lp895
g149
asbag64
(g133
g66
Ntp896
Rp897
(dp898
g78
g882
sg70
(dp899
sg72
(lp900
g64
(g65
g66
Ntp901
Rp902
(dp903
g78
g897
sg70
(dp904
g80
I3
ssg72
(lp905
g386
asbasbasbag64
(g127
g66
Ntp906
Rp907
(dp908
g78
g827
sg70
(dp909
sg72
(lp910
g64
(g133
g66
Ntp911
Rp912
(dp913
g78
g907
sg70
(dp914
g138
g139
ssg72
(lp915
g449
asbag64
(g133
g66
Ntp916
Rp917
(dp918
g78
g907
sg70
(dp919
g146
g147
ssg72
(lp920
g149
asbag64
(g133
g66
Ntp921
Rp922
(dp923
g78
g907
sg70
(dp924
sg72
(lp925
g64
(g65
g66
Ntp926
Rp927
(dp928
g78
g922
sg70
(dp929
g80
I3
ssg72
(lp930
g386
asbasbasbag64
(g127
g66
Ntp931
Rp932
(dp933
g78
g827
sg70
(dp934
sg72
(lp935
g64
(g133
g66
Ntp936
Rp937
(dp938
g78
g932
sg70
(dp939
g138
g139
ssg72
(lp940
g475
asbag64
(g133
g66
Ntp941
Rp942
(dp943
g78
g932
sg70
(dp944
g146
g147
ssg72
(lp945
g149
asbag64
(g133
g66
Ntp946
Rp947
(dp948
g78
g932
sg70
(dp949
sg72
(lp950
g64
(g65
g66
Ntp951
Rp952
(dp953
g78
g947
sg70
(dp954
g80
I3
ssg72
(lp955
g386
asbasbasbag64
(g127
g66
Ntp956
Rp957
(dp958
g78
g827
sg70
(dp959
sg72
(lp960
g64
(g133
g66
Ntp961
Rp962
(dp963
g78
g957
sg70
(dp964
g138
g139
ssg72
(lp965
g501
asbag64
(g133
g66
Ntp966
Rp967
(dp968
g78
g957
sg70
(dp969
g146
g147
ssg72
(lp970
g149
asbag64
(g133
g66
Ntp971
Rp972
(dp973
g78
g957
sg70
(dp974
sg72
(lp975
g64
(g65
g66
Ntp976
Rp977
(dp978
g78
g972
sg70
(dp979
g80
I3
ssg72
(lp980
g386
asbasbasbag64
(g127
g66
Ntp981
Rp982
(dp983
g78
g827
sg70
(dp984
sg72
(lp985
g64
(g133
g66
Ntp986
Rp987
(dp988
g78
g982
sg70
(dp989
g138
g139
ssg72
(lp990
g527
asbag64
(g133
g66
Ntp991
Rp992
(dp993
g78
g982
sg70
(dp994
g146
g147
ssg72
(lp995
g149
asbag64
(g133
g66
Ntp996
Rp997
(dp998
g78
g982
sg70
(dp999
sg72
(lp1000
g64
(g65
g66
Ntp1001
Rp1002
(dp1003
g78
g997
sg70
(dp1004
g80
I3
ssg72
(lp1005
g386
asbasbasbag64
(g127
g66
Ntp1006
Rp1007
(dp1008
g78
g827
sg70
(dp1009
sg72
(lp1010
g64
(g133
g66
Ntp1011
Rp1012
(dp1013
g78
g1007
sg70
(dp1014
g138
g139
ssg72
(lp1015
g553
asbag64
(g133
g66
Ntp1016
Rp1017
(dp1018
g78
g1007
sg70
(dp1019
g146
g147
ssg72
(lp1020
g149
asbag64
(g133
g66
Ntp1021
Rp1022
(dp1023
g78
g1007
sg70
(dp1024
sg72
(lp1025
g64
(g65
g66
Ntp1026
Rp1027
(dp1028
g78
g1022
sg70
(dp1029
g80
I3
ssg72
(lp1030
g386
asbasbasbasbasbasbasbag64
(g127
g66
Ntp1031
Rp1032
(dp1033
g78
g325
sg70
(dp1034
sg72
(lp1035
g64
(g133
g66
Ntp1036
Rp1037
(dp1038
g78
g1032
sg70
(dp1039
g138
g139
ssg72
(lp1040
S'session_id_mulone'
p1041
asbag64
(g133
g66
Ntp1042
Rp1043
(dp1044
g78
g1032
sg70
(dp1045
g146
g147
ssg72
(lp1046
g149
asbag64
(g133
g66
Ntp1047
Rp1048
(dp1049
g78
g1032
sg70
(dp1050
sg72
(lp1051
g64
(g65
g66
Ntp1052
Rp1053
(dp1054
g78
g1048
sg70
(dp1055
g80
I4
ssg72
(lp1056
g64
(g74
g66
Ntp1057
Rp1058
(dp1059
g78
Nsg70
(dp1060
g80
I3
ssg72
(lp1061
g64
(g127
g66
Ntp1062
Rp1063
(dp1064
g78
g1058
sg70
(dp1065
sg72
(lp1066
g64
(g133
g66
Ntp1067
Rp1068
(dp1069
g78
g1063
sg70
(dp1070
g138
g139
ssg72
(lp1071
g370
asbag64
(g133
g66
Ntp1072
Rp1073
(dp1074
g78
g1063
sg70
(dp1075
g146
g147
ssg72
(lp1076
g149
asbag64
(g133
g66
Ntp1077
Rp1078
(dp1079
g78
g1063
sg70
(dp1080
sg72
(lp1081
g64
(g65
g66
Ntp1082
Rp1083
(dp1084
g78
g1078
sg70
(dp1085
g80
I3
ssg72
(lp1086
g386
asbasbasbag64
(g127
g66
Ntp1087
Rp1088
(dp1089
g78
g1058
sg70
(dp1090
sg72
(lp1091
g64
(g133
g66
Ntp1092
Rp1093
(dp1094
g78
g1088
sg70
(dp1095
g138
g139
ssg72
(lp1096
g397
asbag64
(g133
g66
Ntp1097
Rp1098
(dp1099
g78
g1088
sg70
(dp1100
g146
g147
ssg72
(lp1101
g149
asbag64
(g133
g66
Ntp1102
Rp1103
(dp1104
g78
g1088
sg70
(dp1105
sg72
(lp1106
g64
(g65
g66
Ntp1107
Rp1108
(dp1109
g78
g1103
sg70
(dp1110
g80
I3
ssg72
(lp1111
g386
asbasbasbag64
(g127
g66
Ntp1112
Rp1113
(dp1114
g78
g1058
sg70
(dp1115
sg72
(lp1116
g64
(g133
g66
Ntp1117
Rp1118
(dp1119
g78
g1113
sg70
(dp1120
g138
g139
ssg72
(lp1121
g423
asbag64
(g133
g66
Ntp1122
Rp1123
(dp1124
g78
g1113
sg70
(dp1125
g146
g147
ssg72
(lp1126
g149
asbag64
(g133
g66
Ntp1127
Rp1128
(dp1129
g78
g1113
sg70
(dp1130
sg72
(lp1131
g64
(g65
g66
Ntp1132
Rp1133
(dp1134
g78
g1128
sg70
(dp1135
g80
I3
ssg72
(lp1136
g386
asbasbasbag64
(g127
g66
Ntp1137
Rp1138
(dp1139
g78
g1058
sg70
(dp1140
sg72
(lp1141
g64
(g133
g66
Ntp1142
Rp1143
(dp1144
g78
g1138
sg70
(dp1145
g138
g139
ssg72
(lp1146
g449
asbag64
(g133
g66
Ntp1147
Rp1148
(dp1149
g78
g1138
sg70
(dp1150
g146
g147
ssg72
(lp1151
g149
asbag64
(g133
g66
Ntp1152
Rp1153
(dp1154
g78
g1138
sg70
(dp1155
sg72
(lp1156
g64
(g65
g66
Ntp1157
Rp1158
(dp1159
g78
g1153
sg70
(dp1160
g80
I3
ssg72
(lp1161
g386
asbasbasbag64
(g127
g66
Ntp1162
Rp1163
(dp1164
g78
g1058
sg70
(dp1165
sg72
(lp1166
g64
(g133
g66
Ntp1167
Rp1168
(dp1169
g78
g1163
sg70
(dp1170
g138
g139
ssg72
(lp1171
g475
asbag64
(g133
g66
Ntp1172
Rp1173
(dp1174
g78
g1163
sg70
(dp1175
g146
g147
ssg72
(lp1176
g149
asbag64
(g133
g66
Ntp1177
Rp1178
(dp1179
g78
g1163
sg70
(dp1180
sg72
(lp1181
g64
(g65
g66
Ntp1182
Rp1183
(dp1184
g78
g1178
sg70
(dp1185
g80
I3
ssg72
(lp1186
g386
asbasbasbag64
(g127
g66
Ntp1187
Rp1188
(dp1189
g78
g1058
sg70
(dp1190
sg72
(lp1191
g64
(g133
g66
Ntp1192
Rp1193
(dp1194
g78
g1188
sg70
(dp1195
g138
g139
ssg72
(lp1196
g501
asbag64
(g133
g66
Ntp1197
Rp1198
(dp1199
g78
g1188
sg70
(dp1200
g146
g147
ssg72
(lp1201
g149
asbag64
(g133
g66
Ntp1202
Rp1203
(dp1204
g78
g1188
sg70
(dp1205
sg72
(lp1206
g64
(g65
g66
Ntp1207
Rp1208
(dp1209
g78
g1203
sg70
(dp1210
g80
I3
ssg72
(lp1211
g386
asbasbasbag64
(g127
g66
Ntp1212
Rp1213
(dp1214
g78
g1058
sg70
(dp1215
sg72
(lp1216
g64
(g133
g66
Ntp1217
Rp1218
(dp1219
g78
g1213
sg70
(dp1220
g138
g139
ssg72
(lp1221
g527
asbag64
(g133
g66
Ntp1222
Rp1223
(dp1224
g78
g1213
sg70
(dp1225
g146
g147
ssg72
(lp1226
g149
asbag64
(g133
g66
Ntp1227
Rp1228
(dp1229
g78
g1213
sg70
(dp1230
sg72
(lp1231
g64
(g65
g66
Ntp1232
Rp1233
(dp1234
g78
g1228
sg70
(dp1235
g80
I3
ssg72
(lp1236
g386
asbasbasbag64
(g127
g66
Ntp1237
Rp1238
(dp1239
g78
g1058
sg70
(dp1240
sg72
(lp1241
g64
(g133
g66
Ntp1242
Rp1243
(dp1244
g78
g1238
sg70
(dp1245
g138
g139
ssg72
(lp1246
g553
asbag64
(g133
g66
Ntp1247
Rp1248
(dp1249
g78
g1238
sg70
(dp1250
g146
g147
ssg72
(lp1251
g149
asbag64
(g133
g66
Ntp1252
Rp1253
(dp1254
g78
g1238
sg70
(dp1255
sg72
(lp1256
g64
(g65
g66
Ntp1257
Rp1258
(dp1259
g78
g1253
sg70
(dp1260
g80
I3
ssg72
(lp1261
g386
asbasbasbasbasbasbasbag64
(g127
g66
Ntp1262
Rp1263
(dp1264
g78
g325
sg70
(dp1265
sg72
(lp1266
g64
(g133
g66
Ntp1267
Rp1268
(dp1269
g78
g1263
sg70
(dp1270
g138
g139
ssg72
(lp1271
S'session_id_pyforum'
p1272
asbag64
(g133
g66
Ntp1273
Rp1274
(dp1275
g78
g1263
sg70
(dp1276
g146
g147
ssg72
(lp1277
g149
asbag64
(g133
g66
Ntp1278
Rp1279
(dp1280
g78
g1263
sg70
(dp1281
sg72
(lp1282
g64
(g65
g66
Ntp1283
Rp1284
(dp1285
g78
g1279
sg70
(dp1286
g80
I4
ssg72
(lp1287
g64
(g74
g66
Ntp1288
Rp1289
(dp1290
g78
Nsg70
(dp1291
g80
I3
ssg72
(lp1292
g64
(g127
g66
Ntp1293
Rp1294
(dp1295
g78
g1289
sg70
(dp1296
sg72
(lp1297
g64
(g133
g66
Ntp1298
Rp1299
(dp1300
g78
g1294
sg70
(dp1301
g138
g139
ssg72
(lp1302
g370
asbag64
(g133
g66
Ntp1303
Rp1304
(dp1305
g78
g1294
sg70
(dp1306
g146
g147
ssg72
(lp1307
g149
asbag64
(g133
g66
Ntp1308
Rp1309
(dp1310
g78
g1294
sg70
(dp1311
sg72
(lp1312
g64
(g65
g66
Ntp1313
Rp1314
(dp1315
g78
g1309
sg70
(dp1316
g80
I3
ssg72
(lp1317
g386
asbasbasbag64
(g127
g66
Ntp1318
Rp1319
(dp1320
g78
g1289
sg70
(dp1321
sg72
(lp1322
g64
(g133
g66
Ntp1323
Rp1324
(dp1325
g78
g1319
sg70
(dp1326
g138
g139
ssg72
(lp1327
g397
asbag64
(g133
g66
Ntp1328
Rp1329
(dp1330
g78
g1319
sg70
(dp1331
g146
g147
ssg72
(lp1332
g149
asbag64
(g133
g66
Ntp1333
Rp1334
(dp1335
g78
g1319
sg70
(dp1336
sg72
(lp1337
g64
(g65
g66
Ntp1338
Rp1339
(dp1340
g78
g1334
sg70
(dp1341
g80
I3
ssg72
(lp1342
g386
asbasbasbag64
(g127
g66
Ntp1343
Rp1344
(dp1345
g78
g1289
sg70
(dp1346
sg72
(lp1347
g64
(g133
g66
Ntp1348
Rp1349
(dp1350
g78
g1344
sg70
(dp1351
g138
g139
ssg72
(lp1352
g423
asbag64
(g133
g66
Ntp1353
Rp1354
(dp1355
g78
g1344
sg70
(dp1356
g146
g147
ssg72
(lp1357
g149
asbag64
(g133
g66
Ntp1358
Rp1359
(dp1360
g78
g1344
sg70
(dp1361
sg72
(lp1362
g64
(g65
g66
Ntp1363
Rp1364
(dp1365
g78
g1359
sg70
(dp1366
g80
I3
ssg72
(lp1367
g386
asbasbasbag64
(g127
g66
Ntp1368
Rp1369
(dp1370
g78
g1289
sg70
(dp1371
sg72
(lp1372
g64
(g133
g66
Ntp1373
Rp1374
(dp1375
g78
g1369
sg70
(dp1376
g138
g139
ssg72
(lp1377
g449
asbag64
(g133
g66
Ntp1378
Rp1379
(dp1380
g78
g1369
sg70
(dp1381
g146
g147
ssg72
(lp1382
g149
asbag64
(g133
g66
Ntp1383
Rp1384
(dp1385
g78
g1369
sg70
(dp1386
sg72
(lp1387
g64
(g65
g66
Ntp1388
Rp1389
(dp1390
g78
g1384
sg70
(dp1391
g80
I3
ssg72
(lp1392
g386
asbasbasbag64
(g127
g66
Ntp1393
Rp1394
(dp1395
g78
g1289
sg70
(dp1396
sg72
(lp1397
g64
(g133
g66
Ntp1398
Rp1399
(dp1400
g78
g1394
sg70
(dp1401
g138
g139
ssg72
(lp1402
g475
asbag64
(g133
g66
Ntp1403
Rp1404
(dp1405
g78
g1394
sg70
(dp1406
g146
g147
ssg72
(lp1407
g149
asbag64
(g133
g66
Ntp1408
Rp1409
(dp1410
g78
g1394
sg70
(dp1411
sg72
(lp1412
g64
(g65
g66
Ntp1413
Rp1414
(dp1415
g78
g1409
sg70
(dp1416
g80
I3
ssg72
(lp1417
g386
asbasbasbag64
(g127
g66
Ntp1418
Rp1419
(dp1420
g78
g1289
sg70
(dp1421
sg72
(lp1422
g64
(g133
g66
Ntp1423
Rp1424
(dp1425
g78
g1419
sg70
(dp1426
g138
g139
ssg72
(lp1427
g501
asbag64
(g133
g66
Ntp1428
Rp1429
(dp1430
g78
g1419
sg70
(dp1431
g146
g147
ssg72
(lp1432
g149
asbag64
(g133
g66
Ntp1433
Rp1434
(dp1435
g78
g1419
sg70
(dp1436
sg72
(lp1437
g64
(g65
g66
Ntp1438
Rp1439
(dp1440
g78
g1434
sg70
(dp1441
g80
I3
ssg72
(lp1442
g386
asbasbasbag64
(g127
g66
Ntp1443
Rp1444
(dp1445
g78
g1289
sg70
(dp1446
sg72
(lp1447
g64
(g133
g66
Ntp1448
Rp1449
(dp1450
g78
g1444
sg70
(dp1451
g138
g139
ssg72
(lp1452
g527
asbag64
(g133
g66
Ntp1453
Rp1454
(dp1455
g78
g1444
sg70
(dp1456
g146
g147
ssg72
(lp1457
g149
asbag64
(g133
g66
Ntp1458
Rp1459
(dp1460
g78
g1444
sg70
(dp1461
sg72
(lp1462
g64
(g65
g66
Ntp1463
Rp1464
(dp1465
g78
g1459
sg70
(dp1466
g80
I3
ssg72
(lp1467
g386
asbasbasbag64
(g127
g66
Ntp1468
Rp1469
(dp1470
g78
g1289
sg70
(dp1471
sg72
(lp1472
g64
(g133
g66
Ntp1473
Rp1474
(dp1475
g78
g1469
sg70
(dp1476
g138
g139
ssg72
(lp1477
g553
asbag64
(g133
g66
Ntp1478
Rp1479
(dp1480
g78
g1469
sg70
(dp1481
g146
g147
ssg72
(lp1482
g149
asbag64
(g133
g66
Ntp1483
Rp1484
(dp1485
g78
g1469
sg70
(dp1486
sg72
(lp1487
g64
(g65
g66
Ntp1488
Rp1489
(dp1490
g78
g1484
sg70
(dp1491
g80
I3
ssg72
(lp1492
g386
asbasbasbasbasbasbasbag64
(g127
g66
Ntp1493
Rp1494
(dp1495
g78
g325
sg70
(dp1496
sg72
(lp1497
g64
(g133
g66
Ntp1498
Rp1499
(dp1500
g78
g1494
sg70
(dp1501
g138
g139
ssg72
(lp1502
S'session_id_welcome'
p1503
asbag64
(g133
g66
Ntp1504
Rp1505
(dp1506
g78
g1494
sg70
(dp1507
g146
g147
ssg72
(lp1508
g149
asbag64
(g133
g66
Ntp1509
Rp1510
(dp1511
g78
g1494
sg70
(dp1512
sg72
(lp1513
g64
(g65
g66
Ntp1514
Rp1515
(dp1516
g78
g1510
sg70
(dp1517
g80
I4
ssg72
(lp1518
g64
(g74
g66
Ntp1519
Rp1520
(dp1521
g78
Nsg70
(dp1522
g80
I3
ssg72
(lp1523
g64
(g127
g66
Ntp1524
Rp1525
(dp1526
g78
g1520
sg70
(dp1527
sg72
(lp1528
g64
(g133
g66
Ntp1529
Rp1530
(dp1531
g78
g1525
sg70
(dp1532
g138
g139
ssg72
(lp1533
g370
asbag64
(g133
g66
Ntp1534
Rp1535
(dp1536
g78
g1525
sg70
(dp1537
g146
g147
ssg72
(lp1538
g149
asbag64
(g133
g66
Ntp1539
Rp1540
(dp1541
g78
g1525
sg70
(dp1542
sg72
(lp1543
g64
(g65
g66
Ntp1544
Rp1545
(dp1546
g78
g1540
sg70
(dp1547
g80
I3
ssg72
(lp1548
g386
asbasbasbag64
(g127
g66
Ntp1549
Rp1550
(dp1551
g78
g1520
sg70
(dp1552
sg72
(lp1553
g64
(g133
g66
Ntp1554
Rp1555
(dp1556
g78
g1550
sg70
(dp1557
g138
g139
ssg72
(lp1558
g397
asbag64
(g133
g66
Ntp1559
Rp1560
(dp1561
g78
g1550
sg70
(dp1562
g146
g147
ssg72
(lp1563
g149
asbag64
(g133
g66
Ntp1564
Rp1565
(dp1566
g78
g1550
sg70
(dp1567
sg72
(lp1568
g64
(g65
g66
Ntp1569
Rp1570
(dp1571
g78
g1565
sg70
(dp1572
g80
I3
ssg72
(lp1573
g386
asbasbasbag64
(g127
g66
Ntp1574
Rp1575
(dp1576
g78
g1520
sg70
(dp1577
sg72
(lp1578
g64
(g133
g66
Ntp1579
Rp1580
(dp1581
g78
g1575
sg70
(dp1582
g138
g139
ssg72
(lp1583
g423
asbag64
(g133
g66
Ntp1584
Rp1585
(dp1586
g78
g1575
sg70
(dp1587
g146
g147
ssg72
(lp1588
g149
asbag64
(g133
g66
Ntp1589
Rp1590
(dp1591
g78
g1575
sg70
(dp1592
sg72
(lp1593
g64
(g65
g66
Ntp1594
Rp1595
(dp1596
g78
g1590
sg70
(dp1597
g80
I3
ssg72
(lp1598
g386
asbasbasbag64
(g127
g66
Ntp1599
Rp1600
(dp1601
g78
g1520
sg70
(dp1602
sg72
(lp1603
g64
(g133
g66
Ntp1604
Rp1605
(dp1606
g78
g1600
sg70
(dp1607
g138
g139
ssg72
(lp1608
g449
asbag64
(g133
g66
Ntp1609
Rp1610
(dp1611
g78
g1600
sg70
(dp1612
g146
g147
ssg72
(lp1613
g149
asbag64
(g133
g66
Ntp1614
Rp1615
(dp1616
g78
g1600
sg70
(dp1617
sg72
(lp1618
g64
(g65
g66
Ntp1619
Rp1620
(dp1621
g78
g1615
sg70
(dp1622
g80
I3
ssg72
(lp1623
g386
asbasbasbag64
(g127
g66
Ntp1624
Rp1625
(dp1626
g78
g1520
sg70
(dp1627
sg72
(lp1628
g64
(g133
g66
Ntp1629
Rp1630
(dp1631
g78
g1625
sg70
(dp1632
g138
g139
ssg72
(lp1633
g475
asbag64
(g133
g66
Ntp1634
Rp1635
(dp1636
g78
g1625
sg70
(dp1637
g146
g147
ssg72
(lp1638
g149
asbag64
(g133
g66
Ntp1639
Rp1640
(dp1641
g78
g1625
sg70
(dp1642
sg72
(lp1643
g64
(g65
g66
Ntp1644
Rp1645
(dp1646
g78
g1640
sg70
(dp1647
g80
I3
ssg72
(lp1648
g386
asbasbasbag64
(g127
g66
Ntp1649
Rp1650
(dp1651
g78
g1520
sg70
(dp1652
sg72
(lp1653
g64
(g133
g66
Ntp1654
Rp1655
(dp1656
g78
g1650
sg70
(dp1657
g138
g139
ssg72
(lp1658
g501
asbag64
(g133
g66
Ntp1659
Rp1660
(dp1661
g78
g1650
sg70
(dp1662
g146
g147
ssg72
(lp1663
g149
asbag64
(g133
g66
Ntp1664
Rp1665
(dp1666
g78
g1650
sg70
(dp1667
sg72
(lp1668
g64
(g65
g66
Ntp1669
Rp1670
(dp1671
g78
g1665
sg70
(dp1672
g80
I3
ssg72
(lp1673
g386
asbasbasbag64
(g127
g66
Ntp1674
Rp1675
(dp1676
g78
g1520
sg70
(dp1677
sg72
(lp1678
g64
(g133
g66
Ntp1679
Rp1680
(dp1681
g78
g1675
sg70
(dp1682
g138
g139
ssg72
(lp1683
g527
asbag64
(g133
g66
Ntp1684
Rp1685
(dp1686
g78
g1675
sg70
(dp1687
g146
g147
ssg72
(lp1688
g149
asbag64
(g133
g66
Ntp1689
Rp1690
(dp1691
g78
g1675
sg70
(dp1692
sg72
(lp1693
g64
(g65
g66
Ntp1694
Rp1695
(dp1696
g78
g1690
sg70
(dp1697
g80
I3
ssg72
(lp1698
g386
asbasbasbag64
(g127
g66
Ntp1699
Rp1700
(dp1701
g78
g1520
sg70
(dp1702
sg72
(lp1703
g64
(g133
g66
Ntp1704
Rp1705
(dp1706
g78
g1700
sg70
(dp1707
g138
g139
ssg72
(lp1708
g553
asbag64
(g133
g66
Ntp1709
Rp1710
(dp1711
g78
g1700
sg70
(dp1712
g146
g147
ssg72
(lp1713
g149
asbag64
(g133
g66
Ntp1714
Rp1715
(dp1716
g78
g1700
sg70
(dp1717
sg72
(lp1718
g64
(g65
g66
Ntp1719
Rp1720
(dp1721
g78
g1715
sg70
(dp1722
g80
I3
ssg72
(lp1723
g386
asbasbasbasbasbasbasbasbasbasbasbag64
(g127
g66
Ntp1724
Rp1725
(dp1726
g78
g123
sg70
(dp1727
sg72
(lp1728
g64
(g133
g66
Ntp1729
Rp1730
(dp1731
g78
g1725
sg70
(dp1732
g138
g139
ssg72
(lp1733
S'env'
p1734
asbag64
(g133
g66
Ntp1735
Rp1736
(dp1737
g78
g1725
sg70
(dp1738
g146
g147
ssg72
(lp1739
g149
asbag64
(g133
g66
Ntp1740
Rp1741
(dp1742
g78
g1725
sg70
(dp1743
sg72
(lp1744
g64
(g65
g66
Ntp1745
Rp1746
(dp1747
g78
g1741
sg70
(dp1748
g80
I5
ssg72
(lp1749
g64
(g74
g66
Ntp1750
Rp1751
(dp1752
g78
Nsg70
(dp1753
g80
I4
ssg72
(lp1754
g64
(g127
g66
Ntp1755
Rp1756
(dp1757
g78
g1751
sg70
(dp1758
sg72
(lp1759
g64
(g133
g66
Ntp1760
Rp1761
(dp1762
g78
g1756
sg70
(dp1763
g138
g139
ssg72
(lp1764
S'app_folders'
p1765
asbag64
(g133
g66
Ntp1766
Rp1767
(dp1768
g78
g1756
sg70
(dp1769
g146
g147
ssg72
(lp1770
g149
asbag64
(g133
g66
Ntp1771
Rp1772
(dp1773
g78
g1756
sg70
(dp1774
sg72
(lp1775
g64
(g65
g66
Ntp1776
Rp1777
(dp1778
g78
g1772
sg70
(dp1779
g80
I4
ssg72
(lp1780
S"set(['/home/marco/projects/milanel/web2py/applications/fragance/', '/home/marco/projects/milanel/web2py/applications/admin/'])"
p1781
asbasbasbag64
(g127
g66
Ntp1782
Rp1783
(dp1784
g78
g1751
sg70
(dp1785
sg72
(lp1786
g64
(g133
g66
Ntp1787
Rp1788
(dp1789
g78
g1783
sg70
(dp1790
g138
g139
ssg72
(lp1791
S'applications_parent'
p1792
asbag64
(g133
g66
Ntp1793
Rp1794
(dp1795
g78
g1783
sg70
(dp1796
g146
g147
ssg72
(lp1797
g149
asbag64
(g133
g66
Ntp1798
Rp1799
(dp1800
g78
g1783
sg70
(dp1801
sg72
(lp1802
g64
(g65
g66
Ntp1803
Rp1804
(dp1805
g78
g1799
sg70
(dp1806
g80
I4
ssg72
(lp1807
S'/home/marco/projects/milanel/web2py'
p1808
asbasbasbag64
(g127
g66
Ntp1809
Rp1810
(dp1811
g78
g1751
sg70
(dp1812
sg72
(lp1813
g64
(g133
g66
Ntp1814
Rp1815
(dp1816
g78
g1810
sg70
(dp1817
g138
g139
ssg72
(lp1818
S'cmd_args'
p1819
asbag64
(g133
g66
Ntp1820
Rp1821
(dp1822
g78
g1810
sg70
(dp1823
g146
g147
ssg72
(lp1824
g149
asbag64
(g133
g66
Ntp1825
Rp1826
(dp1827
g78
g1810
sg70
(dp1828
sg72
(lp1829
g64
(g65
g66
Ntp1830
Rp1831
(dp1832
g78
g1826
sg70
(dp1833
g80
I4
ssg72
(lp1834
g64
(g74
g66
Ntp1835
Rp1836
(dp1837
g78
Nsg70
(dp1838
g80
I3
ssg72
(lp1839
sbasbasbasbag64
(g127
g66
Ntp1840
Rp1841
(dp1842
g78
g1751
sg70
(dp1843
sg72
(lp1844
g64
(g133
g66
Ntp1845
Rp1846
(dp1847
g78
g1841
sg70
(dp1848
g138
g139
ssg72
(lp1849
S'cmd_options'
p1850
asbag64
(g133
g66
Ntp1851
Rp1852
(dp1853
g78
g1841
sg70
(dp1854
g146
g147
ssg72
(lp1855
g149
asbag64
(g133
g66
Ntp1856
Rp1857
(dp1858
g78
g1841
sg70
(dp1859
sg72
(lp1860
g64
(g65
g66
Ntp1861
Rp1862
(dp1863
g78
g1857
sg70
(dp1864
g80
I4
ssg72
(lp1865
S"<Values at 0x64d26c0: {'plain': False, 'winservice': '', 'pid_filename': 'httpserver.pid', 'nobanner': False, 'folder': '/home/marco/projects/milanel/web2py', 'import_models': False, 'test': None, 'socket_timeout': 5, 'timeout': 10, 'minthreads': None, 'extcron': False, 'nocron': False, 'interfaces': None, 'quiet': False, 'nogui': False, 'shutdown_timeout': 5, 'numthreads': None, 'bpython': False, 'server_name': 'malena', 'softcron': False, 'maxthreads': None, 'cronjob': False, 'ssl_certificate': '', 'request_queue_size': 5, 'port': 8000, 'password': 'asd', 'ssl_private_key': '', 'profiler_filename': None, 'taskbar': False, 'scheduler': None, 'config': '', 'ssl_ca_certificate': None, 'debuglevel': 30, 'args': [''], 'log_filename': 'httpserver.log', 'ip': '127.0.0.1', 'verbose': False, 'run': '', 'shell': None}>"
p1866
asbasbasbag64
(g127
g66
Ntp1867
Rp1868
(dp1869
g78
g1751
sg70
(dp1870
sg72
(lp1871
g64
(g133
g66
Ntp1872
Rp1873
(dp1874
g78
g1868
sg70
(dp1875
g138
g139
ssg72
(lp1876
S'db_sessions'
p1877
asbag64
(g133
g66
Ntp1878
Rp1879
(dp1880
g78
g1868
sg70
(dp1881
g146
g147
ssg72
(lp1882
g149
asbag64
(g133
g66
Ntp1883
Rp1884
(dp1885
g78
g1868
sg70
(dp1886
sg72
(lp1887
g64
(g65
g66
Ntp1888
Rp1889
(dp1890
g78
g1884
sg70
(dp1891
g80
I4
ssg72
(lp1892
S'set([])'
p1893
asbasbasbag64
(g127
g66
Ntp1894
Rp1895
(dp1896
g78
g1751
sg70
(dp1897
sg72
(lp1898
g64
(g133
g66
Ntp1899
Rp1900
(dp1901
g78
g1895
sg70
(dp1902
g138
g139
ssg72
(lp1903
S'debugging'
p1904
asbag64
(g133
g66
Ntp1905
Rp1906
(dp1907
g78
g1895
sg70
(dp1908
g146
g147
ssg72
(lp1909
g149
asbag64
(g133
g66
Ntp1910
Rp1911
(dp1912
g78
g1895
sg70
(dp1913
sg72
(lp1914
g64
(g65
g66
Ntp1915
Rp1916
(dp1917
g78
g1911
sg70
(dp1918
g80
I4
ssg72
(lp1919
g99
asbasbasbag64
(g127
g66
Ntp1920
Rp1921
(dp1922
g78
g1751
sg70
(dp1923
sg72
(lp1924
g64
(g133
g66
Ntp1925
Rp1926
(dp1927
g78
g1921
sg70
(dp1928
g138
g139
ssg72
(lp1929
S'gluon_parent'
p1930
asbag64
(g133
g66
Ntp1931
Rp1932
(dp1933
g78
g1921
sg70
(dp1934
g146
g147
ssg72
(lp1935
g149
asbag64
(g133
g66
Ntp1936
Rp1937
(dp1938
g78
g1921
sg70
(dp1939
sg72
(lp1940
g64
(g65
g66
Ntp1941
Rp1942
(dp1943
g78
g1937
sg70
(dp1944
g80
I4
ssg72
(lp1945
S'/home/marco/projects/milanel/web2py'
p1946
asbasbasbag64
(g127
g66
Ntp1947
Rp1948
(dp1949
g78
g1751
sg70
(dp1950
sg72
(lp1951
g64
(g133
g66
Ntp1952
Rp1953
(dp1954
g78
g1948
sg70
(dp1955
g138
g139
ssg72
(lp1956
S'http_accept'
p1957
asbag64
(g133
g66
Ntp1958
Rp1959
(dp1960
g78
g1948
sg70
(dp1961
g146
g147
ssg72
(lp1962
g149
asbag64
(g133
g66
Ntp1963
Rp1964
(dp1965
g78
g1948
sg70
(dp1966
sg72
(lp1967
g64
(g65
g66
Ntp1968
Rp1969
(dp1970
g78
g1964
sg70
(dp1971
g80
I4
ssg72
(lp1972
S'text/html,application/xhtml+xml,application/xml;q=0.9,*/*;q=0.8'
p1973
asbasbasbag64
(g127
g66
Ntp1974
Rp1975
(dp1976
g78
g1751
sg70
(dp1977
sg72
(lp1978
g64
(g133
g66
Ntp1979
Rp1980
(dp1981
g78
g1975
sg70
(dp1982
g138
g139
ssg72
(lp1983
S'http_accept_encoding'
p1984
asbag64
(g133
g66
Ntp1985
Rp1986
(dp1987
g78
g1975
sg70
(dp1988
g146
g147
ssg72
(lp1989
g149
asbag64
(g133
g66
Ntp1990
Rp1991
(dp1992
g78
g1975
sg70
(dp1993
sg72
(lp1994
g64
(g65
g66
Ntp1995
Rp1996
(dp1997
g78
g1991
sg70
(dp1998
g80
I4
ssg72
(lp1999
S'gzip, deflate'
p2000
asbasbasbag64
(g127
g66
Ntp2001
Rp2002
(dp2003
g78
g1751
sg70
(dp2004
sg72
(lp2005
g64
(g133
g66
Ntp2006
Rp2007
(dp2008
g78
g2002
sg70
(dp2009
g138
g139
ssg72
(lp2010
S'http_accept_language'
p2011
asbag64
(g133
g66
Ntp2012
Rp2013
(dp2014
g78
g2002
sg70
(dp2015
g146
g147
ssg72
(lp2016
g149
asbag64
(g133
g66
Ntp2017
Rp2018
(dp2019
g78
g2002
sg70
(dp2020
sg72
(lp2021
g64
(g65
g66
Ntp2022
Rp2023
(dp2024
g78
g2018
sg70
(dp2025
g80
I4
ssg72
(lp2026
S'es-ar,es;q=0.8,en-us;q=0.5,en;q=0.3'
p2027
asbasbasbag64
(g127
g66
Ntp2028
Rp2029
(dp2030
g78
g1751
sg70
(dp2031
sg72
(lp2032
g64
(g133
g66
Ntp2033
Rp2034
(dp2035
g78
g2029
sg70
(dp2036
g138
g139
ssg72
(lp2037
S'http_connection'
p2038
asbag64
(g133
g66
Ntp2039
Rp2040
(dp2041
g78
g2029
sg70
(dp2042
g146
g147
ssg72
(lp2043
g149
asbag64
(g133
g66
Ntp2044
Rp2045
(dp2046
g78
g2029
sg70
(dp2047
sg72
(lp2048
g64
(g65
g66
Ntp2049
Rp2050
(dp2051
g78
g2045
sg70
(dp2052
g80
I4
ssg72
(lp2053
S'keep-alive'
p2054
asbasbasbag64
(g127
g66
Ntp2055
Rp2056
(dp2057
g78
g1751
sg70
(dp2058
sg72
(lp2059
g64
(g133
g66
Ntp2060
Rp2061
(dp2062
g78
g2056
sg70
(dp2063
g138
g139
ssg72
(lp2064
S'http_cookie'
p2065
asbag64
(g133
g66
Ntp2066
Rp2067
(dp2068
g78
g2056
sg70
(dp2069
g146
g147
ssg72
(lp2070
g149
asbag64
(g133
g66
Ntp2071
Rp2072
(dp2073
g78
g2056
sg70
(dp2074
sg72
(lp2075
g64
(g65
g66
Ntp2076
Rp2077
(dp2078
g78
g2072
sg70
(dp2079
g80
I4
ssg72
(lp2080
S'__utma=96992031.1881515701.1331265087.1331598672.1331664875.13; __utmz=96992031.1331265087.1.1.utmcsr=(direct)|utmccn=(direct)|utmcmd=(none); session_id_welcome=127.0.0.1-bc1d4fe1-a82f-4886-9661-c21469c577ae; session_id_mulone=127.0.0.1-d00e5c6f-5e23-4faf-8f82-7871a8294546; session_id_pyforum=127.0.0.1-0f1c3970-4880-47c3-9813-2662fd402b76; session_id_admin=127.0.0.1-150cbe56-c1f9-4263-8cba-33ed406a366f; PHPSESSID=gq50mjm5dcdrobk0o08uhg8uj4; session_id_flisol2012=127.0.0.1-ed1db9bf-ad91-48d9-88d5-043d2b56127d; __utmc=96992031'
p2081
asbasbasbag64
(g127
g66
Ntp2082
Rp2083
(dp2084
g78
g1751
sg70
(dp2085
sg72
(lp2086
g64
(g133
g66
Ntp2087
Rp2088
(dp2089
g78
g2083
sg70
(dp2090
g138
g139
ssg72
(lp2091
S'http_host'
p2092
asbag64
(g133
g66
Ntp2093
Rp2094
(dp2095
g78
g2083
sg70
(dp2096
g146
g147
ssg72
(lp2097
g149
asbag64
(g133
g66
Ntp2098
Rp2099
(dp2100
g78
g2083
sg70
(dp2101
sg72
(lp2102
g64
(g65
g66
Ntp2103
Rp2104
(dp2105
g78
g2099
sg70
(dp2106
g80
I4
ssg72
(lp2107
S'127.0.0.1:8000'
p2108
asbasbasbag64
(g127
g66
Ntp2109
Rp2110
(dp2111
g78
g1751
sg70
(dp2112
sg72
(lp2113
g64
(g133
g66
Ntp2114
Rp2115
(dp2116
g78
g2110
sg70
(dp2117
g138
g139
ssg72
(lp2118
S'http_referer'
p2119
asbag64
(g133
g66
Ntp2120
Rp2121
(dp2122
g78
g2110
sg70
(dp2123
g146
g147
ssg72
(lp2124
g149
asbag64
(g133
g66
Ntp2125
Rp2126
(dp2127
g78
g2110
sg70
(dp2128
sg72
(lp2129
g64
(g65
g66
Ntp2130
Rp2131
(dp2132
g78
g2126
sg70
(dp2133
g80
I4
ssg72
(lp2134
S'http://127.0.0.1:8000/admin/default/design/fragance'
p2135
asbasbasbag64
(g127
g66
Ntp2136
Rp2137
(dp2138
g78
g1751
sg70
(dp2139
sg72
(lp2140
g64
(g133
g66
Ntp2141
Rp2142
(dp2143
g78
g2137
sg70
(dp2144
g138
g139
ssg72
(lp2145
S'http_user_agent'
p2146
asbag64
(g133
g66
Ntp2147
Rp2148
(dp2149
g78
g2137
sg70
(dp2150
g146
g147
ssg72
(lp2151
g149
asbag64
(g133
g66
Ntp2152
Rp2153
(dp2154
g78
g2137
sg70
(dp2155
sg72
(lp2156
g64
(g65
g66
Ntp2157
Rp2158
(dp2159
g78
g2153
sg70
(dp2160
g80
I4
ssg72
(lp2161
S'Mozilla/5.0 (X11; Linux x86_64; rv:11.0) Gecko/20100101 Firefox/11.0 Iceweasel/11.0'
p2162
asbasbasbag64
(g127
g66
Ntp2163
Rp2164
(dp2165
g78
g1751
sg70
(dp2166
sg72
(lp2167
g64
(g133
g66
Ntp2168
Rp2169
(dp2170
g78
g2164
sg70
(dp2171
g138
g139
ssg72
(lp2172
S'is_jython'
p2173
asbag64
(g133
g66
Ntp2174
Rp2175
(dp2176
g78
g2164
sg70
(dp2177
g146
g147
ssg72
(lp2178
g149
asbag64
(g133
g66
Ntp2179
Rp2180
(dp2181
g78
g2164
sg70
(dp2182
sg72
(lp2183
g64
(g65
g66
Ntp2184
Rp2185
(dp2186
g78
g2180
sg70
(dp2187
g80
I4
ssg72
(lp2188
g99
asbasbasbag64
(g127
g66
Ntp2189
Rp2190
(dp2191
g78
g1751
sg70
(dp2192
sg72
(lp2193
g64
(g133
g66
Ntp2194
Rp2195
(dp2196
g78
g2190
sg70
(dp2197
g138
g139
ssg72
(lp2198
S'is_pypy'
p2199
asbag64
(g133
g66
Ntp2200
Rp2201
(dp2202
g78
g2190
sg70
(dp2203
g146
g147
ssg72
(lp2204
g149
asbag64
(g133
g66
Ntp2205
Rp2206
(dp2207
g78
g2190
sg70
(dp2208
sg72
(lp2209
g64
(g65
g66
Ntp2210
Rp2211
(dp2212
g78
g2206
sg70
(dp2213
g80
I4
ssg72
(lp2214
g91
asbasbasbag64
(g127
g66
Ntp2215
Rp2216
(dp2217
g78
g1751
sg70
(dp2218
sg72
(lp2219
g64
(g133
g66
Ntp2220
Rp2221
(dp2222
g78
g2216
sg70
(dp2223
g138
g139
ssg72
(lp2224
S'path_info'
p2225
asbag64
(g133
g66
Ntp2226
Rp2227
(dp2228
g78
g2216
sg70
(dp2229
g146
g147
ssg72
(lp2230
g149
asbag64
(g133
g66
Ntp2231
Rp2232
(dp2233
g78
g2216
sg70
(dp2234
sg72
(lp2235
g64
(g65
g66
Ntp2236
Rp2237
(dp2238
g78
g2232
sg70
(dp2239
g80
I4
ssg72
(lp2240
S'/fragance/default/index'
p2241
asbasbasbag64
(g127
g66
Ntp2242
Rp2243
(dp2244
g78
g1751
sg70
(dp2245
sg72
(lp2246
g64
(g133
g66
Ntp2247
Rp2248
(dp2249
g78
g2243
sg70
(dp2250
g138
g139
ssg72
(lp2251
S'query_string'
p2252
asbag64
(g133
g66
Ntp2253
Rp2254
(dp2255
g78
g2243
sg70
(dp2256
g146
g147
ssg72
(lp2257
g149
asbag64
(g133
g66
Ntp2258
Rp2259
(dp2260
g78
g2243
sg70
(dp2261
sg72
(lp2262
g64
(g65
g66
Ntp2263
Rp2264
(dp2265
g78
g2259
sg70
(dp2266
g80
I4
ssg72
(lp2267
S''
p2268
asbasbasbag64
(g127
g66
Ntp2269
Rp2270
(dp2271
g78
g1751
sg70
(dp2272
sg72
(lp2273
g64
(g133
g66
Ntp2274
Rp2275
(dp2276
g78
g2270
sg70
(dp2277
g138
g139
ssg72
(lp2278
S'remote_addr'
p2279
asbag64
(g133
g66
Ntp2280
Rp2281
(dp2282
g78
g2270
sg70
(dp2283
g146
g147
ssg72
(lp2284
g149
asbag64
(g133
g66
Ntp2285
Rp2286
(dp2287
g78
g2270
sg70
(dp2288
sg72
(lp2289
g64
(g65
g66
Ntp2290
Rp2291
(dp2292
g78
g2286
sg70
(dp2293
g80
I4
ssg72
(lp2294
g270
asbasbasbag64
(g127
g66
Ntp2295
Rp2296
(dp2297
g78
g1751
sg70
(dp2298
sg72
(lp2299
g64
(g133
g66
Ntp2300
Rp2301
(dp2302
g78
g2296
sg70
(dp2303
g138
g139
ssg72
(lp2304
S'remote_port'
p2305
asbag64
(g133
g66
Ntp2306
Rp2307
(dp2308
g78
g2296
sg70
(dp2309
g146
g147
ssg72
(lp2310
g149
asbag64
(g133
g66
Ntp2311
Rp2312
(dp2313
g78
g2296
sg70
(dp2314
sg72
(lp2315
g64
(g65
g66
Ntp2316
Rp2317
(dp2318
g78
g2312
sg70
(dp2319
g80
I4
ssg72
(lp2320
S'38008'
p2321
asbasbasbag64
(g127
g66
Ntp2322
Rp2323
(dp2324
g78
g1751
sg70
(dp2325
sg72
(lp2326
g64
(g133
g66
Ntp2327
Rp2328
(dp2329
g78
g2323
sg70
(dp2330
g138
g139
ssg72
(lp2331
S'request_method'
p2332
asbag64
(g133
g66
Ntp2333
Rp2334
(dp2335
g78
g2323
sg70
(dp2336
g146
g147
ssg72
(lp2337
g149
asbag64
(g133
g66
Ntp2338
Rp2339
(dp2340
g78
g2323
sg70
(dp2341
sg72
(lp2342
g64
(g65
g66
Ntp2343
Rp2344
(dp2345
g78
g2339
sg70
(dp2346
g80
I4
ssg72
(lp2347
S'GET'
p2348
asbasbasbag64
(g127
g66
Ntp2349
Rp2350
(dp2351
g78
g1751
sg70
(dp2352
sg72
(lp2353
g64
(g133
g66
Ntp2354
Rp2355
(dp2356
g78
g2350
sg70
(dp2357
g138
g139
ssg72
(lp2358
S'script_name'
p2359
asbag64
(g133
g66
Ntp2360
Rp2361
(dp2362
g78
g2350
sg70
(dp2363
g146
g147
ssg72
(lp2364
g149
asbag64
(g133
g66
Ntp2365
Rp2366
(dp2367
g78
g2350
sg70
(dp2368
sg72
(lp2369
g64
(g65
g66
Ntp2370
Rp2371
(dp2372
g78
g2366
sg70
(dp2373
g80
I4
ssg72
(lp2374
S''
p2375
asbasbasbag64
(g127
g66
Ntp2376
Rp2377
(dp2378
g78
g1751
sg70
(dp2379
sg72
(lp2380
g64
(g133
g66
Ntp2381
Rp2382
(dp2383
g78
g2377
sg70
(dp2384
g138
g139
ssg72
(lp2385
S'server_name'
p2386
asbag64
(g133
g66
Ntp2387
Rp2388
(dp2389
g78
g2377
sg70
(dp2390
g146
g147
ssg72
(lp2391
g149
asbag64
(g133
g66
Ntp2392
Rp2393
(dp2394
g78
g2377
sg70
(dp2395
sg72
(lp2396
g64
(g65
g66
Ntp2397
Rp2398
(dp2399
g78
g2393
sg70
(dp2400
g80
I4
ssg72
(lp2401
S'malena'
p2402
asbasbasbag64
(g127
g66
Ntp2403
Rp2404
(dp2405
g78
g1751
sg70
(dp2406
sg72
(lp2407
g64
(g133
g66
Ntp2408
Rp2409
(dp2410
g78
g2404
sg70
(dp2411
g138
g139
ssg72
(lp2412
S'server_port'
p2413
asbag64
(g133
g66
Ntp2414
Rp2415
(dp2416
g78
g2404
sg70
(dp2417
g146
g147
ssg72
(lp2418
g149
asbag64
(g133
g66
Ntp2419
Rp2420
(dp2421
g78
g2404
sg70
(dp2422
sg72
(lp2423
g64
(g65
g66
Ntp2424
Rp2425
(dp2426
g78
g2420
sg70
(dp2427
g80
I4
ssg72
(lp2428
S'8000'
p2429
asbasbasbag64
(g127
g66
Ntp2430
Rp2431
(dp2432
g78
g1751
sg70
(dp2433
sg72
(lp2434
g64
(g133
g66
Ntp2435
Rp2436
(dp2437
g78
g2431
sg70
(dp2438
g138
g139
ssg72
(lp2439
S'server_protocol'
p2440
asbag64
(g133
g66
Ntp2441
Rp2442
(dp2443
g78
g2431
sg70
(dp2444
g146
g147
ssg72
(lp2445
g149
asbag64
(g133
g66
Ntp2446
Rp2447
(dp2448
g78
g2431
sg70
(dp2449
sg72
(lp2450
g64
(g65
g66
Ntp2451
Rp2452
(dp2453
g78
g2447
sg70
(dp2454
g80
I4
ssg72
(lp2455
S'HTTP/1.1'
p2456
asbasbasbag64
(g127
g66
Ntp2457
Rp2458
(dp2459
g78
g1751
sg70
(dp2460
sg72
(lp2461
g64
(g133
g66
Ntp2462
Rp2463
(dp2464
g78
g2458
sg70
(dp2465
g138
g139
ssg72
(lp2466
S'server_software'
p2467
asbag64
(g133
g66
Ntp2468
Rp2469
(dp2470
g78
g2458
sg70
(dp2471
g146
g147
ssg72
(lp2472
g149
asbag64
(g133
g66
Ntp2473
Rp2474
(dp2475
g78
g2458
sg70
(dp2476
sg72
(lp2477
g64
(g65
g66
Ntp2478
Rp2479
(dp2480
g78
g2474
sg70
(dp2481
g80
I4
ssg72
(lp2482
S'Rocket 1.2.4'
p2483
asbasbasbag64
(g127
g66
Ntp2484
Rp2485
(dp2486
g78
g1751
sg70
(dp2487
sg72
(lp2488
g64
(g133
g66
Ntp2489
Rp2490
(dp2491
g78
g2485
sg70
(dp2492
g138
g139
ssg72
(lp2493
S'web2py_crontype'
p2494
asbag64
(g133
g66
Ntp2495
Rp2496
(dp2497
g78
g2485
sg70
(dp2498
g146
g147
ssg72
(lp2499
g149
asbag64
(g133
g66
Ntp2500
Rp2501
(dp2502
g78
g2485
sg70
(dp2503
sg72
(lp2504
g64
(g65
g66
Ntp2505
Rp2506
(dp2507
g78
g2501
sg70
(dp2508
g80
I4
ssg72
(lp2509
S'hard'
p2510
asbasbasbag64
(g127
g66
Ntp2511
Rp2512
(dp2513
g78
g1751
sg70
(dp2514
sg72
(lp2515
g64
(g133
g66
Ntp2516
Rp2517
(dp2518
g78
g2512
sg70
(dp2519
g138
g139
ssg72
(lp2520
S'web2py_path'
p2521
asbag64
(g133
g66
Ntp2522
Rp2523
(dp2524
g78
g2512
sg70
(dp2525
g146
g147
ssg72
(lp2526
g149
asbag64
(g133
g66
Ntp2527
Rp2528
(dp2529
g78
g2512
sg70
(dp2530
sg72
(lp2531
g64
(g65
g66
Ntp2532
Rp2533
(dp2534
g78
g2528
sg70
(dp2535
g80
I4
ssg72
(lp2536
g1808
asbasbasbag64
(g127
g66
Ntp2537
Rp2538
(dp2539
g78
g1751
sg70
(dp2540
sg72
(lp2541
g64
(g133
g66
Ntp2542
Rp2543
(dp2544
g78
g2538
sg70
(dp2545
g138
g139
ssg72
(lp2546
S'web2py_version'
p2547
asbag64
(g133
g66
Ntp2548
Rp2549
(dp2550
g78
g2538
sg70
(dp2551
g146
g147
ssg72
(lp2552
g149
asbag64
(g133
g66
Ntp2553
Rp2554
(dp2555
g78
g2538
sg70
(dp2556
sg72
(lp2557
g64
(g65
g66
Ntp2558
Rp2559
(dp2560
g78
g2554
sg70
(dp2561
g80
I4
ssg72
(lp2562
g64
(g74
g66
Ntp2563
Rp2564
(dp2565
g78
Nsg70
(dp2566
g80
I3
ssg72
(lp2567
g64
(g127
g66
Ntp2568
Rp2569
(dp2570
g78
g2564
sg70
(dp2571
sg72
(lp2572
g64
(g133
g66
Ntp2573
Rp2574
(dp2575
g78
g2569
sg70
(dp2576
sg72
(lp2577
g64
(g65
g66
Ntp2578
Rp2579
(dp2580
g78
g2574
sg70
(dp2581
g80
I3
ssg72
(lp2582
S'1'
p2583
asbasbasbag64
(g127
g66
Ntp2584
Rp2585
(dp2586
g78
g2564
sg70
(dp2587
sg72
(lp2588
g64
(g133
g66
Ntp2589
Rp2590
(dp2591
g78
g2585
sg70
(dp2592
sg72
(lp2593
g64
(g65
g66
Ntp2594
Rp2595
(dp2596
g78
g2590
sg70
(dp2597
g80
I3
ssg72
(lp2598
S'99'
p2599
asbasbasbag64
(g127
g66
Ntp2600
Rp2601
(dp2602
g78
g2564
sg70
(dp2603
sg72
(lp2604
g64
(g133
g66
Ntp2605
Rp2606
(dp2607
g78
g2601
sg70
(dp2608
sg72
(lp2609
g64
(g65
g66
Ntp2610
Rp2611
(dp2612
g78
g2606
sg70
(dp2613
g80
I3
ssg72
(lp2614
S'7'
p2615
asbasbasbag64
(g127
g66
Ntp2616
Rp2617
(dp2618
g78
g2564
sg70
(dp2619
sg72
(lp2620
g64
(g133
g66
Ntp2621
Rp2622
(dp2623
g78
g2617
sg70
(dp2624
sg72
(lp2625
g64
(g65
g66
Ntp2626
Rp2627
(dp2628
g78
g2622
sg70
(dp2629
g80
I3
ssg72
(lp2630
S'datetime.datetime(2012, 3, 4, 22, 12, 8)'
p2631
asbasbasbag64
(g127
g66
Ntp2632
Rp2633
(dp2634
g78
g2564
sg70
(dp2635
sg72
(lp2636
g64
(g133
g66
Ntp2637
Rp2638
(dp2639
g78
g2633
sg70
(dp2640
sg72
(lp2641
g64
(g65
g66
Ntp2642
Rp2643
(dp2644
g78
g2638
sg70
(dp2645
g80
I3
ssg72
(lp2646
S'stable'
p2647
asbasbasbasbasbasbasbag64
(g127
g66
Ntp2648
Rp2649
(dp2650
g78
g1751
sg70
(dp2651
sg72
(lp2652
g64
(g133
g66
Ntp2653
Rp2654
(dp2655
g78
g2649
sg70
(dp2656
g138
g139
ssg72
(lp2657
S'wsgi_errors'
p2658
asbag64
(g133
g66
Ntp2659
Rp2660
(dp2661
g78
g2649
sg70
(dp2662
g146
g147
ssg72
(lp2663
g149
asbag64
(g133
g66
Ntp2664
Rp2665
(dp2666
g78
g2649
sg70
(dp2667
sg72
(lp2668
g64
(g65
g66
Ntp2669
Rp2670
(dp2671
g78
g2665
sg70
(dp2672
g80
I4
ssg72
(lp2673
S"<open file '<fdopen>', mode 'w' at 0x0000000002ed4b40>"
p2674
asbasbasbag64
(g127
g66
Ntp2675
Rp2676
(dp2677
g78
g1751
sg70
(dp2678
sg72
(lp2679
g64
(g133
g66
Ntp2680
Rp2681
(dp2682
g78
g2676
sg70
(dp2683
g138
g139
ssg72
(lp2684
S'wsgi_file_wrapper'
p2685
asbag64
(g133
g66
Ntp2686
Rp2687
(dp2688
g78
g2676
sg70
(dp2689
g146
g147
ssg72
(lp2690
g149
asbag64
(g133
g66
Ntp2691
Rp2692
(dp2693
g78
g2676
sg70
(dp2694
sg72
(lp2695
g64
(g65
g66
Ntp2696
Rp2697
(dp2698
g78
g2692
sg70
(dp2699
g80
I4
ssg72
(lp2700
S'<class wsgiref.util.FileWrapper at 0x0000000006f105c0>'
p2701
asbasbasbag64
(g127
g66
Ntp2702
Rp2703
(dp2704
g78
g1751
sg70
(dp2705
sg72
(lp2706
g64
(g133
g66
Ntp2707
Rp2708
(dp2709
g78
g2703
sg70
(dp2710
g138
g139
ssg72
(lp2711
S'wsgi_input'
p2712
asbag64
(g133
g66
Ntp2713
Rp2714
(dp2715
g78
g2703
sg70
(dp2716
g146
g147
ssg72
(lp2717
g149
asbag64
(g133
g66
Ntp2718
Rp2719
(dp2720
g78
g2703
sg70
(dp2721
sg72
(lp2722
g64
(g65
g66
Ntp2723
Rp2724
(dp2725
g78
g2719
sg70
(dp2726
g80
I4
ssg72
(lp2727
S'<socket._fileobject object at 0x0000000007bcb0d0>'
p2728
asbasbasbag64
(g127
g66
Ntp2729
Rp2730
(dp2731
g78
g1751
sg70
(dp2732
sg72
(lp2733
g64
(g133
g66
Ntp2734
Rp2735
(dp2736
g78
g2730
sg70
(dp2737
g138
g139
ssg72
(lp2738
S'wsgi_multiprocess'
p2739
asbag64
(g133
g66
Ntp2740
Rp2741
(dp2742
g78
g2730
sg70
(dp2743
g146
g147
ssg72
(lp2744
g149
asbag64
(g133
g66
Ntp2745
Rp2746
(dp2747
g78
g2730
sg70
(dp2748
sg72
(lp2749
g64
(g65
g66
Ntp2750
Rp2751
(dp2752
g78
g2746
sg70
(dp2753
g80
I4
ssg72
(lp2754
g99
asbasbasbag64
(g127
g66
Ntp2755
Rp2756
(dp2757
g78
g1751
sg70
(dp2758
sg72
(lp2759
g64
(g133
g66
Ntp2760
Rp2761
(dp2762
g78
g2756
sg70
(dp2763
g138
g139
ssg72
(lp2764
S'wsgi_multithread'
p2765
asbag64
(g133
g66
Ntp2766
Rp2767
(dp2768
g78
g2756
sg70
(dp2769
g146
g147
ssg72
(lp2770
g149
asbag64
(g133
g66
Ntp2771
Rp2772
(dp2773
g78
g2756
sg70
(dp2774
sg72
(lp2775
g64
(g65
g66
Ntp2776
Rp2777
(dp2778
g78
g2772
sg70
(dp2779
g80
I4
ssg72
(lp2780
g91
asbasbasbag64
(g127
g66
Ntp2781
Rp2782
(dp2783
g78
g1751
sg70
(dp2784
sg72
(lp2785
g64
(g133
g66
Ntp2786
Rp2787
(dp2788
g78
g2782
sg70
(dp2789
g138
g139
ssg72
(lp2790
S'wsgi_run_once'
p2791
asbag64
(g133
g66
Ntp2792
Rp2793
(dp2794
g78
g2782
sg70
(dp2795
g146
g147
ssg72
(lp2796
g149
asbag64
(g133
g66
Ntp2797
Rp2798
(dp2799
g78
g2782
sg70
(dp2800
sg72
(lp2801
g64
(g65
g66
Ntp2802
Rp2803
(dp2804
g78
g2798
sg70
(dp2805
g80
I4
ssg72
(lp2806
g99
asbasbasbag64
(g127
g66
Ntp2807
Rp2808
(dp2809
g78
g1751
sg70
(dp2810
sg72
(lp2811
g64
(g133
g66
Ntp2812
Rp2813
(dp2814
g78
g2808
sg70
(dp2815
g138
g139
ssg72
(lp2816
S'wsgi_url_scheme'
p2817
asbag64
(g133
g66
Ntp2818
Rp2819
(dp2820
g78
g2808
sg70
(dp2821
g146
g147
ssg72
(lp2822
g149
asbag64
(g133
g66
Ntp2823
Rp2824
(dp2825
g78
g2808
sg70
(dp2826
sg72
(lp2827
g64
(g65
g66
Ntp2828
Rp2829
(dp2830
g78
g2824
sg70
(dp2831
g80
I4
ssg72
(lp2832
S'http'
p2833
asbasbasbag64
(g127
g66
Ntp2834
Rp2835
(dp2836
g78
g1751
sg70
(dp2837
sg72
(lp2838
g64
(g133
g66
Ntp2839
Rp2840
(dp2841
g78
g2835
sg70
(dp2842
g138
g139
ssg72
(lp2843
S'wsgi_version'
p2844
asbag64
(g133
g66
Ntp2845
Rp2846
(dp2847
g78
g2835
sg70
(dp2848
g146
g147
ssg72
(lp2849
g149
asbag64
(g133
g66
Ntp2850
Rp2851
(dp2852
g78
g2835
sg70
(dp2853
sg72
(lp2854
g64
(g65
g66
Ntp2855
Rp2856
(dp2857
g78
g2851
sg70
(dp2858
g80
I4
ssg72
(lp2859
g64
(g74
g66
Ntp2860
Rp2861
(dp2862
g78
Nsg70
(dp2863
g80
I3
ssg72
(lp2864
g64
(g127
g66
Ntp2865
Rp2866
(dp2867
g78
g2861
sg70
(dp2868
sg72
(lp2869
g64
(g133
g66
Ntp2870
Rp2871
(dp2872
g78
g2866
sg70
(dp2873
sg72
(lp2874
g64
(g65
g66
Ntp2875
Rp2876
(dp2877
g78
g2871
sg70
(dp2878
g80
I3
ssg72
(lp2879
S'1'
p2880
asbasbasbag64
(g127
g66
Ntp2881
Rp2882
(dp2883
g78
g2861
sg70
(dp2884
sg72
(lp2885
g64
(g133
g66
Ntp2886
Rp2887
(dp2888
g78
g2882
sg70
(dp2889
sg72
(lp2890
g64
(g65
g66
Ntp2891
Rp2892
(dp2893
g78
g2887
sg70
(dp2894
g80
I3
ssg72
(lp2895
S'0'
p2896
asbasbasbasbasbasbasbasbasbasbasbag64
(g127
g66
Ntp2897
Rp2898
(dp2899
g78
g123
sg70
(dp2900
sg72
(lp2901
g64
(g133
g66
Ntp2902
Rp2903
(dp2904
g78
g2898
sg70
(dp2905
g138
g139
ssg72
(lp2906
S'extension'
p2907
asbag64
(g133
g66
Ntp2908
Rp2909
(dp2910
g78
g2898
sg70
(dp2911
g146
g147
ssg72
(lp2912
g149
asbag64
(g133
g66
Ntp2913
Rp2914
(dp2915
g78
g2898
sg70
(dp2916
sg72
(lp2917
g64
(g65
g66
Ntp2918
Rp2919
(dp2920
g78
g2914
sg70
(dp2921
g80
I5
ssg72
(lp2922
S'html'
p2923
asbasbasbag64
(g127
g66
Ntp2924
Rp2925
(dp2926
g78
g123
sg70
(dp2927
sg72
(lp2928
g64
(g133
g66
Ntp2929
Rp2930
(dp2931
g78
g2925
sg70
(dp2932
g138
g139
ssg72
(lp2933
S'folder'
p2934
asbag64
(g133
g66
Ntp2935
Rp2936
(dp2937
g78
g2925
sg70
(dp2938
g146
g147
ssg72
(lp2939
g149
asbag64
(g133
g66
Ntp2940
Rp2941
(dp2942
g78
g2925
sg70
(dp2943
sg72
(lp2944
g64
(g65
g66
Ntp2945
Rp2946
(dp2947
g78
g2941
sg70
(dp2948
g80
I5
ssg72
(lp2949
S'/home/marco/projects/milanel/web2py/applications/fragance/'
p2950
asbasbasbag64
(g127
g66
Ntp2951
Rp2952
(dp2953
g78
g123
sg70
(dp2954
sg72
(lp2955
g64
(g133
g66
Ntp2956
Rp2957
(dp2958
g78
g2952
sg70
(dp2959
g138
g139
ssg72
(lp2960
S'function'
p2961
asbag64
(g133
g66
Ntp2962
Rp2963
(dp2964
g78
g2952
sg70
(dp2965
g146
g147
ssg72
(lp2966
g149
asbag64
(g133
g66
Ntp2967
Rp2968
(dp2969
g78
g2952
sg70
(dp2970
sg72
(lp2971
g64
(g65
g66
Ntp2972
Rp2973
(dp2974
g78
g2968
sg70
(dp2975
g80
I5
ssg72
(lp2976
S'index'
p2977
asbasbasbag64
(g127
g66
Ntp2978
Rp2979
(dp2980
g78
g123
sg70
(dp2981
sg72
(lp2982
g64
(g133
g66
Ntp2983
Rp2984
(dp2985
g78
g2979
sg70
(dp2986
g138
g139
ssg72
(lp2987
S'get_vars'
p2988
asbag64
(g133
g66
Ntp2989
Rp2990
(dp2991
g78
g2979
sg70
(dp2992
g146
g147
ssg72
(lp2993
g149
asbag64
(g133
g66
Ntp2994
Rp2995
(dp2996
g78
g2979
sg70
(dp2997
sg72
(lp2998
g64
(g65
g66
Ntp2999
Rp3000
(dp3001
g78
g2995
sg70
(dp3002
g80
I5
ssg72
(lp3003
g64
(g74
g66
Ntp3004
Rp3005
(dp3006
g78
Nsg70
(dp3007
g80
I4
ssg72
(lp3008
sbasbasbasbag64
(g127
g66
Ntp3009
Rp3010
(dp3011
g78
g123
sg70
(dp3012
sg72
(lp3013
g64
(g133
g66
Ntp3014
Rp3015
(dp3016
g78
g3010
sg70
(dp3017
g138
g139
ssg72
(lp3018
S'global_settings'
p3019
asbag64
(g133
g66
Ntp3020
Rp3021
(dp3022
g78
g3010
sg70
(dp3023
g146
g147
ssg72
(lp3024
g149
asbag64
(g133
g66
Ntp3025
Rp3026
(dp3027
g78
g3010
sg70
(dp3028
sg72
(lp3029
g64
(g65
g66
Ntp3030
Rp3031
(dp3032
g78
g3026
sg70
(dp3033
g80
I5
ssg72
(lp3034
g64
(g74
g66
Ntp3035
Rp3036
(dp3037
g78
Nsg70
(dp3038
g80
I4
ssg72
(lp3039
g64
(g127
g66
Ntp3040
Rp3041
(dp3042
g78
g3036
sg70
(dp3043
sg72
(lp3044
g64
(g133
g66
Ntp3045
Rp3046
(dp3047
g78
g3041
sg70
(dp3048
g138
g139
ssg72
(lp3049
g1765
asbag64
(g133
g66
Ntp3050
Rp3051
(dp3052
g78
g3041
sg70
(dp3053
g146
g147
ssg72
(lp3054
g149
asbag64
(g133
g66
Ntp3055
Rp3056
(dp3057
g78
g3041
sg70
(dp3058
sg72
(lp3059
g64
(g65
g66
Ntp3060
Rp3061
(dp3062
g78
g3056
sg70
(dp3063
g80
I4
ssg72
(lp3064
S"set(['/home/marco/projects/milanel/web2py/applications/fragance/', '/home/marco/projects/milanel/web2py/applications/admin/'])"
p3065
asbasbasbag64
(g127
g66
Ntp3066
Rp3067
(dp3068
g78
g3036
sg70
(dp3069
sg72
(lp3070
g64
(g133
g66
Ntp3071
Rp3072
(dp3073
g78
g3067
sg70
(dp3074
g138
g139
ssg72
(lp3075
g1792
asbag64
(g133
g66
Ntp3076
Rp3077
(dp3078
g78
g3067
sg70
(dp3079
g146
g147
ssg72
(lp3080
g149
asbag64
(g133
g66
Ntp3081
Rp3082
(dp3083
g78
g3067
sg70
(dp3084
sg72
(lp3085
g64
(g65
g66
Ntp3086
Rp3087
(dp3088
g78
g3082
sg70
(dp3089
g80
I4
ssg72
(lp3090
g1808
asbasbasbag64
(g127
g66
Ntp3091
Rp3092
(dp3093
g78
g3036
sg70
(dp3094
sg72
(lp3095
g64
(g133
g66
Ntp3096
Rp3097
(dp3098
g78
g3092
sg70
(dp3099
g138
g139
ssg72
(lp3100
g1819
asbag64
(g133
g66
Ntp3101
Rp3102
(dp3103
g78
g3092
sg70
(dp3104
g146
g147
ssg72
(lp3105
g149
asbag64
(g133
g66
Ntp3106
Rp3107
(dp3108
g78
g3092
sg70
(dp3109
sg72
(lp3110
g64
(g65
g66
Ntp3111
Rp3112
(dp3113
g78
g3107
sg70
(dp3114
g80
I4
ssg72
(lp3115
g64
(g74
g66
Ntp3116
Rp3117
(dp3118
g78
Nsg70
(dp3119
g80
I3
ssg72
(lp3120
sbasbasbasbag64
(g127
g66
Ntp3121
Rp3122
(dp3123
g78
g3036
sg70
(dp3124
sg72
(lp3125
g64
(g133
g66
Ntp3126
Rp3127
(dp3128
g78
g3122
sg70
(dp3129
g138
g139
ssg72
(lp3130
g1850
asbag64
(g133
g66
Ntp3131
Rp3132
(dp3133
g78
g3122
sg70
(dp3134
g146
g147
ssg72
(lp3135
g149
asbag64
(g133
g66
Ntp3136
Rp3137
(dp3138
g78
g3122
sg70
(dp3139
sg72
(lp3140
g64
(g65
g66
Ntp3141
Rp3142
(dp3143
g78
g3137
sg70
(dp3144
g80
I4
ssg72
(lp3145
S"<Values at 0x64d26c0: {'plain': False, 'winservice': '', 'pid_filename': 'httpserver.pid', 'nobanner': False, 'folder': '/home/marco/projects/milanel/web2py', 'import_models': False, 'test': None, 'socket_timeout': 5, 'timeout': 10, 'minthreads': None, 'extcron': False, 'nocron': False, 'interfaces': None, 'quiet': False, 'nogui': False, 'shutdown_timeout': 5, 'numthreads': None, 'bpython': False, 'server_name': 'malena', 'softcron': False, 'maxthreads': None, 'cronjob': False, 'ssl_certificate': '', 'request_queue_size': 5, 'port': 8000, 'password': 'asd', 'ssl_private_key': '', 'profiler_filename': None, 'taskbar': False, 'scheduler': None, 'config': '', 'ssl_ca_certificate': None, 'debuglevel': 30, 'args': [''], 'log_filename': 'httpserver.log', 'ip': '127.0.0.1', 'verbose': False, 'run': '', 'shell': None}>"
p3146
asbasbasbag64
(g127
g66
Ntp3147
Rp3148
(dp3149
g78
g3036
sg70
(dp3150
sg72
(lp3151
g64
(g133
g66
Ntp3152
Rp3153
(dp3154
g78
g3148
sg70
(dp3155
g138
g139
ssg72
(lp3156
g1877
asbag64
(g133
g66
Ntp3157
Rp3158
(dp3159
g78
g3148
sg70
(dp3160
g146
g147
ssg72
(lp3161
g149
asbag64
(g133
g66
Ntp3162
Rp3163
(dp3164
g78
g3148
sg70
(dp3165
sg72
(lp3166
g64
(g65
g66
Ntp3167
Rp3168
(dp3169
g78
g3163
sg70
(dp3170
g80
I4
ssg72
(lp3171
S'set([])'
p3172
asbasbasbag64
(g127
g66
Ntp3173
Rp3174
(dp3175
g78
g3036
sg70
(dp3176
sg72
(lp3177
g64
(g133
g66
Ntp3178
Rp3179
(dp3180
g78
g3174
sg70
(dp3181
g138
g139
ssg72
(lp3182
g1904
asbag64
(g133
g66
Ntp3183
Rp3184
(dp3185
g78
g3174
sg70
(dp3186
g146
g147
ssg72
(lp3187
g149
asbag64
(g133
g66
Ntp3188
Rp3189
(dp3190
g78
g3174
sg70
(dp3191
sg72
(lp3192
g64
(g65
g66
Ntp3193
Rp3194
(dp3195
g78
g3189
sg70
(dp3196
g80
I4
ssg72
(lp3197
g99
asbasbasbag64
(g127
g66
Ntp3198
Rp3199
(dp3200
g78
g3036
sg70
(dp3201
sg72
(lp3202
g64
(g133
g66
Ntp3203
Rp3204
(dp3205
g78
g3199
sg70
(dp3206
g138
g139
ssg72
(lp3207
g1930
asbag64
(g133
g66
Ntp3208
Rp3209
(dp3210
g78
g3199
sg70
(dp3211
g146
g147
ssg72
(lp3212
g149
asbag64
(g133
g66
Ntp3213
Rp3214
(dp3215
g78
g3199
sg70
(dp3216
sg72
(lp3217
g64
(g65
g66
Ntp3218
Rp3219
(dp3220
g78
g3214
sg70
(dp3221
g80
I4
ssg72
(lp3222
g1946
asbasbasbag64
(g127
g66
Ntp3223
Rp3224
(dp3225
g78
g3036
sg70
(dp3226
sg72
(lp3227
g64
(g133
g66
Ntp3228
Rp3229
(dp3230
g78
g3224
sg70
(dp3231
g138
g139
ssg72
(lp3232
g2173
asbag64
(g133
g66
Ntp3233
Rp3234
(dp3235
g78
g3224
sg70
(dp3236
g146
g147
ssg72
(lp3237
g149
asbag64
(g133
g66
Ntp3238
Rp3239
(dp3240
g78
g3224
sg70
(dp3241
sg72
(lp3242
g64
(g65
g66
Ntp3243
Rp3244
(dp3245
g78
g3239
sg70
(dp3246
g80
I4
ssg72
(lp3247
g99
asbasbasbag64
(g127
g66
Ntp3248
Rp3249
(dp3250
g78
g3036
sg70
(dp3251
sg72
(lp3252
g64
(g133
g66
Ntp3253
Rp3254
(dp3255
g78
g3249
sg70
(dp3256
g138
g139
ssg72
(lp3257
g2199
asbag64
(g133
g66
Ntp3258
Rp3259
(dp3260
g78
g3249
sg70
(dp3261
g146
g147
ssg72
(lp3262
g149
asbag64
(g133
g66
Ntp3263
Rp3264
(dp3265
g78
g3249
sg70
(dp3266
sg72
(lp3267
g64
(g65
g66
Ntp3268
Rp3269
(dp3270
g78
g3264
sg70
(dp3271
g80
I4
ssg72
(lp3272
g91
asbasbasbag64
(g127
g66
Ntp3273
Rp3274
(dp3275
g78
g3036
sg70
(dp3276
sg72
(lp3277
g64
(g133
g66
Ntp3278
Rp3279
(dp3280
g78
g3274
sg70
(dp3281
g138
g139
ssg72
(lp3282
g2494
asbag64
(g133
g66
Ntp3283
Rp3284
(dp3285
g78
g3274
sg70
(dp3286
g146
g147
ssg72
(lp3287
g149
asbag64
(g133
g66
Ntp3288
Rp3289
(dp3290
g78
g3274
sg70
(dp3291
sg72
(lp3292
g64
(g65
g66
Ntp3293
Rp3294
(dp3295
g78
g3289
sg70
(dp3296
g80
I4
ssg72
(lp3297
g2510
asbasbasbag64
(g127
g66
Ntp3298
Rp3299
(dp3300
g78
g3036
sg70
(dp3301
sg72
(lp3302
g64
(g133
g66
Ntp3303
Rp3304
(dp3305
g78
g3299
sg70
(dp3306
g138
g139
ssg72
(lp3307
g2547
asbag64
(g133
g66
Ntp3308
Rp3309
(dp3310
g78
g3299
sg70
(dp3311
g146
g147
ssg72
(lp3312
g149
asbag64
(g133
g66
Ntp3313
Rp3314
(dp3315
g78
g3299
sg70
(dp3316
sg72
(lp3317
g64
(g65
g66
Ntp3318
Rp3319
(dp3320
g78
g3314
sg70
(dp3321
g80
I4
ssg72
(lp3322
g64
(g74
g66
Ntp3323
Rp3324
(dp3325
g78
Nsg70
(dp3326
g80
I3
ssg72
(lp3327
g64
(g127
g66
Ntp3328
Rp3329
(dp3330
g78
g3324
sg70
(dp3331
sg72
(lp3332
g64
(g133
g66
Ntp3333
Rp3334
(dp3335
g78
g3329
sg70
(dp3336
sg72
(lp3337
g64
(g65
g66
Ntp3338
Rp3339
(dp3340
g78
g3334
sg70
(dp3341
g80
I3
ssg72
(lp3342
S'1'
p3343
asbasbasbag64
(g127
g66
Ntp3344
Rp3345
(dp3346
g78
g3324
sg70
(dp3347
sg72
(lp3348
g64
(g133
g66
Ntp3349
Rp3350
(dp3351
g78
g3345
sg70
(dp3352
sg72
(lp3353
g64
(g65
g66
Ntp3354
Rp3355
(dp3356
g78
g3350
sg70
(dp3357
g80
I3
ssg72
(lp3358
S'99'
p3359
asbasbasbag64
(g127
g66
Ntp3360
Rp3361
(dp3362
g78
g3324
sg70
(dp3363
sg72
(lp3364
g64
(g133
g66
Ntp3365
Rp3366
(dp3367
g78
g3361
sg70
(dp3368
sg72
(lp3369
g64
(g65
g66
Ntp3370
Rp3371
(dp3372
g78
g3366
sg70
(dp3373
g80
I3
ssg72
(lp3374
S'7'
p3375
asbasbasbag64
(g127
g66
Ntp3376
Rp3377
(dp3378
g78
g3324
sg70
(dp3379
sg72
(lp3380
g64
(g133
g66
Ntp3381
Rp3382
(dp3383
g78
g3377
sg70
(dp3384
sg72
(lp3385
g64
(g65
g66
Ntp3386
Rp3387
(dp3388
g78
g3382
sg70
(dp3389
g80
I3
ssg72
(lp3390
S'datetime.datetime(2012, 3, 4, 22, 12, 8)'
p3391
asbasbasbag64
(g127
g66
Ntp3392
Rp3393
(dp3394
g78
g3324
sg70
(dp3395
sg72
(lp3396
g64
(g133
g66
Ntp3397
Rp3398
(dp3399
g78
g3393
sg70
(dp3400
sg72
(lp3401
g64
(g65
g66
Ntp3402
Rp3403
(dp3404
g78
g3398
sg70
(dp3405
g80
I3
ssg72
(lp3406
g2647
asbasbasbasbasbasbasbasbasbasbasbag64
(g127
g66
Ntp3407
Rp3408
(dp3409
g78
g123
sg70
(dp3410
sg72
(lp3411
g64
(g133
g66
Ntp3412
Rp3413
(dp3414
g78
g3408
sg70
(dp3415
g138
g139
ssg72
(lp3416
S'is_https'
p3417
asbag64
(g133
g66
Ntp3418
Rp3419
(dp3420
g78
g3408
sg70
(dp3421
g146
g147
ssg72
(lp3422
g149
asbag64
(g133
g66
Ntp3423
Rp3424
(dp3425
g78
g3408
sg70
(dp3426
sg72
(lp3427
g64
(g65
g66
Ntp3428
Rp3429
(dp3430
g78
g3424
sg70
(dp3431
g80
I5
ssg72
(lp3432
g99
asbasbasbag64
(g127
g66
Ntp3433
Rp3434
(dp3435
g78
g123
sg70
(dp3436
sg72
(lp3437
g64
(g133
g66
Ntp3438
Rp3439
(dp3440
g78
g3434
sg70
(dp3441
g138
g139
ssg72
(lp3442
S'is_local'
p3443
asbag64
(g133
g66
Ntp3444
Rp3445
(dp3446
g78
g3434
sg70
(dp3447
g146
g147
ssg72
(lp3448
g149
asbag64
(g133
g66
Ntp3449
Rp3450
(dp3451
g78
g3434
sg70
(dp3452
sg72
(lp3453
g64
(g65
g66
Ntp3454
Rp3455
(dp3456
g78
g3450
sg70
(dp3457
g80
I5
ssg72
(lp3458
g91
asbasbasbag64
(g127
g66
Ntp3459
Rp3460
(dp3461
g78
g123
sg70
(dp3462
sg72
(lp3463
g64
(g133
g66
Ntp3464
Rp3465
(dp3466
g78
g3460
sg70
(dp3467
g138
g139
ssg72
(lp3468
S'is_restful'
p3469
asbag64
(g133
g66
Ntp3470
Rp3471
(dp3472
g78
g3460
sg70
(dp3473
g146
g147
ssg72
(lp3474
g149
asbag64
(g133
g66
Ntp3475
Rp3476
(dp3477
g78
g3460
sg70
(dp3478
sg72
(lp3479
g64
(g65
g66
Ntp3480
Rp3481
(dp3482
g78
g3476
sg70
(dp3483
g80
I5
ssg72
(lp3484
g99
asbasbasbag64
(g127
g66
Ntp3485
Rp3486
(dp3487
g78
g123
sg70
(dp3488
sg72
(lp3489
g64
(g133
g66
Ntp3490
Rp3491
(dp3492
g78
g3486
sg70
(dp3493
g138
g139
ssg72
(lp3494
S'now'
p3495
asbag64
(g133
g66
Ntp3496
Rp3497
(dp3498
g78
g3486
sg70
(dp3499
g146
g147
ssg72
(lp3500
g149
asbag64
(g133
g66
Ntp3501
Rp3502
(dp3503
g78
g3486
sg70
(dp3504
sg72
(lp3505
g64
(g65
g66
Ntp3506
Rp3507
(dp3508
g78
g3502
sg70
(dp3509
g80
I5
ssg72
(lp3510
S'datetime.datetime(2012, 3, 13, 23, 25, 7, 827570)'
p3511
asbasbasbag64
(g127
g66
Ntp3512
Rp3513
(dp3514
g78
g123
sg70
(dp3515
sg72
(lp3516
g64
(g133
g66
Ntp3517
Rp3518
(dp3519
g78
g3513
sg70
(dp3520
g138
g139
ssg72
(lp3521
S'post_vars'
p3522
asbag64
(g133
g66
Ntp3523
Rp3524
(dp3525
g78
g3513
sg70
(dp3526
g146
g147
ssg72
(lp3527
g149
asbag64
(g133
g66
Ntp3528
Rp3529
(dp3530
g78
g3513
sg70
(dp3531
sg72
(lp3532
g64
(g65
g66
Ntp3533
Rp3534
(dp3535
g78
g3529
sg70
(dp3536
g80
I5
ssg72
(lp3537
g64
(g74
g66
Ntp3538
Rp3539
(dp3540
g78
Nsg70
(dp3541
g80
I4
ssg72
(lp3542
sbasbasbasbag64
(g127
g66
Ntp3543
Rp3544
(dp3545
g78
g123
sg70
(dp3546
sg72
(lp3547
g64
(g133
g66
Ntp3548
Rp3549
(dp3550
g78
g3544
sg70
(dp3551
g138
g139
ssg72
(lp3552
S'url'
p3553
asbag64
(g133
g66
Ntp3554
Rp3555
(dp3556
g78
g3544
sg70
(dp3557
g146
g147
ssg72
(lp3558
g149
asbag64
(g133
g66
Ntp3559
Rp3560
(dp3561
g78
g3544
sg70
(dp3562
sg72
(lp3563
g64
(g65
g66
Ntp3564
Rp3565
(dp3566
g78
g3560
sg70
(dp3567
g80
I5
ssg72
(lp3568
S'/fragance/default/index'
p3569
asbasbasbag64
(g127
g66
Ntp3570
Rp3571
(dp3572
g78
g123
sg70
(dp3573
sg72
(lp3574
g64
(g133
g66
Ntp3575
Rp3576
(dp3577
g78
g3571
sg70
(dp3578
g138
g139
ssg72
(lp3579
S'utcnow'
p3580
asbag64
(g133
g66
Ntp3581
Rp3582
(dp3583
g78
g3571
sg70
(dp3584
g146
g147
ssg72
(lp3585
g149
asbag64
(g133
g66
Ntp3586
Rp3587
(dp3588
g78
g3571
sg70
(dp3589
sg72
(lp3590
g64
(g65
g66
Ntp3591
Rp3592
(dp3593
g78
g3587
sg70
(dp3594
g80
I5
ssg72
(lp3595
S'datetime.datetime(2012, 3, 14, 2, 25, 7, 827721.0)'
p3596
asbasbasbag64
(g127
g66
Ntp3597
Rp3598
(dp3599
g78
g123
sg70
(dp3600
sg72
(lp3601
g64
(g133
g66
Ntp3602
Rp3603
(dp3604
g78
g3598
sg70
(dp3605
g138
g139
ssg72
(lp3606
S'uuid'
p3607
asbag64
(g133
g66
Ntp3608
Rp3609
(dp3610
g78
g3598
sg70
(dp3611
g146
g147
ssg72
(lp3612
g149
asbag64
(g133
g66
Ntp3613
Rp3614
(dp3615
g78
g3598
sg70
(dp3616
sg72
(lp3617
g64
(g65
g66
Ntp3618
Rp3619
(dp3620
g78
g3614
sg70
(dp3621
g80
I5
ssg72
(lp3622
S'fragance/127.0.0.1.2012-03-13.23-25-07.52f0b125-eee9-42f3-851e-6e6c7b482faa'
p3623
asbasbasbag64
(g127
g66
Ntp3624
Rp3625
(dp3626
g78
g123
sg70
(dp3627
sg72
(lp3628
g64
(g133
g66
Ntp3629
Rp3630
(dp3631
g78
g3625
sg70
(dp3632
g138
g139
ssg72
(lp3633
S'vars'
p3634
asbag64
(g133
g66
Ntp3635
Rp3636
(dp3637
g78
g3625
sg70
(dp3638
g146
g147
ssg72
(lp3639
g149
asbag64
(g133
g66
Ntp3640
Rp3641
(dp3642
g78
g3625
sg70
(dp3643
sg72
(lp3644
g64
(g65
g66
Ntp3645
Rp3646
(dp3647
g78
g3641
sg70
(dp3648
g80
I5
ssg72
(lp3649
g64
(g74
g66
Ntp3650
Rp3651
(dp3652
g78
Nsg70
(dp3653
g80
I4
ssg72
(lp3654
sbasbasbasbag64
(g127
g66
Ntp3655
Rp3656
(dp3657
g78
g123
sg70
(dp3658
sg72
(lp3659
g64
(g133
g66
Ntp3660
Rp3661
(dp3662
g78
g3656
sg70
(dp3663
g138
g139
ssg72
(lp3664
S'wsgi'
p3665
asbag64
(g133
g66
Ntp3666
Rp3667
(dp3668
g78
g3656
sg70
(dp3669
g146
g147
ssg72
(lp3670
g149
asbag64
(g133
g66
Ntp3671
Rp3672
(dp3673
g78
g3656
sg70
(dp3674
sg72
(lp3675
g64
(g65
g66
Ntp3676
Rp3677
(dp3678
g78
g3672
sg70
(dp3679
g80
I5
ssg72
(lp3680
g64
(g74
g66
Ntp3681
Rp3682
(dp3683
g78
Nsg70
(dp3684
g80
I4
ssg72
(lp3685
g64
(g127
g66
Ntp3686
Rp3687
(dp3688
g78
g3682
sg70
(dp3689
sg72
(lp3690
g64
(g133
g66
Ntp3691
Rp3692
(dp3693
g78
g3687
sg70
(dp3694
g138
g139
ssg72
(lp3695
S'environ'
p3696
asbag64
(g133
g66
Ntp3697
Rp3698
(dp3699
g78
g3687
sg70
(dp3700
g146
g147
ssg72
(lp3701
g149
asbag64
(g133
g66
Ntp3702
Rp3703
(dp3704
g78
g3687
sg70
(dp3705
sg72
(lp3706
g64
(g65
g66
Ntp3707
Rp3708
(dp3709
g78
g3703
sg70
(dp3710
g80
I4
ssg72
(lp3711
g64
(g74
g66
Ntp3712
Rp3713
(dp3714
g78
Nsg70
(dp3715
g80
I3
ssg72
(lp3716
g64
(g127
g66
Ntp3717
Rp3718
(dp3719
g78
g3713
sg70
(dp3720
sg72
(lp3721
g64
(g133
g66
Ntp3722
Rp3723
(dp3724
g78
g3718
sg70
(dp3725
g138
g139
ssg72
(lp3726
S'HTTP_ACCEPT'
p3727
asbag64
(g133
g66
Ntp3728
Rp3729
(dp3730
g78
g3718
sg70
(dp3731
g146
g147
ssg72
(lp3732
g149
asbag64
(g133
g66
Ntp3733
Rp3734
(dp3735
g78
g3718
sg70
(dp3736
sg72
(lp3737
g64
(g65
g66
Ntp3738
Rp3739
(dp3740
g78
g3734
sg70
(dp3741
g80
I3
ssg72
(lp3742
g1973
asbasbasbag64
(g127
g66
Ntp3743
Rp3744
(dp3745
g78
g3713
sg70
(dp3746
sg72
(lp3747
g64
(g133
g66
Ntp3748
Rp3749
(dp3750
g78
g3744
sg70
(dp3751
g138
g139
ssg72
(lp3752
S'HTTP_ACCEPT_ENCODING'
p3753
asbag64
(g133
g66
Ntp3754
Rp3755
(dp3756
g78
g3744
sg70
(dp3757
g146
g147
ssg72
(lp3758
g149
asbag64
(g133
g66
Ntp3759
Rp3760
(dp3761
g78
g3744
sg70
(dp3762
sg72
(lp3763
g64
(g65
g66
Ntp3764
Rp3765
(dp3766
g78
g3760
sg70
(dp3767
g80
I3
ssg72
(lp3768
g2000
asbasbasbag64
(g127
g66
Ntp3769
Rp3770
(dp3771
g78
g3713
sg70
(dp3772
sg72
(lp3773
g64
(g133
g66
Ntp3774
Rp3775
(dp3776
g78
g3770
sg70
(dp3777
g138
g139
ssg72
(lp3778
S'HTTP_ACCEPT_LANGUAGE'
p3779
asbag64
(g133
g66
Ntp3780
Rp3781
(dp3782
g78
g3770
sg70
(dp3783
g146
g147
ssg72
(lp3784
g149
asbag64
(g133
g66
Ntp3785
Rp3786
(dp3787
g78
g3770
sg70
(dp3788
sg72
(lp3789
g64
(g65
g66
Ntp3790
Rp3791
(dp3792
g78
g3786
sg70
(dp3793
g80
I3
ssg72
(lp3794
g2027
asbasbasbag64
(g127
g66
Ntp3795
Rp3796
(dp3797
g78
g3713
sg70
(dp3798
sg72
(lp3799
g64
(g133
g66
Ntp3800
Rp3801
(dp3802
g78
g3796
sg70
(dp3803
g138
g139
ssg72
(lp3804
S'HTTP_CONNECTION'
p3805
asbag64
(g133
g66
Ntp3806
Rp3807
(dp3808
g78
g3796
sg70
(dp3809
g146
g147
ssg72
(lp3810
g149
asbag64
(g133
g66
Ntp3811
Rp3812
(dp3813
g78
g3796
sg70
(dp3814
sg72
(lp3815
g64
(g65
g66
Ntp3816
Rp3817
(dp3818
g78
g3812
sg70
(dp3819
g80
I3
ssg72
(lp3820
g2054
asbasbasbag64
(g127
g66
Ntp3821
Rp3822
(dp3823
g78
g3713
sg70
(dp3824
sg72
(lp3825
g64
(g133
g66
Ntp3826
Rp3827
(dp3828
g78
g3822
sg70
(dp3829
g138
g139
ssg72
(lp3830
S'HTTP_COOKIE'
p3831
asbag64
(g133
g66
Ntp3832
Rp3833
(dp3834
g78
g3822
sg70
(dp3835
g146
g147
ssg72
(lp3836
g149
asbag64
(g133
g66
Ntp3837
Rp3838
(dp3839
g78
g3822
sg70
(dp3840
sg72
(lp3841
g64
(g65
g66
Ntp3842
Rp3843
(dp3844
g78
g3838
sg70
(dp3845
g80
I3
ssg72
(lp3846
g2081
asbasbasbag64
(g127
g66
Ntp3847
Rp3848
(dp3849
g78
g3713
sg70
(dp3850
sg72
(lp3851
g64
(g133
g66
Ntp3852
Rp3853
(dp3854
g78
g3848
sg70
(dp3855
g138
g139
ssg72
(lp3856
S'HTTP_HOST'
p3857
asbag64
(g133
g66
Ntp3858
Rp3859
(dp3860
g78
g3848
sg70
(dp3861
g146
g147
ssg72
(lp3862
g149
asbag64
(g133
g66
Ntp3863
Rp3864
(dp3865
g78
g3848
sg70
(dp3866
sg72
(lp3867
g64
(g65
g66
Ntp3868
Rp3869
(dp3870
g78
g3864
sg70
(dp3871
g80
I3
ssg72
(lp3872
g2108
asbasbasbag64
(g127
g66
Ntp3873
Rp3874
(dp3875
g78
g3713
sg70
(dp3876
sg72
(lp3877
g64
(g133
g66
Ntp3878
Rp3879
(dp3880
g78
g3874
sg70
(dp3881
g138
g139
ssg72
(lp3882
S'HTTP_REFERER'
p3883
asbag64
(g133
g66
Ntp3884
Rp3885
(dp3886
g78
g3874
sg70
(dp3887
g146
g147
ssg72
(lp3888
g149
asbag64
(g133
g66
Ntp3889
Rp3890
(dp3891
g78
g3874
sg70
(dp3892
sg72
(lp3893
g64
(g65
g66
Ntp3894
Rp3895
(dp3896
g78
g3890
sg70
(dp3897
g80
I3
ssg72
(lp3898
g2135
asbasbasbag64
(g127
g66
Ntp3899
Rp3900
(dp3901
g78
g3713
sg70
(dp3902
sg72
(lp3903
g64
(g133
g66
Ntp3904
Rp3905
(dp3906
g78
g3900
sg70
(dp3907
g138
g139
ssg72
(lp3908
S'HTTP_USER_AGENT'
p3909
asbag64
(g133
g66
Ntp3910
Rp3911
(dp3912
g78
g3900
sg70
(dp3913
g146
g147
ssg72
(lp3914
g149
asbag64
(g133
g66
Ntp3915
Rp3916
(dp3917
g78
g3900
sg70
(dp3918
sg72
(lp3919
g64
(g65
g66
Ntp3920
Rp3921
(dp3922
g78
g3916
sg70
(dp3923
g80
I3
ssg72
(lp3924
g2162
asbasbasbag64
(g127
g66
Ntp3925
Rp3926
(dp3927
g78
g3713
sg70
(dp3928
sg72
(lp3929
g64
(g133
g66
Ntp3930
Rp3931
(dp3932
g78
g3926
sg70
(dp3933
g138
g139
ssg72
(lp3934
S'PATH_INFO'
p3935
asbag64
(g133
g66
Ntp3936
Rp3937
(dp3938
g78
g3926
sg70
(dp3939
g146
g147
ssg72
(lp3940
g149
asbag64
(g133
g66
Ntp3941
Rp3942
(dp3943
g78
g3926
sg70
(dp3944
sg72
(lp3945
g64
(g65
g66
Ntp3946
Rp3947
(dp3948
g78
g3942
sg70
(dp3949
g80
I3
ssg72
(lp3950
g2241
asbasbasbag64
(g127
g66
Ntp3951
Rp3952
(dp3953
g78
g3713
sg70
(dp3954
sg72
(lp3955
g64
(g133
g66
Ntp3956
Rp3957
(dp3958
g78
g3952
sg70
(dp3959
g138
g139
ssg72
(lp3960
S'QUERY_STRING'
p3961
asbag64
(g133
g66
Ntp3962
Rp3963
(dp3964
g78
g3952
sg70
(dp3965
g146
g147
ssg72
(lp3966
g149
asbag64
(g133
g66
Ntp3967
Rp3968
(dp3969
g78
g3952
sg70
(dp3970
sg72
(lp3971
g64
(g65
g66
Ntp3972
Rp3973
(dp3974
g78
g3968
sg70
(dp3975
g80
I3
ssg72
(lp3976
g2268
asbasbasbag64
(g127
g66
Ntp3977
Rp3978
(dp3979
g78
g3713
sg70
(dp3980
sg72
(lp3981
g64
(g133
g66
Ntp3982
Rp3983
(dp3984
g78
g3978
sg70
(dp3985
g138
g139
ssg72
(lp3986
S'REMOTE_ADDR'
p3987
asbag64
(g133
g66
Ntp3988
Rp3989
(dp3990
g78
g3978
sg70
(dp3991
g146
g147
ssg72
(lp3992
g149
asbag64
(g133
g66
Ntp3993
Rp3994
(dp3995
g78
g3978
sg70
(dp3996
sg72
(lp3997
g64
(g65
g66
Ntp3998
Rp3999
(dp4000
g78
g3994
sg70
(dp4001
g80
I3
ssg72
(lp4002
g270
asbasbasbag64
(g127
g66
Ntp4003
Rp4004
(dp4005
g78
g3713
sg70
(dp4006
sg72
(lp4007
g64
(g133
g66
Ntp4008
Rp4009
(dp4010
g78
g4004
sg70
(dp4011
g138
g139
ssg72
(lp4012
S'REMOTE_PORT'
p4013
asbag64
(g133
g66
Ntp4014
Rp4015
(dp4016
g78
g4004
sg70
(dp4017
g146
g147
ssg72
(lp4018
g149
asbag64
(g133
g66
Ntp4019
Rp4020
(dp4021
g78
g4004
sg70
(dp4022
sg72
(lp4023
g64
(g65
g66
Ntp4024
Rp4025
(dp4026
g78
g4020
sg70
(dp4027
g80
I3
ssg72
(lp4028
g2321
asbasbasbag64
(g127
g66
Ntp4029
Rp4030
(dp4031
g78
g3713
sg70
(dp4032
sg72
(lp4033
g64
(g133
g66
Ntp4034
Rp4035
(dp4036
g78
g4030
sg70
(dp4037
g138
g139
ssg72
(lp4038
S'REQUEST_METHOD'
p4039
asbag64
(g133
g66
Ntp4040
Rp4041
(dp4042
g78
g4030
sg70
(dp4043
g146
g147
ssg72
(lp4044
g149
asbag64
(g133
g66
Ntp4045
Rp4046
(dp4047
g78
g4030
sg70
(dp4048
sg72
(lp4049
g64
(g65
g66
Ntp4050
Rp4051
(dp4052
g78
g4046
sg70
(dp4053
g80
I3
ssg72
(lp4054
g2348
asbasbasbag64
(g127
g66
Ntp4055
Rp4056
(dp4057
g78
g3713
sg70
(dp4058
sg72
(lp4059
g64
(g133
g66
Ntp4060
Rp4061
(dp4062
g78
g4056
sg70
(dp4063
g138
g139
ssg72
(lp4064
S'SCRIPT_NAME'
p4065
asbag64
(g133
g66
Ntp4066
Rp4067
(dp4068
g78
g4056
sg70
(dp4069
g146
g147
ssg72
(lp4070
g149
asbag64
(g133
g66
Ntp4071
Rp4072
(dp4073
g78
g4056
sg70
(dp4074
sg72
(lp4075
g64
(g65
g66
Ntp4076
Rp4077
(dp4078
g78
g4072
sg70
(dp4079
g80
I3
ssg72
(lp4080
g2375
asbasbasbag64
(g127
g66
Ntp4081
Rp4082
(dp4083
g78
g3713
sg70
(dp4084
sg72
(lp4085
g64
(g133
g66
Ntp4086
Rp4087
(dp4088
g78
g4082
sg70
(dp4089
g138
g139
ssg72
(lp4090
S'SERVER_NAME'
p4091
asbag64
(g133
g66
Ntp4092
Rp4093
(dp4094
g78
g4082
sg70
(dp4095
g146
g147
ssg72
(lp4096
g149
asbag64
(g133
g66
Ntp4097
Rp4098
(dp4099
g78
g4082
sg70
(dp4100
sg72
(lp4101
g64
(g65
g66
Ntp4102
Rp4103
(dp4104
g78
g4098
sg70
(dp4105
g80
I3
ssg72
(lp4106
g2402
asbasbasbag64
(g127
g66
Ntp4107
Rp4108
(dp4109
g78
g3713
sg70
(dp4110
sg72
(lp4111
g64
(g133
g66
Ntp4112
Rp4113
(dp4114
g78
g4108
sg70
(dp4115
g138
g139
ssg72
(lp4116
S'SERVER_PORT'
p4117
asbag64
(g133
g66
Ntp4118
Rp4119
(dp4120
g78
g4108
sg70
(dp4121
g146
g147
ssg72
(lp4122
g149
asbag64
(g133
g66
Ntp4123
Rp4124
(dp4125
g78
g4108
sg70
(dp4126
sg72
(lp4127
g64
(g65
g66
Ntp4128
Rp4129
(dp4130
g78
g4124
sg70
(dp4131
g80
I3
ssg72
(lp4132
g2429
asbasbasbag64
(g127
g66
Ntp4133
Rp4134
(dp4135
g78
g3713
sg70
(dp4136
sg72
(lp4137
g64
(g133
g66
Ntp4138
Rp4139
(dp4140
g78
g4134
sg70
(dp4141
g138
g139
ssg72
(lp4142
S'SERVER_PROTOCOL'
p4143
asbag64
(g133
g66
Ntp4144
Rp4145
(dp4146
g78
g4134
sg70
(dp4147
g146
g147
ssg72
(lp4148
g149
asbag64
(g133
g66
Ntp4149
Rp4150
(dp4151
g78
g4134
sg70
(dp4152
sg72
(lp4153
g64
(g65
g66
Ntp4154
Rp4155
(dp4156
g78
g4150
sg70
(dp4157
g80
I3
ssg72
(lp4158
g2456
asbasbasbag64
(g127
g66
Ntp4159
Rp4160
(dp4161
g78
g3713
sg70
(dp4162
sg72
(lp4163
g64
(g133
g66
Ntp4164
Rp4165
(dp4166
g78
g4160
sg70
(dp4167
g138
g139
ssg72
(lp4168
S'SERVER_SOFTWARE'
p4169
asbag64
(g133
g66
Ntp4170
Rp4171
(dp4172
g78
g4160
sg70
(dp4173
g146
g147
ssg72
(lp4174
g149
asbag64
(g133
g66
Ntp4175
Rp4176
(dp4177
g78
g4160
sg70
(dp4178
sg72
(lp4179
g64
(g65
g66
Ntp4180
Rp4181
(dp4182
g78
g4176
sg70
(dp4183
g80
I3
ssg72
(lp4184
g2483
asbasbasbag64
(g127
g66
Ntp4185
Rp4186
(dp4187
g78
g3713
sg70
(dp4188
sg72
(lp4189
g64
(g133
g66
Ntp4190
Rp4191
(dp4192
g78
g4186
sg70
(dp4193
g138
g139
ssg72
(lp4194
S'wsgi.errors'
p4195
asbag64
(g133
g66
Ntp4196
Rp4197
(dp4198
g78
g4186
sg70
(dp4199
g146
g147
ssg72
(lp4200
g149
asbag64
(g133
g66
Ntp4201
Rp4202
(dp4203
g78
g4186
sg70
(dp4204
sg72
(lp4205
g64
(g65
g66
Ntp4206
Rp4207
(dp4208
g78
g4202
sg70
(dp4209
g80
I3
ssg72
(lp4210
S"<open file '<fdopen>', mode 'w' at 0x0000000002ed4b40>"
p4211
asbasbasbag64
(g127
g66
Ntp4212
Rp4213
(dp4214
g78
g3713
sg70
(dp4215
sg72
(lp4216
g64
(g133
g66
Ntp4217
Rp4218
(dp4219
g78
g4213
sg70
(dp4220
g138
g139
ssg72
(lp4221
S'wsgi.file_wrapper'
p4222
asbag64
(g133
g66
Ntp4223
Rp4224
(dp4225
g78
g4213
sg70
(dp4226
g146
g147
ssg72
(lp4227
g149
asbag64
(g133
g66
Ntp4228
Rp4229
(dp4230
g78
g4213
sg70
(dp4231
sg72
(lp4232
g64
(g65
g66
Ntp4233
Rp4234
(dp4235
g78
g4229
sg70
(dp4236
g80
I3
ssg72
(lp4237
S'<class wsgiref.util.FileWrapper at 0x0000000006f105c0>'
p4238
asbasbasbag64
(g127
g66
Ntp4239
Rp4240
(dp4241
g78
g3713
sg70
(dp4242
sg72
(lp4243
g64
(g133
g66
Ntp4244
Rp4245
(dp4246
g78
g4240
sg70
(dp4247
g138
g139
ssg72
(lp4248
S'wsgi.input'
p4249
asbag64
(g133
g66
Ntp4250
Rp4251
(dp4252
g78
g4240
sg70
(dp4253
g146
g147
ssg72
(lp4254
g149
asbag64
(g133
g66
Ntp4255
Rp4256
(dp4257
g78
g4240
sg70
(dp4258
sg72
(lp4259
g64
(g65
g66
Ntp4260
Rp4261
(dp4262
g78
g4256
sg70
(dp4263
g80
I3
ssg72
(lp4264
S'<cStringIO.StringO object at 0x0000000006bb4410>'
p4265
asbasbasbag64
(g127
g66
Ntp4266
Rp4267
(dp4268
g78
g3713
sg70
(dp4269
sg72
(lp4270
g64
(g133
g66
Ntp4271
Rp4272
(dp4273
g78
g4267
sg70
(dp4274
g138
g139
ssg72
(lp4275
S'wsgi.multiprocess'
p4276
asbag64
(g133
g66
Ntp4277
Rp4278
(dp4279
g78
g4267
sg70
(dp4280
g146
g147
ssg72
(lp4281
g149
asbag64
(g133
g66
Ntp4282
Rp4283
(dp4284
g78
g4267
sg70
(dp4285
sg72
(lp4286
g64
(g65
g66
Ntp4287
Rp4288
(dp4289
g78
g4283
sg70
(dp4290
g80
I3
ssg72
(lp4291
g99
asbasbasbag64
(g127
g66
Ntp4292
Rp4293
(dp4294
g78
g3713
sg70
(dp4295
sg72
(lp4296
g64
(g133
g66
Ntp4297
Rp4298
(dp4299
g78
g4293
sg70
(dp4300
g138
g139
ssg72
(lp4301
S'wsgi.multithread'
p4302
asbag64
(g133
g66
Ntp4303
Rp4304
(dp4305
g78
g4293
sg70
(dp4306
g146
g147
ssg72
(lp4307
g149
asbag64
(g133
g66
Ntp4308
Rp4309
(dp4310
g78
g4293
sg70
(dp4311
sg72
(lp4312
g64
(g65
g66
Ntp4313
Rp4314
(dp4315
g78
g4309
sg70
(dp4316
g80
I3
ssg72
(lp4317
g91
asbasbasbag64
(g127
g66
Ntp4318
Rp4319
(dp4320
g78
g3713
sg70
(dp4321
sg72
(lp4322
g64
(g133
g66
Ntp4323
Rp4324
(dp4325
g78
g4319
sg70
(dp4326
g138
g139
ssg72
(lp4327
S'wsgi.run_once'
p4328
asbag64
(g133
g66
Ntp4329
Rp4330
(dp4331
g78
g4319
sg70
(dp4332
g146
g147
ssg72
(lp4333
g149
asbag64
(g133
g66
Ntp4334
Rp4335
(dp4336
g78
g4319
sg70
(dp4337
sg72
(lp4338
g64
(g65
g66
Ntp4339
Rp4340
(dp4341
g78
g4335
sg70
(dp4342
g80
I3
ssg72
(lp4343
g99
asbasbasbag64
(g127
g66
Ntp4344
Rp4345
(dp4346
g78
g3713
sg70
(dp4347
sg72
(lp4348
g64
(g133
g66
Ntp4349
Rp4350
(dp4351
g78
g4345
sg70
(dp4352
g138
g139
ssg72
(lp4353
S'wsgi.url_scheme'
p4354
asbag64
(g133
g66
Ntp4355
Rp4356
(dp4357
g78
g4345
sg70
(dp4358
g146
g147
ssg72
(lp4359
g149
asbag64
(g133
g66
Ntp4360
Rp4361
(dp4362
g78
g4345
sg70
(dp4363
sg72
(lp4364
g64
(g65
g66
Ntp4365
Rp4366
(dp4367
g78
g4361
sg70
(dp4368
g80
I3
ssg72
(lp4369
g2833
asbasbasbag64
(g127
g66
Ntp4370
Rp4371
(dp4372
g78
g3713
sg70
(dp4373
sg72
(lp4374
g64
(g133
g66
Ntp4375
Rp4376
(dp4377
g78
g4371
sg70
(dp4378
g138
g139
ssg72
(lp4379
S'wsgi.version'
p4380
asbag64
(g133
g66
Ntp4381
Rp4382
(dp4383
g78
g4371
sg70
(dp4384
g146
g147
ssg72
(lp4385
g149
asbag64
(g133
g66
Ntp4386
Rp4387
(dp4388
g78
g4371
sg70
(dp4389
sg72
(lp4390
g64
(g65
g66
Ntp4391
Rp4392
(dp4393
g78
g4387
sg70
(dp4394
g80
I3
ssg72
(lp4395
S'1'
p4396
asbasbasbasbasbasbasbasbasbasbasbasbasbsS'response'
p4397
g64
(g65
g66
Ntp4398
Rp4399
(dp4400
g70
(dp4401
sg72
(lp4402
g64
(g74
g66
Ntp4403
Rp4404
(dp4405
g78
Nsg70
(dp4406
g80
I5
ssg72
(lp4407
g64
(g127
g66
Ntp4408
Rp4409
(dp4410
g78
g4404
sg70
(dp4411
sg72
(lp4412
g64
(g133
g66
Ntp4413
Rp4414
(dp4415
g78
g4409
sg70
(dp4416
g138
g139
ssg72
(lp4417
g227
asbag64
(g133
g66
Ntp4418
Rp4419
(dp4420
g78
g4409
sg70
(dp4421
g146
g147
ssg72
(lp4422
g149
asbag64
(g133
g66
Ntp4423
Rp4424
(dp4425
g78
g4409
sg70
(dp4426
sg72
(lp4427
g64
(g65
g66
Ntp4428
Rp4429
(dp4430
g78
g4424
sg70
(dp4431
g80
I5
ssg72
(lp4432
S'<cStringIO.StringO object at 0x0000000006bb4288>'
p4433
asbasbasbag64
(g127
g66
Ntp4434
Rp4435
(dp4436
g78
g4404
sg70
(dp4437
sg72
(lp4438
g64
(g133
g66
Ntp4439
Rp4440
(dp4441
g78
g4435
sg70
(dp4442
g138
g139
ssg72
(lp4443
g308
asbag64
(g133
g66
Ntp4444
Rp4445
(dp4446
g78
g4435
sg70
(dp4447
g146
g147
ssg72
(lp4448
g149
asbag64
(g133
g66
Ntp4449
Rp4450
(dp4451
g78
g4435
sg70
(dp4452
sg72
(lp4453
g64
(g65
g66
Ntp4454
Rp4455
(dp4456
g78
g4450
sg70
(dp4457
g80
I5
ssg72
(lp4458
g64
(g74
g66
Ntp4459
Rp4460
(dp4461
g78
Nsg70
(dp4462
g80
I4
ssg72
(lp4463
g64
(g127
g66
Ntp4464
Rp4465
(dp4466
g78
g4460
sg70
(dp4467
sg72
(lp4468
g64
(g133
g66
Ntp4469
Rp4470
(dp4471
g78
g4465
sg70
(dp4472
g138
g139
ssg72
(lp4473
S'session_id_fragance'
p4474
asbag64
(g133
g66
Ntp4475
Rp4476
(dp4477
g78
g4465
sg70
(dp4478
g146
g147
ssg72
(lp4479
g149
asbag64
(g133
g66
Ntp4480
Rp4481
(dp4482
g78
g4465
sg70
(dp4483
sg72
(lp4484
g64
(g65
g66
Ntp4485
Rp4486
(dp4487
g78
g4481
sg70
(dp4488
g80
I4
ssg72
(lp4489
g64
(g74
g66
Ntp4490
Rp4491
(dp4492
g78
Nsg70
(dp4493
g80
I3
ssg72
(lp4494
g64
(g127
g66
Ntp4495
Rp4496
(dp4497
g78
g4491
sg70
(dp4498
sg72
(lp4499
g64
(g133
g66
Ntp4500
Rp4501
(dp4502
g78
g4496
sg70
(dp4503
g138
g139
ssg72
(lp4504
g370
asbag64
(g133
g66
Ntp4505
Rp4506
(dp4507
g78
g4496
sg70
(dp4508
g146
g147
ssg72
(lp4509
g149
asbag64
(g133
g66
Ntp4510
Rp4511
(dp4512
g78
g4496
sg70
(dp4513
sg72
(lp4514
g64
(g65
g66
Ntp4515
Rp4516
(dp4517
g78
g4511
sg70
(dp4518
g80
I3
ssg72
(lp4519
g386
asbasbasbag64
(g127
g66
Ntp4520
Rp4521
(dp4522
g78
g4491
sg70
(dp4523
sg72
(lp4524
g64
(g133
g66
Ntp4525
Rp4526
(dp4527
g78
g4521
sg70
(dp4528
g138
g139
ssg72
(lp4529
g397
asbag64
(g133
g66
Ntp4530
Rp4531
(dp4532
g78
g4521
sg70
(dp4533
g146
g147
ssg72
(lp4534
g149
asbag64
(g133
g66
Ntp4535
Rp4536
(dp4537
g78
g4521
sg70
(dp4538
sg72
(lp4539
g64
(g65
g66
Ntp4540
Rp4541
(dp4542
g78
g4536
sg70
(dp4543
g80
I3
ssg72
(lp4544
g386
asbasbasbag64
(g127
g66
Ntp4545
Rp4546
(dp4547
g78
g4491
sg70
(dp4548
sg72
(lp4549
g64
(g133
g66
Ntp4550
Rp4551
(dp4552
g78
g4546
sg70
(dp4553
g138
g139
ssg72
(lp4554
g423
asbag64
(g133
g66
Ntp4555
Rp4556
(dp4557
g78
g4546
sg70
(dp4558
g146
g147
ssg72
(lp4559
g149
asbag64
(g133
g66
Ntp4560
Rp4561
(dp4562
g78
g4546
sg70
(dp4563
sg72
(lp4564
g64
(g65
g66
Ntp4565
Rp4566
(dp4567
g78
g4561
sg70
(dp4568
g80
I3
ssg72
(lp4569
g386
asbasbasbag64
(g127
g66
Ntp4570
Rp4571
(dp4572
g78
g4491
sg70
(dp4573
sg72
(lp4574
g64
(g133
g66
Ntp4575
Rp4576
(dp4577
g78
g4571
sg70
(dp4578
g138
g139
ssg72
(lp4579
g449
asbag64
(g133
g66
Ntp4580
Rp4581
(dp4582
g78
g4571
sg70
(dp4583
g146
g147
ssg72
(lp4584
g149
asbag64
(g133
g66
Ntp4585
Rp4586
(dp4587
g78
g4571
sg70
(dp4588
sg72
(lp4589
g64
(g65
g66
Ntp4590
Rp4591
(dp4592
g78
g4586
sg70
(dp4593
g80
I3
ssg72
(lp4594
g386
asbasbasbag64
(g127
g66
Ntp4595
Rp4596
(dp4597
g78
g4491
sg70
(dp4598
sg72
(lp4599
g64
(g133
g66
Ntp4600
Rp4601
(dp4602
g78
g4596
sg70
(dp4603
g138
g139
ssg72
(lp4604
g475
asbag64
(g133
g66
Ntp4605
Rp4606
(dp4607
g78
g4596
sg70
(dp4608
g146
g147
ssg72
(lp4609
g149
asbag64
(g133
g66
Ntp4610
Rp4611
(dp4612
g78
g4596
sg70
(dp4613
sg72
(lp4614
g64
(g65
g66
Ntp4615
Rp4616
(dp4617
g78
g4611
sg70
(dp4618
g80
I3
ssg72
(lp4619
g386
asbasbasbag64
(g127
g66
Ntp4620
Rp4621
(dp4622
g78
g4491
sg70
(dp4623
sg72
(lp4624
g64
(g133
g66
Ntp4625
Rp4626
(dp4627
g78
g4621
sg70
(dp4628
g138
g139
ssg72
(lp4629
g501
asbag64
(g133
g66
Ntp4630
Rp4631
(dp4632
g78
g4621
sg70
(dp4633
g146
g147
ssg72
(lp4634
g149
asbag64
(g133
g66
Ntp4635
Rp4636
(dp4637
g78
g4621
sg70
(dp4638
sg72
(lp4639
g64
(g65
g66
Ntp4640
Rp4641
(dp4642
g78
g4636
sg70
(dp4643
g80
I3
ssg72
(lp4644
S'/'
p4645
asbasbasbag64
(g127
g66
Ntp4646
Rp4647
(dp4648
g78
g4491
sg70
(dp4649
sg72
(lp4650
g64
(g133
g66
Ntp4651
Rp4652
(dp4653
g78
g4647
sg70
(dp4654
g138
g139
ssg72
(lp4655
g527
asbag64
(g133
g66
Ntp4656
Rp4657
(dp4658
g78
g4647
sg70
(dp4659
g146
g147
ssg72
(lp4660
g149
asbag64
(g133
g66
Ntp4661
Rp4662
(dp4663
g78
g4647
sg70
(dp4664
sg72
(lp4665
g64
(g65
g66
Ntp4666
Rp4667
(dp4668
g78
g4662
sg70
(dp4669
g80
I3
ssg72
(lp4670
g386
asbasbasbag64
(g127
g66
Ntp4671
Rp4672
(dp4673
g78
g4491
sg70
(dp4674
sg72
(lp4675
g64
(g133
g66
Ntp4676
Rp4677
(dp4678
g78
g4672
sg70
(dp4679
g138
g139
ssg72
(lp4680
g553
asbag64
(g133
g66
Ntp4681
Rp4682
(dp4683
g78
g4672
sg70
(dp4684
g146
g147
ssg72
(lp4685
g149
asbag64
(g133
g66
Ntp4686
Rp4687
(dp4688
g78
g4672
sg70
(dp4689
sg72
(lp4690
g64
(g65
g66
Ntp4691
Rp4692
(dp4693
g78
g4687
sg70
(dp4694
g80
I3
ssg72
(lp4695
g386
asbasbasbasbasbasbasbasbasbasbasbag64
(g127
g66
Ntp4696
Rp4697
(dp4698
g78
g4404
sg70
(dp4699
sg72
(lp4700
g64
(g133
g66
Ntp4701
Rp4702
(dp4703
g78
g4697
sg70
(dp4704
g138
g139
ssg72
(lp4705
S'delimiters'
p4706
asbag64
(g133
g66
Ntp4707
Rp4708
(dp4709
g78
g4697
sg70
(dp4710
g146
g147
ssg72
(lp4711
g149
asbag64
(g133
g66
Ntp4712
Rp4713
(dp4714
g78
g4697
sg70
(dp4715
sg72
(lp4716
g64
(g65
g66
Ntp4717
Rp4718
(dp4719
g78
g4713
sg70
(dp4720
g80
I5
ssg72
(lp4721
g64
(g74
g66
Ntp4722
Rp4723
(dp4724
g78
Nsg70
(dp4725
g80
I4
ssg72
(lp4726
g64
(g127
g66
Ntp4727
Rp4728
(dp4729
g78
g4723
sg70
(dp4730
sg72
(lp4731
g64
(g133
g66
Ntp4732
Rp4733
(dp4734
g78
g4728
sg70
(dp4735
sg72
(lp4736
g64
(g65
g66
Ntp4737
Rp4738
(dp4739
g78
g4733
sg70
(dp4740
g80
I4
ssg72
(lp4741
S'{{'
p4742
asbasbasbag64
(g127
g66
Ntp4743
Rp4744
(dp4745
g78
g4723
sg70
(dp4746
sg72
(lp4747
g64
(g133
g66
Ntp4748
Rp4749
(dp4750
g78
g4744
sg70
(dp4751
sg72
(lp4752
g64
(g65
g66
Ntp4753
Rp4754
(dp4755
g78
g4749
sg70
(dp4756
g80
I4
ssg72
(lp4757
S'}}'
p4758
asbasbasbasbasbasbasbag64
(g127
g66
Ntp4759
Rp4760
(dp4761
g78
g4404
sg70
(dp4762
sg72
(lp4763
g64
(g133
g66
Ntp4764
Rp4765
(dp4766
g78
g4760
sg70
(dp4767
g138
g139
ssg72
(lp4768
S'files'
p4769
asbag64
(g133
g66
Ntp4770
Rp4771
(dp4772
g78
g4760
sg70
(dp4773
g146
g147
ssg72
(lp4774
g149
asbag64
(g133
g66
Ntp4775
Rp4776
(dp4777
g78
g4760
sg70
(dp4778
sg72
(lp4779
g64
(g65
g66
Ntp4780
Rp4781
(dp4782
g78
g4776
sg70
(dp4783
g80
I5
ssg72
(lp4784
g64
(g74
g66
Ntp4785
Rp4786
(dp4787
g78
Nsg70
(dp4788
g80
I4
ssg72
(lp4789
sbasbasbasbag64
(g127
g66
Ntp4790
Rp4791
(dp4792
g78
g4404
sg70
(dp4793
sg72
(lp4794
g64
(g133
g66
Ntp4795
Rp4796
(dp4797
g78
g4791
sg70
(dp4798
g138
g139
ssg72
(lp4799
S'flash'
p4800
asbag64
(g133
g66
Ntp4801
Rp4802
(dp4803
g78
g4791
sg70
(dp4804
g146
g147
ssg72
(lp4805
g149
asbag64
(g133
g66
Ntp4806
Rp4807
(dp4808
g78
g4791
sg70
(dp4809
sg72
(lp4810
g64
(g65
g66
Ntp4811
Rp4812
(dp4813
g78
g4807
sg70
(dp4814
g80
I5
ssg72
(lp4815
S''
p4816
asbasbasbag64
(g127
g66
Ntp4817
Rp4818
(dp4819
g78
g4404
sg70
(dp4820
sg72
(lp4821
g64
(g133
g66
Ntp4822
Rp4823
(dp4824
g78
g4818
sg70
(dp4825
g138
g139
ssg72
(lp4826
S'generic_patterns'
p4827
asbag64
(g133
g66
Ntp4828
Rp4829
(dp4830
g78
g4818
sg70
(dp4831
g146
g147
ssg72
(lp4832
g149
asbag64
(g133
g66
Ntp4833
Rp4834
(dp4835
g78
g4818
sg70
(dp4836
sg72
(lp4837
g64
(g65
g66
Ntp4838
Rp4839
(dp4840
g78
g4834
sg70
(dp4841
g80
I5
ssg72
(lp4842
g64
(g74
g66
Ntp4843
Rp4844
(dp4845
g78
Nsg70
(dp4846
g80
I4
ssg72
(lp4847
g64
(g127
g66
Ntp4848
Rp4849
(dp4850
g78
g4844
sg70
(dp4851
sg72
(lp4852
g64
(g133
g66
Ntp4853
Rp4854
(dp4855
g78
g4849
sg70
(dp4856
sg72
(lp4857
g64
(g65
g66
Ntp4858
Rp4859
(dp4860
g78
g4854
sg70
(dp4861
g80
I4
ssg72
(lp4862
S'*'
p4863
asbasbasbasbasbasbasbag64
(g127
g66
Ntp4864
Rp4865
(dp4866
g78
g4404
sg70
(dp4867
sg72
(lp4868
g64
(g133
g66
Ntp4869
Rp4870
(dp4871
g78
g4865
sg70
(dp4872
g138
g139
ssg72
(lp4873
S'headers'
p4874
asbag64
(g133
g66
Ntp4875
Rp4876
(dp4877
g78
g4865
sg70
(dp4878
g146
g147
ssg72
(lp4879
g149
asbag64
(g133
g66
Ntp4880
Rp4881
(dp4882
g78
g4865
sg70
(dp4883
sg72
(lp4884
g64
(g65
g66
Ntp4885
Rp4886
(dp4887
g78
g4881
sg70
(dp4888
g80
I5
ssg72
(lp4889
g64
(g74
g66
Ntp4890
Rp4891
(dp4892
g78
Nsg70
(dp4893
g80
I4
ssg72
(lp4894
g64
(g127
g66
Ntp4895
Rp4896
(dp4897
g78
g4891
sg70
(dp4898
sg72
(lp4899
g64
(g133
g66
Ntp4900
Rp4901
(dp4902
g78
g4896
sg70
(dp4903
g138
g139
ssg72
(lp4904
S'Cache-Control'
p4905
asbag64
(g133
g66
Ntp4906
Rp4907
(dp4908
g78
g4896
sg70
(dp4909
g146
g147
ssg72
(lp4910
g149
asbag64
(g133
g66
Ntp4911
Rp4912
(dp4913
g78
g4896
sg70
(dp4914
sg72
(lp4915
g64
(g65
g66
Ntp4916
Rp4917
(dp4918
g78
g4912
sg70
(dp4919
g80
I4
ssg72
(lp4920
S'no-store, no-cache, must-revalidate, post-check=0, pre-check=0'
p4921
asbasbasbag64
(g127
g66
Ntp4922
Rp4923
(dp4924
g78
g4891
sg70
(dp4925
sg72
(lp4926
g64
(g133
g66
Ntp4927
Rp4928
(dp4929
g78
g4923
sg70
(dp4930
g138
g139
ssg72
(lp4931
S'Content-Type'
p4932
asbag64
(g133
g66
Ntp4933
Rp4934
(dp4935
g78
g4923
sg70
(dp4936
g146
g147
ssg72
(lp4937
g149
asbag64
(g133
g66
Ntp4938
Rp4939
(dp4940
g78
g4923
sg70
(dp4941
sg72
(lp4942
g64
(g65
g66
Ntp4943
Rp4944
(dp4945
g78
g4939
sg70
(dp4946
g80
I4
ssg72
(lp4947
S'text/html; charset=utf-8'
p4948
asbasbasbag64
(g127
g66
Ntp4949
Rp4950
(dp4951
g78
g4891
sg70
(dp4952
sg72
(lp4953
g64
(g133
g66
Ntp4954
Rp4955
(dp4956
g78
g4950
sg70
(dp4957
g138
g139
ssg72
(lp4958
S'Expires'
p4959
asbag64
(g133
g66
Ntp4960
Rp4961
(dp4962
g78
g4950
sg70
(dp4963
g146
g147
ssg72
(lp4964
g149
asbag64
(g133
g66
Ntp4965
Rp4966
(dp4967
g78
g4950
sg70
(dp4968
sg72
(lp4969
g64
(g65
g66
Ntp4970
Rp4971
(dp4972
g78
g4966
sg70
(dp4973
g80
I4
ssg72
(lp4974
S'Wed, 14 Mar 2012 02:25:07 GMT'
p4975
asbasbasbag64
(g127
g66
Ntp4976
Rp4977
(dp4978
g78
g4891
sg70
(dp4979
sg72
(lp4980
g64
(g133
g66
Ntp4981
Rp4982
(dp4983
g78
g4977
sg70
(dp4984
g138
g139
ssg72
(lp4985
S'Pragma'
p4986
asbag64
(g133
g66
Ntp4987
Rp4988
(dp4989
g78
g4977
sg70
(dp4990
g146
g147
ssg72
(lp4991
g149
asbag64
(g133
g66
Ntp4992
Rp4993
(dp4994
g78
g4977
sg70
(dp4995
sg72
(lp4996
g64
(g65
g66
Ntp4997
Rp4998
(dp4999
g78
g4993
sg70
(dp5000
g80
I4
ssg72
(lp5001
S'no-cache'
p5002
asbasbasbag64
(g127
g66
Ntp5003
Rp5004
(dp5005
g78
g4891
sg70
(dp5006
sg72
(lp5007
g64
(g133
g66
Ntp5008
Rp5009
(dp5010
g78
g5004
sg70
(dp5011
g138
g139
ssg72
(lp5012
S'X-Powered-By'
p5013
asbag64
(g133
g66
Ntp5014
Rp5015
(dp5016
g78
g5004
sg70
(dp5017
g146
g147
ssg72
(lp5018
g149
asbag64
(g133
g66
Ntp5019
Rp5020
(dp5021
g78
g5004
sg70
(dp5022
sg72
(lp5023
g64
(g65
g66
Ntp5024
Rp5025
(dp5026
g78
g5020
sg70
(dp5027
g80
I4
ssg72
(lp5028
S'web2py'
p5029
asbasbasbasbasbasbasbag64
(g127
g66
Ntp5030
Rp5031
(dp5032
g78
g4404
sg70
(dp5033
sg72
(lp5034
g64
(g133
g66
Ntp5035
Rp5036
(dp5037
g78
g5031
sg70
(dp5038
g138
g139
ssg72
(lp5039
S'menu'
p5040
asbag64
(g133
g66
Ntp5041
Rp5042
(dp5043
g78
g5031
sg70
(dp5044
g146
g147
ssg72
(lp5045
g149
asbag64
(g133
g66
Ntp5046
Rp5047
(dp5048
g78
g5031
sg70
(dp5049
sg72
(lp5050
g64
(g65
g66
Ntp5051
Rp5052
(dp5053
g78
g5047
sg70
(dp5054
g80
I5
ssg72
(lp5055
g64
(g74
g66
Ntp5056
Rp5057
(dp5058
g78
Nsg70
(dp5059
g80
I4
ssg72
(lp5060
sbasbasbasbag64
(g127
g66
Ntp5061
Rp5062
(dp5063
g78
g4404
sg70
(dp5064
sg72
(lp5065
g64
(g133
g66
Ntp5066
Rp5067
(dp5068
g78
g5062
sg70
(dp5069
g138
g139
ssg72
(lp5070
S'meta'
p5071
asbag64
(g133
g66
Ntp5072
Rp5073
(dp5074
g78
g5062
sg70
(dp5075
g146
g147
ssg72
(lp5076
g149
asbag64
(g133
g66
Ntp5077
Rp5078
(dp5079
g78
g5062
sg70
(dp5080
sg72
(lp5081
g64
(g65
g66
Ntp5082
Rp5083
(dp5084
g78
g5078
sg70
(dp5085
g80
I5
ssg72
(lp5086
g64
(g74
g66
Ntp5087
Rp5088
(dp5089
g78
Nsg70
(dp5090
g80
I4
ssg72
(lp5091
sbasbasbasbag64
(g127
g66
Ntp5092
Rp5093
(dp5094
g78
g4404
sg70
(dp5095
sg72
(lp5096
g64
(g133
g66
Ntp5097
Rp5098
(dp5099
g78
g5093
sg70
(dp5100
g138
g139
ssg72
(lp5101
S'postprocessing'
p5102
asbag64
(g133
g66
Ntp5103
Rp5104
(dp5105
g78
g5093
sg70
(dp5106
g146
g147
ssg72
(lp5107
g149
asbag64
(g133
g66
Ntp5108
Rp5109
(dp5110
g78
g5093
sg70
(dp5111
sg72
(lp5112
g64
(g65
g66
Ntp5113
Rp5114
(dp5115
g78
g5109
sg70
(dp5116
g80
I5
ssg72
(lp5117
g64
(g74
g66
Ntp5118
Rp5119
(dp5120
g78
Nsg70
(dp5121
g80
I4
ssg72
(lp5122
sbasbasbasbag64
(g127
g66
Ntp5123
Rp5124
(dp5125
g78
g4404
sg70
(dp5126
sg72
(lp5127
g64
(g133
g66
Ntp5128
Rp5129
(dp5130
g78
g5124
sg70
(dp5131
g138
g139
ssg72
(lp5132
S'session_filename'
p5133
asbag64
(g133
g66
Ntp5134
Rp5135
(dp5136
g78
g5124
sg70
(dp5137
g146
g147
ssg72
(lp5138
g149
asbag64
(g133
g66
Ntp5139
Rp5140
(dp5141
g78
g5124
sg70
(dp5142
sg72
(lp5143
g64
(g65
g66
Ntp5144
Rp5145
(dp5146
g78
g5140
sg70
(dp5147
g80
I5
ssg72
(lp5148
S'/home/marco/projects/milanel/web2py/applications/fragance/sessions/127.0.0.1-74093578-d786-4bcd-887e-924e002225a0'
p5149
asbasbasbag64
(g127
g66
Ntp5150
Rp5151
(dp5152
g78
g4404
sg70
(dp5153
sg72
(lp5154
g64
(g133
g66
Ntp5155
Rp5156
(dp5157
g78
g5151
sg70
(dp5158
g138
g139
ssg72
(lp5159
S'session_id'
p5160
asbag64
(g133
g66
Ntp5161
Rp5162
(dp5163
g78
g5151
sg70
(dp5164
g146
g147
ssg72
(lp5165
g149
asbag64
(g133
g66
Ntp5166
Rp5167
(dp5168
g78
g5151
sg70
(dp5169
sg72
(lp5170
g64
(g65
g66
Ntp5171
Rp5172
(dp5173
g78
g5167
sg70
(dp5174
g80
I5
ssg72
(lp5175
S'127.0.0.1-74093578-d786-4bcd-887e-924e002225a0'
p5176
asbasbasbag64
(g127
g66
Ntp5177
Rp5178
(dp5179
g78
g4404
sg70
(dp5180
sg72
(lp5181
g64
(g133
g66
Ntp5182
Rp5183
(dp5184
g78
g5178
sg70
(dp5185
g138
g139
ssg72
(lp5186
S'session_id_name'
p5187
asbag64
(g133
g66
Ntp5188
Rp5189
(dp5190
g78
g5178
sg70
(dp5191
g146
g147
ssg72
(lp5192
g149
asbag64
(g133
g66
Ntp5193
Rp5194
(dp5195
g78
g5178
sg70
(dp5196
sg72
(lp5197
g64
(g65
g66
Ntp5198
Rp5199
(dp5200
g78
g5194
sg70
(dp5201
g80
I5
ssg72
(lp5202
g4474
asbasbasbag64
(g127
g66
Ntp5203
Rp5204
(dp5205
g78
g4404
sg70
(dp5206
sg72
(lp5207
g64
(g133
g66
Ntp5208
Rp5209
(dp5210
g78
g5204
sg70
(dp5211
g138
g139
ssg72
(lp5212
S'session_new'
p5213
asbag64
(g133
g66
Ntp5214
Rp5215
(dp5216
g78
g5204
sg70
(dp5217
g146
g147
ssg72
(lp5218
g149
asbag64
(g133
g66
Ntp5219
Rp5220
(dp5221
g78
g5204
sg70
(dp5222
sg72
(lp5223
g64
(g65
g66
Ntp5224
Rp5225
(dp5226
g78
g5220
sg70
(dp5227
g80
I5
ssg72
(lp5228
g91
asbasbasbag64
(g127
g66
Ntp5229
Rp5230
(dp5231
g78
g4404
sg70
(dp5232
sg72
(lp5233
g64
(g133
g66
Ntp5234
Rp5235
(dp5236
g78
g5230
sg70
(dp5237
g138
g139
ssg72
(lp5238
S'status'
p5239
asbag64
(g133
g66
Ntp5240
Rp5241
(dp5242
g78
g5230
sg70
(dp5243
g146
g147
ssg72
(lp5244
g149
asbag64
(g133
g66
Ntp5245
Rp5246
(dp5247
g78
g5230
sg70
(dp5248
sg72
(lp5249
g64
(g65
g66
Ntp5250
Rp5251
(dp5252
g78
g5246
sg70
(dp5253
g80
I5
ssg72
(lp5254
S'200'
p5255
asbasbasbag64
(g127
g66
Ntp5256
Rp5257
(dp5258
g78
g4404
sg70
(dp5259
sg72
(lp5260
g64
(g133
g66
Ntp5261
Rp5262
(dp5263
g78
g5257
sg70
(dp5264
g138
g139
ssg72
(lp5265
g3607
asbag64
(g133
g66
Ntp5266
Rp5267
(dp5268
g78
g5257
sg70
(dp5269
g146
g147
ssg72
(lp5270
g149
asbag64
(g133
g66
Ntp5271
Rp5272
(dp5273
g78
g5257
sg70
(dp5274
sg72
(lp5275
g64
(g65
g66
Ntp5276
Rp5277
(dp5278
g78
g5272
sg70
(dp5279
g80
I5
ssg72
(lp5280
g3623
asbasbasbag64
(g127
g66
Ntp5281
Rp5282
(dp5283
g78
g4404
sg70
(dp5284
sg72
(lp5285
g64
(g133
g66
Ntp5286
Rp5287
(dp5288
g78
g5282
sg70
(dp5289
g138
g139
ssg72
(lp5290
S'view'
p5291
asbag64
(g133
g66
Ntp5292
Rp5293
(dp5294
g78
g5282
sg70
(dp5295
g146
g147
ssg72
(lp5296
g149
asbag64
(g133
g66
Ntp5297
Rp5298
(dp5299
g78
g5282
sg70
(dp5300
sg72
(lp5301
g64
(g65
g66
Ntp5302
Rp5303
(dp5304
g78
g5298
sg70
(dp5305
g80
I5
ssg72
(lp5306
S'default/index.html'
p5307
asbasbasbasbasbsS'frames'
p5308
(lp5309
(dp5310
S'file'
p5311
S'/home/marco/projects/milanel/web2py/gluon/restricted.py'
p5312
sS'call'
p5313
S'(code="# coding: utf8\\n\\ndb.define_table(\'proveedor\',\\n   ...oveedor),\\n    Field(\'uingreso\',\'datetime\')\\n    )\\n", environment={\'A\': <class \'gluon.html.A\'>, \'Auth\': <class \'gluon.tools.Auth\'>, \'B\': <class \'gluon.html.B\'>, \'BEAUTIFY\': <class \'gluon.html.BEAUTIFY\'>, \'BODY\': <class \'gluon.html.BODY\'>, \'BR\': <class \'gluon.html.BR\'>, \'BUTTON\': <class \'gluon.html.BUTTON\'>, \'CAT\': <class \'gluon.html.CAT\'>, \'CENTER\': <class \'gluon.html.CENTER\'>, \'CLEANUP\': <class \'gluon.validators.CLEANUP\'>, ...}, layer=\'/home/marco/projects/milanel/web2py/applications/fragance/models/db_interno.py\')'
p5314
sS'func'
p5315
S'restricted'
p5316
sS'dump'
p5317
(dp5318
S'environment'
p5319
S"{'A': <class 'gluon.html.A'>, 'Auth': <class 'gluon.tools.Auth'>, 'B': <class 'gluon.html.B'>, 'BEAUTIFY': <class 'gluon.html.BEAUTIFY'>, 'BODY': <class 'gluon.html.BODY'>, 'BR': <class 'gluon.html.BR'>, 'BUTTON': <class 'gluon.html.BUTTON'>, 'CAT': <class 'gluon.html.CAT'>, 'CENTER': <class 'gluon.html.CENTER'>, 'CLEANUP': <class 'gluon.validators.CLEANUP'>, ...}"
p5320
sS'ccode'
p5321
S"<code object <module>, file '/home/marco/project...lications/fragance/models/db_interno.py', line 3>"
p5322
ssS'lnum'
p5323
I205
sS'lines'
p5324
(dp5325
I208
S'    except RestrictedError:'
p5326
sI209
S'        # do not encapsulate (obfuscate) the original RestrictedError'
p5327
sI200
S'    try:'
p5328
sI201
S'        if type(code) == types.CodeType:'
p5329
sI202
S'            ccode = code'
p5330
sI203
S'        else:'
p5331
sI204
S'            ccode = compile2(code,layer)'
p5332
sI205
S'        exec ccode in environment'
p5333
sI206
S'    except HTTP:'
p5334
sI207
S'        raise'
p5335
ssa(dp5336
g5311
S'/home/marco/projects/milanel/web2py/applications/fragance/models/db_interno.py'
p5337
sg5313
S'()'
p5338
sg5315
S'<module>'
p5339
sg5317
(dp5340
S'Field'
p5341
S"<class 'gluon.dal.Field'>"
p5342
ssg5323
I18
sg5324
(dp5343
I16
S"    Field('plista','float'),"
p5344
sI17
S"    Field('proveedor',db.proveedor),"
p5345
sI18
S"    Field('uingreso','datetime')"
p5346
sI19
S'    )'
p5347
sI10
S'    )'
p5348
sI11
S''
p5349
sI12
S"db.define_table('articulo',"
p5350
sI13
S"    Field('codigo','integer'),"
p5351
sI14
S"    Field('descripcion','string'),"
p5352
sI15
S"    Field('cantidad','integer'),"
p5353
ssa(dp5354
g5311
S'/home/marco/projects/milanel/web2py/gluon/dal.py'
p5355
sg5313
S"(self=<DAL {'_migrate_enabled': True, 'auth_event': <T...ject at 0x0000000006c96b48>}>, '_migrate': True}>, tablename='articulo', *fields=(<gluon.dal.Field object>, <gluon.dal.Field object>, <gluon.dal.Field object>, <gluon.dal.Field object>, <gluon.dal.Field object>, <gluon.dal.Field object>), **args={})"
p5356
sg5315
S'define_table'
p5357
sg5317
(dp5358
S'polymodel'
p5359
g33
ssg5323
I6320
sg5324
(dp5360
I6320
S'                                           polymodel=polymodel)'
p5361
sI6321
S'            finally:'
p5362
sI6322
S'                sql_locker.release()'
p5363
sI6323
S'        else:'
p5364
sI6324
S'            t._dbt = None'
p5365
sI6315
S"        if migrate or self._adapter.dbengine=='google:datastore':"
p5366
sI6316
S'            try:'
p5367
sI6317
S'                sql_locker.acquire()'
p5368
sI6318
S'                self._adapter.create_table(t,migrate=migrate,'
p5369
sI6319
S'                                           fake_migrate=fake_migrate,'
p5370
ssa(dp5371
g5311
S'/home/marco/projects/milanel/web2py/gluon/dal.py'
p5372
sg5313
S"(self=<gluon.dal.SQLiteAdapter object>, table=<Table {'plista': <gluon.dal.Field object at 0x0... <gluon.dal.Field object at 0x00007f2b59285fa0>}>, migrate=True, fake_migrate=False, polymodel=None)"
p5373
sg5315
S'create_table'
p5374
sg5317
(dp5375
S'field.type'
p5376
S"'float'"
p5377
sS'field'
p5378
S'<gluon.dal.Field object>'
p5379
sS'field.name'
p5380
S"'plista'"
p5381
ssg5323
I638
sg5324
(dp5382
I640
S'                ftype = self.types[field.type]\\'
p5383
sI641
S'                     % dict(length=field.length)'
p5384
sI642
S"            if not field.type.startswith('id') and not field.type.startswith('reference'):"
p5385
sI633
S"                precision, scale = map(int,field.type[8:-1].split(','))"
p5386
sI634
S'                ftype = self.types[field.type[:7]] % \\'
p5387
sI635
S'                    dict(precision=precision,scale=scale)'
p5388
sI636
S'            elif not field.type in self.types:'
p5389
sI637
S"                raise SyntaxError, 'Field: unknown field type: %s for %s' % \\"
p5390
sI638
S'                    (field.type, field.name)'
p5391
sI639
S'            else:'
p5392
ssassS'traceback'
p5393
S'Traceback (most recent call last):\n  File "/home/marco/projects/milanel/web2py/gluon/restricted.py", line 205, in restricted\n    exec ccode in environment\n  File "/home/marco/projects/milanel/web2py/applications/fragance/models/db_interno.py", line 18, in <module>\n    Field(\'uingreso\',\'datetime\')\n  File "/home/marco/projects/milanel/web2py/gluon/dal.py", line 6320, in define_table\n    polymodel=polymodel)\n  File "/home/marco/projects/milanel/web2py/gluon/dal.py", line 638, in create_table\n    (field.type, field.name)\nSyntaxError: Field: unknown field type: float for plista\n'
p5394
s.